
midterm2.elf:     file format elf32-littlearm

Sections:
Idx Name          Size      VMA       LMA       File off  Algn
  0 .isr_vector   00000188  08000000  08000000  00010000  2**0
                  CONTENTS, ALLOC, LOAD, READONLY, DATA
  1 .text         000076f8  08000188  08000188  00010188  2**2
                  CONTENTS, ALLOC, LOAD, READONLY, CODE
  2 .rodata       000000a8  08007880  08007880  00017880  2**2
                  CONTENTS, ALLOC, LOAD, READONLY, DATA
  3 .ARM.extab    00000000  08007928  08007928  00020144  2**0
                  CONTENTS
  4 .ARM          00000008  08007928  08007928  00017928  2**2
                  CONTENTS, ALLOC, LOAD, READONLY, DATA
  5 .preinit_array 00000000  08007930  08007930  00020144  2**0
                  CONTENTS, ALLOC, LOAD, DATA
  6 .init_array   00000004  08007930  08007930  00017930  2**2
                  CONTENTS, ALLOC, LOAD, DATA
  7 .fini_array   00000004  08007934  08007934  00017934  2**2
                  CONTENTS, ALLOC, LOAD, DATA
  8 .data         00000144  20000000  08007938  00020000  2**2
                  CONTENTS, ALLOC, LOAD, DATA
  9 .ccmram       00000000  10000000  10000000  00020144  2**0
                  CONTENTS
 10 .bss          00001c7c  20000144  20000144  00020144  2**2
                  ALLOC
 11 ._user_heap_stack 00000600  20001dc0  20001dc0  00020144  2**0
                  ALLOC
 12 .ARM.attributes 00000030  00000000  00000000  00020144  2**0
                  CONTENTS, READONLY
 13 .debug_info   00013894  00000000  00000000  00020174  2**0
                  CONTENTS, READONLY, DEBUGGING, OCTETS
 14 .debug_abbrev 00002f03  00000000  00000000  00033a08  2**0
                  CONTENTS, READONLY, DEBUGGING, OCTETS
 15 .debug_aranges 000010b0  00000000  00000000  00036910  2**3
                  CONTENTS, READONLY, DEBUGGING, OCTETS
 16 .debug_ranges 00000f58  00000000  00000000  000379c0  2**3
                  CONTENTS, READONLY, DEBUGGING, OCTETS
 17 .debug_macro  00023ab8  00000000  00000000  00038918  2**0
                  CONTENTS, READONLY, DEBUGGING, OCTETS
 18 .debug_line   00014298  00000000  00000000  0005c3d0  2**0
                  CONTENTS, READONLY, DEBUGGING, OCTETS
 19 .debug_str    000cc719  00000000  00000000  00070668  2**0
                  CONTENTS, READONLY, DEBUGGING, OCTETS
 20 .comment      00000050  00000000  00000000  0013cd81  2**0
                  CONTENTS, READONLY
 21 .debug_frame  00004584  00000000  00000000  0013cdd4  2**2
                  CONTENTS, READONLY, DEBUGGING, OCTETS

Disassembly of section .text:

08000188 <__do_global_dtors_aux>:
 8000188:	b510      	push	{r4, lr}
 800018a:	4c05      	ldr	r4, [pc, #20]	; (80001a0 <__do_global_dtors_aux+0x18>)
 800018c:	7823      	ldrb	r3, [r4, #0]
 800018e:	b933      	cbnz	r3, 800019e <__do_global_dtors_aux+0x16>
 8000190:	4b04      	ldr	r3, [pc, #16]	; (80001a4 <__do_global_dtors_aux+0x1c>)
 8000192:	b113      	cbz	r3, 800019a <__do_global_dtors_aux+0x12>
 8000194:	4804      	ldr	r0, [pc, #16]	; (80001a8 <__do_global_dtors_aux+0x20>)
 8000196:	f3af 8000 	nop.w
 800019a:	2301      	movs	r3, #1
 800019c:	7023      	strb	r3, [r4, #0]
 800019e:	bd10      	pop	{r4, pc}
 80001a0:	20000144 	.word	0x20000144
 80001a4:	00000000 	.word	0x00000000
 80001a8:	08007868 	.word	0x08007868

080001ac <frame_dummy>:
 80001ac:	b508      	push	{r3, lr}
 80001ae:	4b03      	ldr	r3, [pc, #12]	; (80001bc <frame_dummy+0x10>)
 80001b0:	b11b      	cbz	r3, 80001ba <frame_dummy+0xe>
 80001b2:	4903      	ldr	r1, [pc, #12]	; (80001c0 <frame_dummy+0x14>)
 80001b4:	4803      	ldr	r0, [pc, #12]	; (80001c4 <frame_dummy+0x18>)
 80001b6:	f3af 8000 	nop.w
 80001ba:	bd08      	pop	{r3, pc}
 80001bc:	00000000 	.word	0x00000000
 80001c0:	20000148 	.word	0x20000148
 80001c4:	08007868 	.word	0x08007868

080001c8 <strcmp>:
 80001c8:	f810 2b01 	ldrb.w	r2, [r0], #1
 80001cc:	f811 3b01 	ldrb.w	r3, [r1], #1
 80001d0:	2a01      	cmp	r2, #1
 80001d2:	bf28      	it	cs
 80001d4:	429a      	cmpcs	r2, r3
 80001d6:	d0f7      	beq.n	80001c8 <strcmp>
 80001d8:	1ad0      	subs	r0, r2, r3
 80001da:	4770      	bx	lr

080001dc <strlen>:
 80001dc:	4603      	mov	r3, r0
 80001de:	f813 2b01 	ldrb.w	r2, [r3], #1
 80001e2:	2a00      	cmp	r2, #0
 80001e4:	d1fb      	bne.n	80001de <strlen+0x2>
 80001e6:	1a18      	subs	r0, r3, r0
 80001e8:	3801      	subs	r0, #1
 80001ea:	4770      	bx	lr

080001ec <__aeabi_uldivmod>:
 80001ec:	b953      	cbnz	r3, 8000204 <__aeabi_uldivmod+0x18>
 80001ee:	b94a      	cbnz	r2, 8000204 <__aeabi_uldivmod+0x18>
 80001f0:	2900      	cmp	r1, #0
 80001f2:	bf08      	it	eq
 80001f4:	2800      	cmpeq	r0, #0
 80001f6:	bf1c      	itt	ne
 80001f8:	f04f 31ff 	movne.w	r1, #4294967295
 80001fc:	f04f 30ff 	movne.w	r0, #4294967295
 8000200:	f000 b974 	b.w	80004ec <__aeabi_idiv0>
 8000204:	f1ad 0c08 	sub.w	ip, sp, #8
 8000208:	e96d ce04 	strd	ip, lr, [sp, #-16]!
 800020c:	f000 f806 	bl	800021c <__udivmoddi4>
 8000210:	f8dd e004 	ldr.w	lr, [sp, #4]
 8000214:	e9dd 2302 	ldrd	r2, r3, [sp, #8]
 8000218:	b004      	add	sp, #16
 800021a:	4770      	bx	lr

0800021c <__udivmoddi4>:
 800021c:	e92d 47f0 	stmdb	sp!, {r4, r5, r6, r7, r8, r9, sl, lr}
 8000220:	9d08      	ldr	r5, [sp, #32]
 8000222:	4604      	mov	r4, r0
 8000224:	468e      	mov	lr, r1
 8000226:	2b00      	cmp	r3, #0
 8000228:	d14d      	bne.n	80002c6 <__udivmoddi4+0xaa>
 800022a:	428a      	cmp	r2, r1
 800022c:	4694      	mov	ip, r2
 800022e:	d969      	bls.n	8000304 <__udivmoddi4+0xe8>
 8000230:	fab2 f282 	clz	r2, r2
 8000234:	b152      	cbz	r2, 800024c <__udivmoddi4+0x30>
 8000236:	fa01 f302 	lsl.w	r3, r1, r2
 800023a:	f1c2 0120 	rsb	r1, r2, #32
 800023e:	fa20 f101 	lsr.w	r1, r0, r1
 8000242:	fa0c fc02 	lsl.w	ip, ip, r2
 8000246:	ea41 0e03 	orr.w	lr, r1, r3
 800024a:	4094      	lsls	r4, r2
 800024c:	ea4f 481c 	mov.w	r8, ip, lsr #16
 8000250:	0c21      	lsrs	r1, r4, #16
 8000252:	fbbe f6f8 	udiv	r6, lr, r8
 8000256:	fa1f f78c 	uxth.w	r7, ip
 800025a:	fb08 e316 	mls	r3, r8, r6, lr
 800025e:	ea41 4303 	orr.w	r3, r1, r3, lsl #16
 8000262:	fb06 f107 	mul.w	r1, r6, r7
 8000266:	4299      	cmp	r1, r3
 8000268:	d90a      	bls.n	8000280 <__udivmoddi4+0x64>
 800026a:	eb1c 0303 	adds.w	r3, ip, r3
 800026e:	f106 30ff 	add.w	r0, r6, #4294967295
 8000272:	f080 811f 	bcs.w	80004b4 <__udivmoddi4+0x298>
 8000276:	4299      	cmp	r1, r3
 8000278:	f240 811c 	bls.w	80004b4 <__udivmoddi4+0x298>
 800027c:	3e02      	subs	r6, #2
 800027e:	4463      	add	r3, ip
 8000280:	1a5b      	subs	r3, r3, r1
 8000282:	b2a4      	uxth	r4, r4
 8000284:	fbb3 f0f8 	udiv	r0, r3, r8
 8000288:	fb08 3310 	mls	r3, r8, r0, r3
 800028c:	ea44 4403 	orr.w	r4, r4, r3, lsl #16
 8000290:	fb00 f707 	mul.w	r7, r0, r7
 8000294:	42a7      	cmp	r7, r4
 8000296:	d90a      	bls.n	80002ae <__udivmoddi4+0x92>
 8000298:	eb1c 0404 	adds.w	r4, ip, r4
 800029c:	f100 33ff 	add.w	r3, r0, #4294967295
 80002a0:	f080 810a 	bcs.w	80004b8 <__udivmoddi4+0x29c>
 80002a4:	42a7      	cmp	r7, r4
 80002a6:	f240 8107 	bls.w	80004b8 <__udivmoddi4+0x29c>
 80002aa:	4464      	add	r4, ip
 80002ac:	3802      	subs	r0, #2
 80002ae:	ea40 4006 	orr.w	r0, r0, r6, lsl #16
 80002b2:	1be4      	subs	r4, r4, r7
 80002b4:	2600      	movs	r6, #0
 80002b6:	b11d      	cbz	r5, 80002c0 <__udivmoddi4+0xa4>
 80002b8:	40d4      	lsrs	r4, r2
 80002ba:	2300      	movs	r3, #0
 80002bc:	e9c5 4300 	strd	r4, r3, [r5]
 80002c0:	4631      	mov	r1, r6
 80002c2:	e8bd 87f0 	ldmia.w	sp!, {r4, r5, r6, r7, r8, r9, sl, pc}
 80002c6:	428b      	cmp	r3, r1
 80002c8:	d909      	bls.n	80002de <__udivmoddi4+0xc2>
 80002ca:	2d00      	cmp	r5, #0
 80002cc:	f000 80ef 	beq.w	80004ae <__udivmoddi4+0x292>
 80002d0:	2600      	movs	r6, #0
 80002d2:	e9c5 0100 	strd	r0, r1, [r5]
 80002d6:	4630      	mov	r0, r6
 80002d8:	4631      	mov	r1, r6
 80002da:	e8bd 87f0 	ldmia.w	sp!, {r4, r5, r6, r7, r8, r9, sl, pc}
 80002de:	fab3 f683 	clz	r6, r3
 80002e2:	2e00      	cmp	r6, #0
 80002e4:	d14a      	bne.n	800037c <__udivmoddi4+0x160>
 80002e6:	428b      	cmp	r3, r1
 80002e8:	d302      	bcc.n	80002f0 <__udivmoddi4+0xd4>
 80002ea:	4282      	cmp	r2, r0
 80002ec:	f200 80f9 	bhi.w	80004e2 <__udivmoddi4+0x2c6>
 80002f0:	1a84      	subs	r4, r0, r2
 80002f2:	eb61 0303 	sbc.w	r3, r1, r3
 80002f6:	2001      	movs	r0, #1
 80002f8:	469e      	mov	lr, r3
 80002fa:	2d00      	cmp	r5, #0
 80002fc:	d0e0      	beq.n	80002c0 <__udivmoddi4+0xa4>
 80002fe:	e9c5 4e00 	strd	r4, lr, [r5]
 8000302:	e7dd      	b.n	80002c0 <__udivmoddi4+0xa4>
 8000304:	b902      	cbnz	r2, 8000308 <__udivmoddi4+0xec>
 8000306:	deff      	udf	#255	; 0xff
 8000308:	fab2 f282 	clz	r2, r2
 800030c:	2a00      	cmp	r2, #0
 800030e:	f040 8092 	bne.w	8000436 <__udivmoddi4+0x21a>
 8000312:	eba1 010c 	sub.w	r1, r1, ip
 8000316:	ea4f 471c 	mov.w	r7, ip, lsr #16
 800031a:	fa1f fe8c 	uxth.w	lr, ip
 800031e:	2601      	movs	r6, #1
 8000320:	0c20      	lsrs	r0, r4, #16
 8000322:	fbb1 f3f7 	udiv	r3, r1, r7
 8000326:	fb07 1113 	mls	r1, r7, r3, r1
 800032a:	ea40 4101 	orr.w	r1, r0, r1, lsl #16
 800032e:	fb0e f003 	mul.w	r0, lr, r3
 8000332:	4288      	cmp	r0, r1
 8000334:	d908      	bls.n	8000348 <__udivmoddi4+0x12c>
 8000336:	eb1c 0101 	adds.w	r1, ip, r1
 800033a:	f103 38ff 	add.w	r8, r3, #4294967295
 800033e:	d202      	bcs.n	8000346 <__udivmoddi4+0x12a>
 8000340:	4288      	cmp	r0, r1
 8000342:	f200 80cb 	bhi.w	80004dc <__udivmoddi4+0x2c0>
 8000346:	4643      	mov	r3, r8
 8000348:	1a09      	subs	r1, r1, r0
 800034a:	b2a4      	uxth	r4, r4
 800034c:	fbb1 f0f7 	udiv	r0, r1, r7
 8000350:	fb07 1110 	mls	r1, r7, r0, r1
 8000354:	ea44 4401 	orr.w	r4, r4, r1, lsl #16
 8000358:	fb0e fe00 	mul.w	lr, lr, r0
 800035c:	45a6      	cmp	lr, r4
 800035e:	d908      	bls.n	8000372 <__udivmoddi4+0x156>
 8000360:	eb1c 0404 	adds.w	r4, ip, r4
 8000364:	f100 31ff 	add.w	r1, r0, #4294967295
 8000368:	d202      	bcs.n	8000370 <__udivmoddi4+0x154>
 800036a:	45a6      	cmp	lr, r4
 800036c:	f200 80bb 	bhi.w	80004e6 <__udivmoddi4+0x2ca>
 8000370:	4608      	mov	r0, r1
 8000372:	eba4 040e 	sub.w	r4, r4, lr
 8000376:	ea40 4003 	orr.w	r0, r0, r3, lsl #16
 800037a:	e79c      	b.n	80002b6 <__udivmoddi4+0x9a>
 800037c:	f1c6 0720 	rsb	r7, r6, #32
 8000380:	40b3      	lsls	r3, r6
 8000382:	fa22 fc07 	lsr.w	ip, r2, r7
 8000386:	ea4c 0c03 	orr.w	ip, ip, r3
 800038a:	fa20 f407 	lsr.w	r4, r0, r7
 800038e:	fa01 f306 	lsl.w	r3, r1, r6
 8000392:	431c      	orrs	r4, r3
 8000394:	40f9      	lsrs	r1, r7
 8000396:	ea4f 491c 	mov.w	r9, ip, lsr #16
 800039a:	fa00 f306 	lsl.w	r3, r0, r6
 800039e:	fbb1 f8f9 	udiv	r8, r1, r9
 80003a2:	0c20      	lsrs	r0, r4, #16
 80003a4:	fa1f fe8c 	uxth.w	lr, ip
 80003a8:	fb09 1118 	mls	r1, r9, r8, r1
 80003ac:	ea40 4101 	orr.w	r1, r0, r1, lsl #16
 80003b0:	fb08 f00e 	mul.w	r0, r8, lr
 80003b4:	4288      	cmp	r0, r1
 80003b6:	fa02 f206 	lsl.w	r2, r2, r6
 80003ba:	d90b      	bls.n	80003d4 <__udivmoddi4+0x1b8>
 80003bc:	eb1c 0101 	adds.w	r1, ip, r1
 80003c0:	f108 3aff 	add.w	sl, r8, #4294967295
 80003c4:	f080 8088 	bcs.w	80004d8 <__udivmoddi4+0x2bc>
 80003c8:	4288      	cmp	r0, r1
 80003ca:	f240 8085 	bls.w	80004d8 <__udivmoddi4+0x2bc>
 80003ce:	f1a8 0802 	sub.w	r8, r8, #2
 80003d2:	4461      	add	r1, ip
 80003d4:	1a09      	subs	r1, r1, r0
 80003d6:	b2a4      	uxth	r4, r4
 80003d8:	fbb1 f0f9 	udiv	r0, r1, r9
 80003dc:	fb09 1110 	mls	r1, r9, r0, r1
 80003e0:	ea44 4101 	orr.w	r1, r4, r1, lsl #16
 80003e4:	fb00 fe0e 	mul.w	lr, r0, lr
 80003e8:	458e      	cmp	lr, r1
 80003ea:	d908      	bls.n	80003fe <__udivmoddi4+0x1e2>
 80003ec:	eb1c 0101 	adds.w	r1, ip, r1
 80003f0:	f100 34ff 	add.w	r4, r0, #4294967295
 80003f4:	d26c      	bcs.n	80004d0 <__udivmoddi4+0x2b4>
 80003f6:	458e      	cmp	lr, r1
 80003f8:	d96a      	bls.n	80004d0 <__udivmoddi4+0x2b4>
 80003fa:	3802      	subs	r0, #2
 80003fc:	4461      	add	r1, ip
 80003fe:	ea40 4008 	orr.w	r0, r0, r8, lsl #16
 8000402:	fba0 9402 	umull	r9, r4, r0, r2
 8000406:	eba1 010e 	sub.w	r1, r1, lr
 800040a:	42a1      	cmp	r1, r4
 800040c:	46c8      	mov	r8, r9
 800040e:	46a6      	mov	lr, r4
 8000410:	d356      	bcc.n	80004c0 <__udivmoddi4+0x2a4>
 8000412:	d053      	beq.n	80004bc <__udivmoddi4+0x2a0>
 8000414:	b15d      	cbz	r5, 800042e <__udivmoddi4+0x212>
 8000416:	ebb3 0208 	subs.w	r2, r3, r8
 800041a:	eb61 010e 	sbc.w	r1, r1, lr
 800041e:	fa01 f707 	lsl.w	r7, r1, r7
 8000422:	fa22 f306 	lsr.w	r3, r2, r6
 8000426:	40f1      	lsrs	r1, r6
 8000428:	431f      	orrs	r7, r3
 800042a:	e9c5 7100 	strd	r7, r1, [r5]
 800042e:	2600      	movs	r6, #0
 8000430:	4631      	mov	r1, r6
 8000432:	e8bd 87f0 	ldmia.w	sp!, {r4, r5, r6, r7, r8, r9, sl, pc}
 8000436:	f1c2 0320 	rsb	r3, r2, #32
 800043a:	40d8      	lsrs	r0, r3
 800043c:	fa0c fc02 	lsl.w	ip, ip, r2
 8000440:	fa21 f303 	lsr.w	r3, r1, r3
 8000444:	4091      	lsls	r1, r2
 8000446:	4301      	orrs	r1, r0
 8000448:	ea4f 471c 	mov.w	r7, ip, lsr #16
 800044c:	fa1f fe8c 	uxth.w	lr, ip
 8000450:	fbb3 f0f7 	udiv	r0, r3, r7
 8000454:	fb07 3610 	mls	r6, r7, r0, r3
 8000458:	0c0b      	lsrs	r3, r1, #16
 800045a:	ea43 4306 	orr.w	r3, r3, r6, lsl #16
 800045e:	fb00 f60e 	mul.w	r6, r0, lr
 8000462:	429e      	cmp	r6, r3
 8000464:	fa04 f402 	lsl.w	r4, r4, r2
 8000468:	d908      	bls.n	800047c <__udivmoddi4+0x260>
 800046a:	eb1c 0303 	adds.w	r3, ip, r3
 800046e:	f100 38ff 	add.w	r8, r0, #4294967295
 8000472:	d22f      	bcs.n	80004d4 <__udivmoddi4+0x2b8>
 8000474:	429e      	cmp	r6, r3
 8000476:	d92d      	bls.n	80004d4 <__udivmoddi4+0x2b8>
 8000478:	3802      	subs	r0, #2
 800047a:	4463      	add	r3, ip
 800047c:	1b9b      	subs	r3, r3, r6
 800047e:	b289      	uxth	r1, r1
 8000480:	fbb3 f6f7 	udiv	r6, r3, r7
 8000484:	fb07 3316 	mls	r3, r7, r6, r3
 8000488:	ea41 4103 	orr.w	r1, r1, r3, lsl #16
 800048c:	fb06 f30e 	mul.w	r3, r6, lr
 8000490:	428b      	cmp	r3, r1
 8000492:	d908      	bls.n	80004a6 <__udivmoddi4+0x28a>
 8000494:	eb1c 0101 	adds.w	r1, ip, r1
 8000498:	f106 38ff 	add.w	r8, r6, #4294967295
 800049c:	d216      	bcs.n	80004cc <__udivmoddi4+0x2b0>
 800049e:	428b      	cmp	r3, r1
 80004a0:	d914      	bls.n	80004cc <__udivmoddi4+0x2b0>
 80004a2:	3e02      	subs	r6, #2
 80004a4:	4461      	add	r1, ip
 80004a6:	1ac9      	subs	r1, r1, r3
 80004a8:	ea46 4600 	orr.w	r6, r6, r0, lsl #16
 80004ac:	e738      	b.n	8000320 <__udivmoddi4+0x104>
 80004ae:	462e      	mov	r6, r5
 80004b0:	4628      	mov	r0, r5
 80004b2:	e705      	b.n	80002c0 <__udivmoddi4+0xa4>
 80004b4:	4606      	mov	r6, r0
 80004b6:	e6e3      	b.n	8000280 <__udivmoddi4+0x64>
 80004b8:	4618      	mov	r0, r3
 80004ba:	e6f8      	b.n	80002ae <__udivmoddi4+0x92>
 80004bc:	454b      	cmp	r3, r9
 80004be:	d2a9      	bcs.n	8000414 <__udivmoddi4+0x1f8>
 80004c0:	ebb9 0802 	subs.w	r8, r9, r2
 80004c4:	eb64 0e0c 	sbc.w	lr, r4, ip
 80004c8:	3801      	subs	r0, #1
 80004ca:	e7a3      	b.n	8000414 <__udivmoddi4+0x1f8>
 80004cc:	4646      	mov	r6, r8
 80004ce:	e7ea      	b.n	80004a6 <__udivmoddi4+0x28a>
 80004d0:	4620      	mov	r0, r4
 80004d2:	e794      	b.n	80003fe <__udivmoddi4+0x1e2>
 80004d4:	4640      	mov	r0, r8
 80004d6:	e7d1      	b.n	800047c <__udivmoddi4+0x260>
 80004d8:	46d0      	mov	r8, sl
 80004da:	e77b      	b.n	80003d4 <__udivmoddi4+0x1b8>
 80004dc:	3b02      	subs	r3, #2
 80004de:	4461      	add	r1, ip
 80004e0:	e732      	b.n	8000348 <__udivmoddi4+0x12c>
 80004e2:	4630      	mov	r0, r6
 80004e4:	e709      	b.n	80002fa <__udivmoddi4+0xde>
 80004e6:	4464      	add	r4, ip
 80004e8:	3802      	subs	r0, #2
 80004ea:	e742      	b.n	8000372 <__udivmoddi4+0x156>

080004ec <__aeabi_idiv0>:
 80004ec:	4770      	bx	lr
 80004ee:	bf00      	nop

080004f0 <name>:

/* USER CODE END PFP */

/* Private user code ---------------------------------------------------------*/
/* USER CODE BEGIN 0 */
void name(){ // matches the short and long pushes with letters
 80004f0:	b590      	push	{r4, r7, lr}
 80004f2:	b083      	sub	sp, #12
 80004f4:	af00      	add	r7, sp, #0
	int i=0;
 80004f6:	2300      	movs	r3, #0
 80004f8:	607b      	str	r3, [r7, #4]
	while (i < 9) {
 80004fa:	e02c      	b.n	8000556 <name+0x66>
	  if (strcmp(iteretor, morsecode[i]) == 0) {
 80004fc:	4a1a      	ldr	r2, [pc, #104]	; (8000568 <name+0x78>)
 80004fe:	687b      	ldr	r3, [r7, #4]
 8000500:	f852 3023 	ldr.w	r3, [r2, r3, lsl #2]
 8000504:	4619      	mov	r1, r3
 8000506:	4819      	ldr	r0, [pc, #100]	; (800056c <name+0x7c>)
 8000508:	f7ff fe5e 	bl	80001c8 <strcmp>
 800050c:	4603      	mov	r3, r0
 800050e:	2b00      	cmp	r3, #0
 8000510:	d11e      	bne.n	8000550 <name+0x60>
	    CDC_Transmit_FS(name_surname[i], strlen(name_surname[i]));
 8000512:	4a17      	ldr	r2, [pc, #92]	; (8000570 <name+0x80>)
 8000514:	687b      	ldr	r3, [r7, #4]
 8000516:	f852 4023 	ldr.w	r4, [r2, r3, lsl #2]
 800051a:	4a15      	ldr	r2, [pc, #84]	; (8000570 <name+0x80>)
 800051c:	687b      	ldr	r3, [r7, #4]
 800051e:	f852 3023 	ldr.w	r3, [r2, r3, lsl #2]
 8000522:	4618      	mov	r0, r3
 8000524:	f7ff fe5a 	bl	80001dc <strlen>
 8000528:	4603      	mov	r3, r0
 800052a:	b29b      	uxth	r3, r3
 800052c:	4619      	mov	r1, r3
 800052e:	4620      	mov	r0, r4
 8000530:	f006 fd12 	bl	8006f58 <CDC_Transmit_FS>
	    for (int y = 0; y < 6; y++) {
 8000534:	2300      	movs	r3, #0
 8000536:	603b      	str	r3, [r7, #0]
 8000538:	e007      	b.n	800054a <name+0x5a>
	      iteretor[y] = '\0';
 800053a:	4a0c      	ldr	r2, [pc, #48]	; (800056c <name+0x7c>)
 800053c:	683b      	ldr	r3, [r7, #0]
 800053e:	4413      	add	r3, r2
 8000540:	2200      	movs	r2, #0
 8000542:	701a      	strb	r2, [r3, #0]
	    for (int y = 0; y < 6; y++) {
 8000544:	683b      	ldr	r3, [r7, #0]
 8000546:	3301      	adds	r3, #1
 8000548:	603b      	str	r3, [r7, #0]
 800054a:	683b      	ldr	r3, [r7, #0]
 800054c:	2b05      	cmp	r3, #5
 800054e:	ddf4      	ble.n	800053a <name+0x4a>
	    }
	  }
	  i++;
 8000550:	687b      	ldr	r3, [r7, #4]
 8000552:	3301      	adds	r3, #1
 8000554:	607b      	str	r3, [r7, #4]
	while (i < 9) {
 8000556:	687b      	ldr	r3, [r7, #4]
 8000558:	2b08      	cmp	r3, #8
 800055a:	ddcf      	ble.n	80004fc <name+0xc>
			}
}
 800055c:	bf00      	nop
 800055e:	bf00      	nop
 8000560:	370c      	adds	r7, #12
 8000562:	46bd      	mov	sp, r7
 8000564:	bd90      	pop	{r4, r7, pc}
 8000566:	bf00      	nop
 8000568:	20000000 	.word	0x20000000
 800056c:	200001a8 	.word	0x200001a8
 8000570:	20000024 	.word	0x20000024

08000574 <main>:
/**
  * @brief  The application entry point.
  * @retval int
  */
int main(void)
{
 8000574:	b580      	push	{r7, lr}
 8000576:	af00      	add	r7, sp, #0
  /* USER CODE END 1 */

  /* MCU Configuration--------------------------------------------------------*/

  /* Reset of all peripherals, Initializes the Flash interface and the Systick. */
  HAL_Init();
 8000578:	f000 fa7c 	bl	8000a74 <HAL_Init>
  /* USER CODE BEGIN Init */

  /* USER CODE END Init */

  /* Configure the system clock */
  SystemClock_Config();
 800057c:	f000 f80c 	bl	8000598 <SystemClock_Config>
  /* USER CODE BEGIN SysInit */

  /* USER CODE END SysInit */

  /* Initialize all configured peripherals */
  MX_GPIO_Init();
 8000580:	f000 f8aa 	bl	80006d8 <MX_GPIO_Init>
  MX_TIM6_Init();
 8000584:	f000 f872 	bl	800066c <MX_TIM6_Init>
  MX_USB_DEVICE_Init();
 8000588:	f006 fc28 	bl	8006ddc <MX_USB_DEVICE_Init>
  /* USER CODE BEGIN 2 */
  HAL_TIM_Base_Start(&htim6);
 800058c:	4801      	ldr	r0, [pc, #4]	; (8000594 <main+0x20>)
 800058e:	f002 fd3d 	bl	800300c <HAL_TIM_Base_Start>

  /* USER CODE END 2 */

  /* Infinite loop */
  /* USER CODE BEGIN WHILE */
  while (1)
 8000592:	e7fe      	b.n	8000592 <main+0x1e>
 8000594:	20000160 	.word	0x20000160

08000598 <SystemClock_Config>:
/**
  * @brief System Clock Configuration
  * @retval None
  */
void SystemClock_Config(void)
{
 8000598:	b580      	push	{r7, lr}
 800059a:	b094      	sub	sp, #80	; 0x50
 800059c:	af00      	add	r7, sp, #0
  RCC_OscInitTypeDef RCC_OscInitStruct = {0};
 800059e:	f107 0320 	add.w	r3, r7, #32
 80005a2:	2230      	movs	r2, #48	; 0x30
 80005a4:	2100      	movs	r1, #0
 80005a6:	4618      	mov	r0, r3
 80005a8:	f007 f956 	bl	8007858 <memset>
  RCC_ClkInitTypeDef RCC_ClkInitStruct = {0};
 80005ac:	f107 030c 	add.w	r3, r7, #12
 80005b0:	2200      	movs	r2, #0
 80005b2:	601a      	str	r2, [r3, #0]
 80005b4:	605a      	str	r2, [r3, #4]
 80005b6:	609a      	str	r2, [r3, #8]
 80005b8:	60da      	str	r2, [r3, #12]
 80005ba:	611a      	str	r2, [r3, #16]

  /** Configure the main internal regulator output voltage
  */
  __HAL_RCC_PWR_CLK_ENABLE();
 80005bc:	2300      	movs	r3, #0
 80005be:	60bb      	str	r3, [r7, #8]
 80005c0:	4b28      	ldr	r3, [pc, #160]	; (8000664 <SystemClock_Config+0xcc>)
 80005c2:	6c1b      	ldr	r3, [r3, #64]	; 0x40
 80005c4:	4a27      	ldr	r2, [pc, #156]	; (8000664 <SystemClock_Config+0xcc>)
 80005c6:	f043 5380 	orr.w	r3, r3, #268435456	; 0x10000000
 80005ca:	6413      	str	r3, [r2, #64]	; 0x40
 80005cc:	4b25      	ldr	r3, [pc, #148]	; (8000664 <SystemClock_Config+0xcc>)
 80005ce:	6c1b      	ldr	r3, [r3, #64]	; 0x40
 80005d0:	f003 5380 	and.w	r3, r3, #268435456	; 0x10000000
 80005d4:	60bb      	str	r3, [r7, #8]
 80005d6:	68bb      	ldr	r3, [r7, #8]
  __HAL_PWR_VOLTAGESCALING_CONFIG(PWR_REGULATOR_VOLTAGE_SCALE1);
 80005d8:	2300      	movs	r3, #0
 80005da:	607b      	str	r3, [r7, #4]
 80005dc:	4b22      	ldr	r3, [pc, #136]	; (8000668 <SystemClock_Config+0xd0>)
 80005de:	681b      	ldr	r3, [r3, #0]
 80005e0:	4a21      	ldr	r2, [pc, #132]	; (8000668 <SystemClock_Config+0xd0>)
 80005e2:	f443 4380 	orr.w	r3, r3, #16384	; 0x4000
 80005e6:	6013      	str	r3, [r2, #0]
 80005e8:	4b1f      	ldr	r3, [pc, #124]	; (8000668 <SystemClock_Config+0xd0>)
 80005ea:	681b      	ldr	r3, [r3, #0]
 80005ec:	f403 4380 	and.w	r3, r3, #16384	; 0x4000
 80005f0:	607b      	str	r3, [r7, #4]
 80005f2:	687b      	ldr	r3, [r7, #4]

  /** Initializes the RCC Oscillators according to the specified parameters
  * in the RCC_OscInitTypeDef structure.
  */
  RCC_OscInitStruct.OscillatorType = RCC_OSCILLATORTYPE_HSE;
 80005f4:	2301      	movs	r3, #1
 80005f6:	623b      	str	r3, [r7, #32]
  RCC_OscInitStruct.HSEState = RCC_HSE_ON;
 80005f8:	f44f 3380 	mov.w	r3, #65536	; 0x10000
 80005fc:	627b      	str	r3, [r7, #36]	; 0x24
  RCC_OscInitStruct.PLL.PLLState = RCC_PLL_ON;
 80005fe:	2302      	movs	r3, #2
 8000600:	63bb      	str	r3, [r7, #56]	; 0x38
  RCC_OscInitStruct.PLL.PLLSource = RCC_PLLSOURCE_HSE;
 8000602:	f44f 0380 	mov.w	r3, #4194304	; 0x400000
 8000606:	63fb      	str	r3, [r7, #60]	; 0x3c
  RCC_OscInitStruct.PLL.PLLM = 8;
 8000608:	2308      	movs	r3, #8
 800060a:	643b      	str	r3, [r7, #64]	; 0x40
  RCC_OscInitStruct.PLL.PLLN = 336;
 800060c:	f44f 73a8 	mov.w	r3, #336	; 0x150
 8000610:	647b      	str	r3, [r7, #68]	; 0x44
  RCC_OscInitStruct.PLL.PLLP = RCC_PLLP_DIV2;
 8000612:	2302      	movs	r3, #2
 8000614:	64bb      	str	r3, [r7, #72]	; 0x48
  RCC_OscInitStruct.PLL.PLLQ = 7;
 8000616:	2307      	movs	r3, #7
 8000618:	64fb      	str	r3, [r7, #76]	; 0x4c
  if (HAL_RCC_OscConfig(&RCC_OscInitStruct) != HAL_OK)
 800061a:	f107 0320 	add.w	r3, r7, #32
 800061e:	4618      	mov	r0, r3
 8000620:	f002 f834 	bl	800268c <HAL_RCC_OscConfig>
 8000624:	4603      	mov	r3, r0
 8000626:	2b00      	cmp	r3, #0
 8000628:	d001      	beq.n	800062e <SystemClock_Config+0x96>
  {
    Error_Handler();
 800062a:	f000 f945 	bl	80008b8 <Error_Handler>
  }

  /** Initializes the CPU, AHB and APB buses clocks
  */
  RCC_ClkInitStruct.ClockType = RCC_CLOCKTYPE_HCLK|RCC_CLOCKTYPE_SYSCLK
 800062e:	230f      	movs	r3, #15
 8000630:	60fb      	str	r3, [r7, #12]
                              |RCC_CLOCKTYPE_PCLK1|RCC_CLOCKTYPE_PCLK2;
  RCC_ClkInitStruct.SYSCLKSource = RCC_SYSCLKSOURCE_PLLCLK;
 8000632:	2302      	movs	r3, #2
 8000634:	613b      	str	r3, [r7, #16]
  RCC_ClkInitStruct.AHBCLKDivider = RCC_SYSCLK_DIV1;
 8000636:	2300      	movs	r3, #0
 8000638:	617b      	str	r3, [r7, #20]
  RCC_ClkInitStruct.APB1CLKDivider = RCC_HCLK_DIV4;
 800063a:	f44f 53a0 	mov.w	r3, #5120	; 0x1400
 800063e:	61bb      	str	r3, [r7, #24]
  RCC_ClkInitStruct.APB2CLKDivider = RCC_HCLK_DIV2;
 8000640:	f44f 5380 	mov.w	r3, #4096	; 0x1000
 8000644:	61fb      	str	r3, [r7, #28]

  if (HAL_RCC_ClockConfig(&RCC_ClkInitStruct, FLASH_LATENCY_5) != HAL_OK)
 8000646:	f107 030c 	add.w	r3, r7, #12
 800064a:	2105      	movs	r1, #5
 800064c:	4618      	mov	r0, r3
 800064e:	f002 fa95 	bl	8002b7c <HAL_RCC_ClockConfig>
 8000652:	4603      	mov	r3, r0
 8000654:	2b00      	cmp	r3, #0
 8000656:	d001      	beq.n	800065c <SystemClock_Config+0xc4>
  {
    Error_Handler();
 8000658:	f000 f92e 	bl	80008b8 <Error_Handler>
  }
}
 800065c:	bf00      	nop
 800065e:	3750      	adds	r7, #80	; 0x50
 8000660:	46bd      	mov	sp, r7
 8000662:	bd80      	pop	{r7, pc}
 8000664:	40023800 	.word	0x40023800
 8000668:	40007000 	.word	0x40007000

0800066c <MX_TIM6_Init>:
  * @brief TIM6 Initialization Function
  * @param None
  * @retval None
  */
static void MX_TIM6_Init(void)
{
 800066c:	b580      	push	{r7, lr}
 800066e:	b082      	sub	sp, #8
 8000670:	af00      	add	r7, sp, #0

  /* USER CODE BEGIN TIM6_Init 0 */

  /* USER CODE END TIM6_Init 0 */

  TIM_MasterConfigTypeDef sMasterConfig = {0};
 8000672:	463b      	mov	r3, r7
 8000674:	2200      	movs	r2, #0
 8000676:	601a      	str	r2, [r3, #0]
 8000678:	605a      	str	r2, [r3, #4]

  /* USER CODE BEGIN TIM6_Init 1 */

  /* USER CODE END TIM6_Init 1 */
  htim6.Instance = TIM6;
 800067a:	4b15      	ldr	r3, [pc, #84]	; (80006d0 <MX_TIM6_Init+0x64>)
 800067c:	4a15      	ldr	r2, [pc, #84]	; (80006d4 <MX_TIM6_Init+0x68>)
 800067e:	601a      	str	r2, [r3, #0]
  htim6.Init.Prescaler = 0;
 8000680:	4b13      	ldr	r3, [pc, #76]	; (80006d0 <MX_TIM6_Init+0x64>)
 8000682:	2200      	movs	r2, #0
 8000684:	605a      	str	r2, [r3, #4]
  htim6.Init.CounterMode = TIM_COUNTERMODE_UP;
 8000686:	4b12      	ldr	r3, [pc, #72]	; (80006d0 <MX_TIM6_Init+0x64>)
 8000688:	2200      	movs	r2, #0
 800068a:	609a      	str	r2, [r3, #8]
  htim6.Init.Period = 65535;
 800068c:	4b10      	ldr	r3, [pc, #64]	; (80006d0 <MX_TIM6_Init+0x64>)
 800068e:	f64f 72ff 	movw	r2, #65535	; 0xffff
 8000692:	60da      	str	r2, [r3, #12]
  htim6.Init.AutoReloadPreload = TIM_AUTORELOAD_PRELOAD_DISABLE;
 8000694:	4b0e      	ldr	r3, [pc, #56]	; (80006d0 <MX_TIM6_Init+0x64>)
 8000696:	2200      	movs	r2, #0
 8000698:	619a      	str	r2, [r3, #24]
  if (HAL_TIM_Base_Init(&htim6) != HAL_OK)
 800069a:	480d      	ldr	r0, [pc, #52]	; (80006d0 <MX_TIM6_Init+0x64>)
 800069c:	f002 fc66 	bl	8002f6c <HAL_TIM_Base_Init>
 80006a0:	4603      	mov	r3, r0
 80006a2:	2b00      	cmp	r3, #0
 80006a4:	d001      	beq.n	80006aa <MX_TIM6_Init+0x3e>
  {
    Error_Handler();
 80006a6:	f000 f907 	bl	80008b8 <Error_Handler>
  }
  sMasterConfig.MasterOutputTrigger = TIM_TRGO_RESET;
 80006aa:	2300      	movs	r3, #0
 80006ac:	603b      	str	r3, [r7, #0]
  sMasterConfig.MasterSlaveMode = TIM_MASTERSLAVEMODE_DISABLE;
 80006ae:	2300      	movs	r3, #0
 80006b0:	607b      	str	r3, [r7, #4]
  if (HAL_TIMEx_MasterConfigSynchronization(&htim6, &sMasterConfig) != HAL_OK)
 80006b2:	463b      	mov	r3, r7
 80006b4:	4619      	mov	r1, r3
 80006b6:	4806      	ldr	r0, [pc, #24]	; (80006d0 <MX_TIM6_Init+0x64>)
 80006b8:	f002 feea 	bl	8003490 <HAL_TIMEx_MasterConfigSynchronization>
 80006bc:	4603      	mov	r3, r0
 80006be:	2b00      	cmp	r3, #0
 80006c0:	d001      	beq.n	80006c6 <MX_TIM6_Init+0x5a>
  {
    Error_Handler();
 80006c2:	f000 f8f9 	bl	80008b8 <Error_Handler>
  }
  /* USER CODE BEGIN TIM6_Init 2 */

  /* USER CODE END TIM6_Init 2 */

}
 80006c6:	bf00      	nop
 80006c8:	3708      	adds	r7, #8
 80006ca:	46bd      	mov	sp, r7
 80006cc:	bd80      	pop	{r7, pc}
 80006ce:	bf00      	nop
 80006d0:	20000160 	.word	0x20000160
 80006d4:	40001000 	.word	0x40001000

080006d8 <MX_GPIO_Init>:
  * @brief GPIO Initialization Function
  * @param None
  * @retval None
  */
static void MX_GPIO_Init(void)
{
 80006d8:	b580      	push	{r7, lr}
 80006da:	b08a      	sub	sp, #40	; 0x28
 80006dc:	af00      	add	r7, sp, #0
  GPIO_InitTypeDef GPIO_InitStruct = {0};
 80006de:	f107 0314 	add.w	r3, r7, #20
 80006e2:	2200      	movs	r2, #0
 80006e4:	601a      	str	r2, [r3, #0]
 80006e6:	605a      	str	r2, [r3, #4]
 80006e8:	609a      	str	r2, [r3, #8]
 80006ea:	60da      	str	r2, [r3, #12]
 80006ec:	611a      	str	r2, [r3, #16]

  /* GPIO Ports Clock Enable */
  __HAL_RCC_GPIOC_CLK_ENABLE();
 80006ee:	2300      	movs	r3, #0
 80006f0:	613b      	str	r3, [r7, #16]
 80006f2:	4b36      	ldr	r3, [pc, #216]	; (80007cc <MX_GPIO_Init+0xf4>)
 80006f4:	6b1b      	ldr	r3, [r3, #48]	; 0x30
 80006f6:	4a35      	ldr	r2, [pc, #212]	; (80007cc <MX_GPIO_Init+0xf4>)
 80006f8:	f043 0304 	orr.w	r3, r3, #4
 80006fc:	6313      	str	r3, [r2, #48]	; 0x30
 80006fe:	4b33      	ldr	r3, [pc, #204]	; (80007cc <MX_GPIO_Init+0xf4>)
 8000700:	6b1b      	ldr	r3, [r3, #48]	; 0x30
 8000702:	f003 0304 	and.w	r3, r3, #4
 8000706:	613b      	str	r3, [r7, #16]
 8000708:	693b      	ldr	r3, [r7, #16]
  __HAL_RCC_GPIOH_CLK_ENABLE();
 800070a:	2300      	movs	r3, #0
 800070c:	60fb      	str	r3, [r7, #12]
 800070e:	4b2f      	ldr	r3, [pc, #188]	; (80007cc <MX_GPIO_Init+0xf4>)
 8000710:	6b1b      	ldr	r3, [r3, #48]	; 0x30
 8000712:	4a2e      	ldr	r2, [pc, #184]	; (80007cc <MX_GPIO_Init+0xf4>)
 8000714:	f043 0380 	orr.w	r3, r3, #128	; 0x80
 8000718:	6313      	str	r3, [r2, #48]	; 0x30
 800071a:	4b2c      	ldr	r3, [pc, #176]	; (80007cc <MX_GPIO_Init+0xf4>)
 800071c:	6b1b      	ldr	r3, [r3, #48]	; 0x30
 800071e:	f003 0380 	and.w	r3, r3, #128	; 0x80
 8000722:	60fb      	str	r3, [r7, #12]
 8000724:	68fb      	ldr	r3, [r7, #12]
  __HAL_RCC_GPIOA_CLK_ENABLE();
 8000726:	2300      	movs	r3, #0
 8000728:	60bb      	str	r3, [r7, #8]
 800072a:	4b28      	ldr	r3, [pc, #160]	; (80007cc <MX_GPIO_Init+0xf4>)
 800072c:	6b1b      	ldr	r3, [r3, #48]	; 0x30
 800072e:	4a27      	ldr	r2, [pc, #156]	; (80007cc <MX_GPIO_Init+0xf4>)
 8000730:	f043 0301 	orr.w	r3, r3, #1
 8000734:	6313      	str	r3, [r2, #48]	; 0x30
 8000736:	4b25      	ldr	r3, [pc, #148]	; (80007cc <MX_GPIO_Init+0xf4>)
 8000738:	6b1b      	ldr	r3, [r3, #48]	; 0x30
 800073a:	f003 0301 	and.w	r3, r3, #1
 800073e:	60bb      	str	r3, [r7, #8]
 8000740:	68bb      	ldr	r3, [r7, #8]
  __HAL_RCC_GPIOD_CLK_ENABLE();
 8000742:	2300      	movs	r3, #0
 8000744:	607b      	str	r3, [r7, #4]
 8000746:	4b21      	ldr	r3, [pc, #132]	; (80007cc <MX_GPIO_Init+0xf4>)
 8000748:	6b1b      	ldr	r3, [r3, #48]	; 0x30
 800074a:	4a20      	ldr	r2, [pc, #128]	; (80007cc <MX_GPIO_Init+0xf4>)
 800074c:	f043 0308 	orr.w	r3, r3, #8
 8000750:	6313      	str	r3, [r2, #48]	; 0x30
 8000752:	4b1e      	ldr	r3, [pc, #120]	; (80007cc <MX_GPIO_Init+0xf4>)
 8000754:	6b1b      	ldr	r3, [r3, #48]	; 0x30
 8000756:	f003 0308 	and.w	r3, r3, #8
 800075a:	607b      	str	r3, [r7, #4]
 800075c:	687b      	ldr	r3, [r7, #4]

  /*Configure GPIO pin Output Level */
  HAL_GPIO_WritePin(red_GPIO_Port, red_Pin, GPIO_PIN_RESET);
 800075e:	2200      	movs	r2, #0
 8000760:	f44f 4180 	mov.w	r1, #16384	; 0x4000
 8000764:	481a      	ldr	r0, [pc, #104]	; (80007d0 <MX_GPIO_Init+0xf8>)
 8000766:	f000 fce1 	bl	800112c <HAL_GPIO_WritePin>

  /*Configure GPIO pins : button_Pin printer_Pin */
  GPIO_InitStruct.Pin = button_Pin|printer_Pin;
 800076a:	2303      	movs	r3, #3
 800076c:	617b      	str	r3, [r7, #20]
  GPIO_InitStruct.Mode = GPIO_MODE_IT_RISING;
 800076e:	f44f 1388 	mov.w	r3, #1114112	; 0x110000
 8000772:	61bb      	str	r3, [r7, #24]
  GPIO_InitStruct.Pull = GPIO_NOPULL;
 8000774:	2300      	movs	r3, #0
 8000776:	61fb      	str	r3, [r7, #28]
  HAL_GPIO_Init(GPIOA, &GPIO_InitStruct);
 8000778:	f107 0314 	add.w	r3, r7, #20
 800077c:	4619      	mov	r1, r3
 800077e:	4815      	ldr	r0, [pc, #84]	; (80007d4 <MX_GPIO_Init+0xfc>)
 8000780:	f000 fb20 	bl	8000dc4 <HAL_GPIO_Init>

  /*Configure GPIO pin : red_Pin */
  GPIO_InitStruct.Pin = red_Pin;
 8000784:	f44f 4380 	mov.w	r3, #16384	; 0x4000
 8000788:	617b      	str	r3, [r7, #20]
  GPIO_InitStruct.Mode = GPIO_MODE_OUTPUT_PP;
 800078a:	2301      	movs	r3, #1
 800078c:	61bb      	str	r3, [r7, #24]
  GPIO_InitStruct.Pull = GPIO_NOPULL;
 800078e:	2300      	movs	r3, #0
 8000790:	61fb      	str	r3, [r7, #28]
  GPIO_InitStruct.Speed = GPIO_SPEED_FREQ_LOW;
 8000792:	2300      	movs	r3, #0
 8000794:	623b      	str	r3, [r7, #32]
  HAL_GPIO_Init(red_GPIO_Port, &GPIO_InitStruct);
 8000796:	f107 0314 	add.w	r3, r7, #20
 800079a:	4619      	mov	r1, r3
 800079c:	480c      	ldr	r0, [pc, #48]	; (80007d0 <MX_GPIO_Init+0xf8>)
 800079e:	f000 fb11 	bl	8000dc4 <HAL_GPIO_Init>

  /* EXTI interrupt init*/
  HAL_NVIC_SetPriority(EXTI0_IRQn, 0, 0);
 80007a2:	2200      	movs	r2, #0
 80007a4:	2100      	movs	r1, #0
 80007a6:	2006      	movs	r0, #6
 80007a8:	f000 fad5 	bl	8000d56 <HAL_NVIC_SetPriority>
  HAL_NVIC_EnableIRQ(EXTI0_IRQn);
 80007ac:	2006      	movs	r0, #6
 80007ae:	f000 faee 	bl	8000d8e <HAL_NVIC_EnableIRQ>

  HAL_NVIC_SetPriority(EXTI1_IRQn, 0, 0);
 80007b2:	2200      	movs	r2, #0
 80007b4:	2100      	movs	r1, #0
 80007b6:	2007      	movs	r0, #7
 80007b8:	f000 facd 	bl	8000d56 <HAL_NVIC_SetPriority>
  HAL_NVIC_EnableIRQ(EXTI1_IRQn);
 80007bc:	2007      	movs	r0, #7
 80007be:	f000 fae6 	bl	8000d8e <HAL_NVIC_EnableIRQ>

}
 80007c2:	bf00      	nop
 80007c4:	3728      	adds	r7, #40	; 0x28
 80007c6:	46bd      	mov	sp, r7
 80007c8:	bd80      	pop	{r7, pc}
 80007ca:	bf00      	nop
 80007cc:	40023800 	.word	0x40023800
 80007d0:	40020c00 	.word	0x40020c00
 80007d4:	40020000 	.word	0x40020000

080007d8 <HAL_GPIO_EXTI_Callback>:

/* USER CODE BEGIN 4 */
void HAL_GPIO_EXTI_Callback(uint16_t GPIO_Pin){
 80007d8:	b580      	push	{r7, lr}
 80007da:	b086      	sub	sp, #24
 80007dc:	af00      	add	r7, sp, #0
 80007de:	4603      	mov	r3, r0
 80007e0:	80fb      	strh	r3, [r7, #6]
  int i = 0;
 80007e2:	2300      	movs	r3, #0
 80007e4:	617b      	str	r3, [r7, #20]
  uint32_t pressTime;
  int pressCounter;
  while (GPIO_Pin == button_Pin) {
 80007e6:	e046      	b.n	8000876 <HAL_GPIO_EXTI_Callback+0x9e>
    if (HAL_GPIO_ReadPin(button_GPIO_Port, button_Pin)) {
 80007e8:	2101      	movs	r1, #1
 80007ea:	482f      	ldr	r0, [pc, #188]	; (80008a8 <HAL_GPIO_EXTI_Callback+0xd0>)
 80007ec:	f000 fc86 	bl	80010fc <HAL_GPIO_ReadPin>
 80007f0:	4603      	mov	r3, r0
 80007f2:	2b00      	cmp	r3, #0
 80007f4:	d00b      	beq.n	800080e <HAL_GPIO_EXTI_Callback+0x36>
      (TIM6->CNT) = 0;
 80007f6:	4b2d      	ldr	r3, [pc, #180]	; (80008ac <HAL_GPIO_EXTI_Callback+0xd4>)
 80007f8:	2200      	movs	r2, #0
 80007fa:	625a      	str	r2, [r3, #36]	; 0x24
      pressCounter = 0;
 80007fc:	2300      	movs	r3, #0
 80007fe:	613b      	str	r3, [r7, #16]
      HAL_GPIO_WritePin(red_GPIO_Port, red_Pin, 1);
 8000800:	2201      	movs	r2, #1
 8000802:	f44f 4180 	mov.w	r1, #16384	; 0x4000
 8000806:	482a      	ldr	r0, [pc, #168]	; (80008b0 <HAL_GPIO_EXTI_Callback+0xd8>)
 8000808:	f000 fc90 	bl	800112c <HAL_GPIO_WritePin>
 800080c:	e033      	b.n	8000876 <HAL_GPIO_EXTI_Callback+0x9e>
    } else {
      pressTime = (TIM6->CNT);
 800080e:	4b27      	ldr	r3, [pc, #156]	; (80008ac <HAL_GPIO_EXTI_Callback+0xd4>)
 8000810:	6a5b      	ldr	r3, [r3, #36]	; 0x24
 8000812:	60fb      	str	r3, [r7, #12]
      HAL_GPIO_WritePin(red_GPIO_Port, red_Pin, 0);
 8000814:	2200      	movs	r2, #0
 8000816:	f44f 4180 	mov.w	r1, #16384	; 0x4000
 800081a:	4825      	ldr	r0, [pc, #148]	; (80008b0 <HAL_GPIO_EXTI_Callback+0xd8>)
 800081c:	f000 fc86 	bl	800112c <HAL_GPIO_WritePin>
      (TIM6->CNT) = 0;
 8000820:	4b22      	ldr	r3, [pc, #136]	; (80008ac <HAL_GPIO_EXTI_Callback+0xd4>)
 8000822:	2200      	movs	r2, #0
 8000824:	625a      	str	r2, [r3, #36]	; 0x24
      while (pressTime > 60 && pressTime < 400) {
 8000826:	e007      	b.n	8000838 <HAL_GPIO_EXTI_Callback+0x60>
        iteretor[i] = dot;
 8000828:	4a22      	ldr	r2, [pc, #136]	; (80008b4 <HAL_GPIO_EXTI_Callback+0xdc>)
 800082a:	697b      	ldr	r3, [r7, #20]
 800082c:	4413      	add	r3, r2
 800082e:	222e      	movs	r2, #46	; 0x2e
 8000830:	701a      	strb	r2, [r3, #0]
        i++;
 8000832:	697b      	ldr	r3, [r7, #20]
 8000834:	3301      	adds	r3, #1
 8000836:	617b      	str	r3, [r7, #20]
      while (pressTime > 60 && pressTime < 400) {
 8000838:	68fb      	ldr	r3, [r7, #12]
 800083a:	2b3c      	cmp	r3, #60	; 0x3c
 800083c:	d90c      	bls.n	8000858 <HAL_GPIO_EXTI_Callback+0x80>
 800083e:	68fb      	ldr	r3, [r7, #12]
 8000840:	f5b3 7fc8 	cmp.w	r3, #400	; 0x190
 8000844:	d3f0      	bcc.n	8000828 <HAL_GPIO_EXTI_Callback+0x50>
      }
      while (pressTime > 399) {
 8000846:	e007      	b.n	8000858 <HAL_GPIO_EXTI_Callback+0x80>
        iteretor[i] = dash;
 8000848:	4a1a      	ldr	r2, [pc, #104]	; (80008b4 <HAL_GPIO_EXTI_Callback+0xdc>)
 800084a:	697b      	ldr	r3, [r7, #20]
 800084c:	4413      	add	r3, r2
 800084e:	222d      	movs	r2, #45	; 0x2d
 8000850:	701a      	strb	r2, [r3, #0]
        i++;
 8000852:	697b      	ldr	r3, [r7, #20]
 8000854:	3301      	adds	r3, #1
 8000856:	617b      	str	r3, [r7, #20]
      while (pressTime > 399) {
 8000858:	68fb      	ldr	r3, [r7, #12]
 800085a:	f5b3 7fc8 	cmp.w	r3, #400	; 0x190
 800085e:	d2f3      	bcs.n	8000848 <HAL_GPIO_EXTI_Callback+0x70>
      }
      while (i == 4 || pressCounter) {
 8000860:	e003      	b.n	800086a <HAL_GPIO_EXTI_Callback+0x92>
        name();
 8000862:	f7ff fe45 	bl	80004f0 <name>
        i = 0;
 8000866:	2300      	movs	r3, #0
 8000868:	617b      	str	r3, [r7, #20]
      while (i == 4 || pressCounter) {
 800086a:	697b      	ldr	r3, [r7, #20]
 800086c:	2b04      	cmp	r3, #4
 800086e:	d0f8      	beq.n	8000862 <HAL_GPIO_EXTI_Callback+0x8a>
 8000870:	693b      	ldr	r3, [r7, #16]
 8000872:	2b00      	cmp	r3, #0
 8000874:	d1f5      	bne.n	8000862 <HAL_GPIO_EXTI_Callback+0x8a>
  while (GPIO_Pin == button_Pin) {
 8000876:	88fb      	ldrh	r3, [r7, #6]
 8000878:	2b01      	cmp	r3, #1
 800087a:	d0b5      	beq.n	80007e8 <HAL_GPIO_EXTI_Callback+0x10>
      }
    }
  }
  while (GPIO_Pin == printer_Pin) {
 800087c:	e00c      	b.n	8000898 <HAL_GPIO_EXTI_Callback+0xc0>
    pressCounter = 1;
 800087e:	2301      	movs	r3, #1
 8000880:	613b      	str	r3, [r7, #16]
    while (i == 4 || pressCounter) {
 8000882:	e003      	b.n	800088c <HAL_GPIO_EXTI_Callback+0xb4>
      name();
 8000884:	f7ff fe34 	bl	80004f0 <name>
      i = 0;
 8000888:	2300      	movs	r3, #0
 800088a:	617b      	str	r3, [r7, #20]
    while (i == 4 || pressCounter) {
 800088c:	697b      	ldr	r3, [r7, #20]
 800088e:	2b04      	cmp	r3, #4
 8000890:	d0f8      	beq.n	8000884 <HAL_GPIO_EXTI_Callback+0xac>
 8000892:	693b      	ldr	r3, [r7, #16]
 8000894:	2b00      	cmp	r3, #0
 8000896:	d1f5      	bne.n	8000884 <HAL_GPIO_EXTI_Callback+0xac>
  while (GPIO_Pin == printer_Pin) {
 8000898:	88fb      	ldrh	r3, [r7, #6]
 800089a:	2b02      	cmp	r3, #2
 800089c:	d0ef      	beq.n	800087e <HAL_GPIO_EXTI_Callback+0xa6>
    }
  }
}
 800089e:	bf00      	nop
 80008a0:	bf00      	nop
 80008a2:	3718      	adds	r7, #24
 80008a4:	46bd      	mov	sp, r7
 80008a6:	bd80      	pop	{r7, pc}
 80008a8:	40020000 	.word	0x40020000
 80008ac:	40001000 	.word	0x40001000
 80008b0:	40020c00 	.word	0x40020c00
 80008b4:	200001a8 	.word	0x200001a8

080008b8 <Error_Handler>:
/**
  * @brief  This function is executed in case of error occurrence.
  * @retval None
  */
void Error_Handler(void)
{
 80008b8:	b480      	push	{r7}
 80008ba:	af00      	add	r7, sp, #0
  \details Disables IRQ interrupts by setting the I-bit in the CPSR.
           Can only be executed in Privileged modes.
 */
__STATIC_FORCEINLINE void __disable_irq(void)
{
  __ASM volatile ("cpsid i" : : : "memory");
 80008bc:	b672      	cpsid	i
}
 80008be:	bf00      	nop
  /* USER CODE BEGIN Error_Handler_Debug */
  /* User can add his own implementation to report the HAL error return state */
  __disable_irq();
  while (1)
 80008c0:	e7fe      	b.n	80008c0 <Error_Handler+0x8>
	...

080008c4 <HAL_MspInit>:
 80008c4:	b580      	push	{r7, lr}
 80008c6:	b082      	sub	sp, #8
 80008c8:	af00      	add	r7, sp, #0
 80008ca:	2300      	movs	r3, #0
 80008cc:	607b      	str	r3, [r7, #4]
 80008ce:	4b10      	ldr	r3, [pc, #64]	; (8000910 <HAL_MspInit+0x4c>)
 80008d0:	6c5b      	ldr	r3, [r3, #68]	; 0x44
 80008d2:	4a0f      	ldr	r2, [pc, #60]	; (8000910 <HAL_MspInit+0x4c>)
 80008d4:	f443 4380 	orr.w	r3, r3, #16384	; 0x4000
 80008d8:	6453      	str	r3, [r2, #68]	; 0x44
 80008da:	4b0d      	ldr	r3, [pc, #52]	; (8000910 <HAL_MspInit+0x4c>)
 80008dc:	6c5b      	ldr	r3, [r3, #68]	; 0x44
 80008de:	f403 4380 	and.w	r3, r3, #16384	; 0x4000
 80008e2:	607b      	str	r3, [r7, #4]
 80008e4:	687b      	ldr	r3, [r7, #4]
 80008e6:	2300      	movs	r3, #0
 80008e8:	603b      	str	r3, [r7, #0]
 80008ea:	4b09      	ldr	r3, [pc, #36]	; (8000910 <HAL_MspInit+0x4c>)
 80008ec:	6c1b      	ldr	r3, [r3, #64]	; 0x40
 80008ee:	4a08      	ldr	r2, [pc, #32]	; (8000910 <HAL_MspInit+0x4c>)
 80008f0:	f043 5380 	orr.w	r3, r3, #268435456	; 0x10000000
 80008f4:	6413      	str	r3, [r2, #64]	; 0x40
 80008f6:	4b06      	ldr	r3, [pc, #24]	; (8000910 <HAL_MspInit+0x4c>)
 80008f8:	6c1b      	ldr	r3, [r3, #64]	; 0x40
 80008fa:	f003 5380 	and.w	r3, r3, #268435456	; 0x10000000
 80008fe:	603b      	str	r3, [r7, #0]
 8000900:	683b      	ldr	r3, [r7, #0]
 8000902:	2007      	movs	r0, #7
 8000904:	f000 fa1c 	bl	8000d40 <HAL_NVIC_SetPriorityGrouping>
 8000908:	bf00      	nop
 800090a:	3708      	adds	r7, #8
 800090c:	46bd      	mov	sp, r7
 800090e:	bd80      	pop	{r7, pc}
 8000910:	40023800 	.word	0x40023800

08000914 <HAL_TIM_Base_MspInit>:
 8000914:	b580      	push	{r7, lr}
 8000916:	b084      	sub	sp, #16
 8000918:	af00      	add	r7, sp, #0
 800091a:	6078      	str	r0, [r7, #4]
 800091c:	687b      	ldr	r3, [r7, #4]
 800091e:	681b      	ldr	r3, [r3, #0]
 8000920:	4a0e      	ldr	r2, [pc, #56]	; (800095c <HAL_TIM_Base_MspInit+0x48>)
 8000922:	4293      	cmp	r3, r2
 8000924:	d115      	bne.n	8000952 <HAL_TIM_Base_MspInit+0x3e>
 8000926:	2300      	movs	r3, #0
 8000928:	60fb      	str	r3, [r7, #12]
 800092a:	4b0d      	ldr	r3, [pc, #52]	; (8000960 <HAL_TIM_Base_MspInit+0x4c>)
 800092c:	6c1b      	ldr	r3, [r3, #64]	; 0x40
 800092e:	4a0c      	ldr	r2, [pc, #48]	; (8000960 <HAL_TIM_Base_MspInit+0x4c>)
 8000930:	f043 0310 	orr.w	r3, r3, #16
 8000934:	6413      	str	r3, [r2, #64]	; 0x40
 8000936:	4b0a      	ldr	r3, [pc, #40]	; (8000960 <HAL_TIM_Base_MspInit+0x4c>)
 8000938:	6c1b      	ldr	r3, [r3, #64]	; 0x40
 800093a:	f003 0310 	and.w	r3, r3, #16
 800093e:	60fb      	str	r3, [r7, #12]
 8000940:	68fb      	ldr	r3, [r7, #12]
 8000942:	2200      	movs	r2, #0
 8000944:	2100      	movs	r1, #0
 8000946:	2036      	movs	r0, #54	; 0x36
 8000948:	f000 fa05 	bl	8000d56 <HAL_NVIC_SetPriority>
 800094c:	2036      	movs	r0, #54	; 0x36
 800094e:	f000 fa1e 	bl	8000d8e <HAL_NVIC_EnableIRQ>
 8000952:	bf00      	nop
 8000954:	3710      	adds	r7, #16
 8000956:	46bd      	mov	sp, r7
 8000958:	bd80      	pop	{r7, pc}
 800095a:	bf00      	nop
 800095c:	40001000 	.word	0x40001000
 8000960:	40023800 	.word	0x40023800

08000964 <NMI_Handler>:
 8000964:	b480      	push	{r7}
 8000966:	af00      	add	r7, sp, #0
 8000968:	e7fe      	b.n	8000968 <NMI_Handler+0x4>

0800096a <HardFault_Handler>:
 800096a:	b480      	push	{r7}
 800096c:	af00      	add	r7, sp, #0
 800096e:	e7fe      	b.n	800096e <HardFault_Handler+0x4>

08000970 <MemManage_Handler>:
 8000970:	b480      	push	{r7}
 8000972:	af00      	add	r7, sp, #0
 8000974:	e7fe      	b.n	8000974 <MemManage_Handler+0x4>

08000976 <BusFault_Handler>:
 8000976:	b480      	push	{r7}
 8000978:	af00      	add	r7, sp, #0
 800097a:	e7fe      	b.n	800097a <BusFault_Handler+0x4>

0800097c <UsageFault_Handler>:
 800097c:	b480      	push	{r7}
 800097e:	af00      	add	r7, sp, #0
 8000980:	e7fe      	b.n	8000980 <UsageFault_Handler+0x4>

08000982 <SVC_Handler>:
 8000982:	b480      	push	{r7}
 8000984:	af00      	add	r7, sp, #0
 8000986:	bf00      	nop
 8000988:	46bd      	mov	sp, r7
 800098a:	f85d 7b04 	ldr.w	r7, [sp], #4
 800098e:	4770      	bx	lr

08000990 <DebugMon_Handler>:
 8000990:	b480      	push	{r7}
 8000992:	af00      	add	r7, sp, #0
 8000994:	bf00      	nop
 8000996:	46bd      	mov	sp, r7
 8000998:	f85d 7b04 	ldr.w	r7, [sp], #4
 800099c:	4770      	bx	lr

0800099e <PendSV_Handler>:
 800099e:	b480      	push	{r7}
 80009a0:	af00      	add	r7, sp, #0
 80009a2:	bf00      	nop
 80009a4:	46bd      	mov	sp, r7
 80009a6:	f85d 7b04 	ldr.w	r7, [sp], #4
 80009aa:	4770      	bx	lr

080009ac <SysTick_Handler>:
 80009ac:	b580      	push	{r7, lr}
 80009ae:	af00      	add	r7, sp, #0
 80009b0:	f000 f8b2 	bl	8000b18 <HAL_IncTick>
 80009b4:	bf00      	nop
 80009b6:	bd80      	pop	{r7, pc}

080009b8 <EXTI0_IRQHandler>:
 80009b8:	b580      	push	{r7, lr}
 80009ba:	af00      	add	r7, sp, #0
 80009bc:	2001      	movs	r0, #1
 80009be:	f000 fbcf 	bl	8001160 <HAL_GPIO_EXTI_IRQHandler>
 80009c2:	bf00      	nop
 80009c4:	bd80      	pop	{r7, pc}

080009c6 <EXTI1_IRQHandler>:
 80009c6:	b580      	push	{r7, lr}
 80009c8:	af00      	add	r7, sp, #0
 80009ca:	2002      	movs	r0, #2
 80009cc:	f000 fbc8 	bl	8001160 <HAL_GPIO_EXTI_IRQHandler>
 80009d0:	bf00      	nop
 80009d2:	bd80      	pop	{r7, pc}

080009d4 <TIM6_DAC_IRQHandler>:
 80009d4:	b580      	push	{r7, lr}
 80009d6:	af00      	add	r7, sp, #0
 80009d8:	4802      	ldr	r0, [pc, #8]	; (80009e4 <TIM6_DAC_IRQHandler+0x10>)
 80009da:	f002 fb7f 	bl	80030dc <HAL_TIM_IRQHandler>
 80009de:	bf00      	nop
 80009e0:	bd80      	pop	{r7, pc}
 80009e2:	bf00      	nop
 80009e4:	20000160 	.word	0x20000160

080009e8 <OTG_FS_IRQHandler>:
 80009e8:	b580      	push	{r7, lr}
 80009ea:	af00      	add	r7, sp, #0
 80009ec:	4802      	ldr	r0, [pc, #8]	; (80009f8 <OTG_FS_IRQHandler+0x10>)
 80009ee:	f000 fd1f 	bl	8001430 <HAL_PCD_IRQHandler>
 80009f2:	bf00      	nop
 80009f4:	bd80      	pop	{r7, pc}
 80009f6:	bf00      	nop
 80009f8:	20001694 	.word	0x20001694

080009fc <SystemInit>:
 80009fc:	b480      	push	{r7}
 80009fe:	af00      	add	r7, sp, #0
 8000a00:	4b06      	ldr	r3, [pc, #24]	; (8000a1c <SystemInit+0x20>)
 8000a02:	f8d3 3088 	ldr.w	r3, [r3, #136]	; 0x88
 8000a06:	4a05      	ldr	r2, [pc, #20]	; (8000a1c <SystemInit+0x20>)
 8000a08:	f443 0370 	orr.w	r3, r3, #15728640	; 0xf00000
 8000a0c:	f8c2 3088 	str.w	r3, [r2, #136]	; 0x88
 8000a10:	bf00      	nop
 8000a12:	46bd      	mov	sp, r7
 8000a14:	f85d 7b04 	ldr.w	r7, [sp], #4
 8000a18:	4770      	bx	lr
 8000a1a:	bf00      	nop
 8000a1c:	e000ed00 	.word	0xe000ed00

08000a20 <Reset_Handler>:
 8000a20:	f8df d034 	ldr.w	sp, [pc, #52]	; 8000a58 <LoopFillZerobss+0x12>
 8000a24:	480d      	ldr	r0, [pc, #52]	; (8000a5c <LoopFillZerobss+0x16>)
 8000a26:	490e      	ldr	r1, [pc, #56]	; (8000a60 <LoopFillZerobss+0x1a>)
 8000a28:	4a0e      	ldr	r2, [pc, #56]	; (8000a64 <LoopFillZerobss+0x1e>)
 8000a2a:	2300      	movs	r3, #0
 8000a2c:	e002      	b.n	8000a34 <LoopCopyDataInit>

08000a2e <CopyDataInit>:
 8000a2e:	58d4      	ldr	r4, [r2, r3]
 8000a30:	50c4      	str	r4, [r0, r3]
 8000a32:	3304      	adds	r3, #4

08000a34 <LoopCopyDataInit>:
 8000a34:	18c4      	adds	r4, r0, r3
 8000a36:	428c      	cmp	r4, r1
 8000a38:	d3f9      	bcc.n	8000a2e <CopyDataInit>
 8000a3a:	4a0b      	ldr	r2, [pc, #44]	; (8000a68 <LoopFillZerobss+0x22>)
 8000a3c:	4c0b      	ldr	r4, [pc, #44]	; (8000a6c <LoopFillZerobss+0x26>)
 8000a3e:	2300      	movs	r3, #0
 8000a40:	e001      	b.n	8000a46 <LoopFillZerobss>

08000a42 <FillZerobss>:
 8000a42:	6013      	str	r3, [r2, #0]
 8000a44:	3204      	adds	r2, #4

08000a46 <LoopFillZerobss>:
 8000a46:	42a2      	cmp	r2, r4
 8000a48:	d3fb      	bcc.n	8000a42 <FillZerobss>
 8000a4a:	f7ff ffd7 	bl	80009fc <SystemInit>
 8000a4e:	f006 fedf 	bl	8007810 <__libc_init_array>
 8000a52:	f7ff fd8f 	bl	8000574 <main>
 8000a56:	4770      	bx	lr
 8000a58:	20020000 	.word	0x20020000
 8000a5c:	20000000 	.word	0x20000000
 8000a60:	20000144 	.word	0x20000144
 8000a64:	08007938 	.word	0x08007938
 8000a68:	20000144 	.word	0x20000144
 8000a6c:	20001dc0 	.word	0x20001dc0

08000a70 <ADC_IRQHandler>:
 8000a70:	e7fe      	b.n	8000a70 <ADC_IRQHandler>
	...

08000a74 <HAL_Init>:
 8000a74:	b580      	push	{r7, lr}
 8000a76:	af00      	add	r7, sp, #0
 8000a78:	4b0e      	ldr	r3, [pc, #56]	; (8000ab4 <HAL_Init+0x40>)
 8000a7a:	681b      	ldr	r3, [r3, #0]
 8000a7c:	4a0d      	ldr	r2, [pc, #52]	; (8000ab4 <HAL_Init+0x40>)
 8000a7e:	f443 7300 	orr.w	r3, r3, #512	; 0x200
 8000a82:	6013      	str	r3, [r2, #0]
 8000a84:	4b0b      	ldr	r3, [pc, #44]	; (8000ab4 <HAL_Init+0x40>)
 8000a86:	681b      	ldr	r3, [r3, #0]
 8000a88:	4a0a      	ldr	r2, [pc, #40]	; (8000ab4 <HAL_Init+0x40>)
 8000a8a:	f443 6380 	orr.w	r3, r3, #1024	; 0x400
 8000a8e:	6013      	str	r3, [r2, #0]
 8000a90:	4b08      	ldr	r3, [pc, #32]	; (8000ab4 <HAL_Init+0x40>)
 8000a92:	681b      	ldr	r3, [r3, #0]
 8000a94:	4a07      	ldr	r2, [pc, #28]	; (8000ab4 <HAL_Init+0x40>)
 8000a96:	f443 7380 	orr.w	r3, r3, #256	; 0x100
 8000a9a:	6013      	str	r3, [r2, #0]
 8000a9c:	2003      	movs	r0, #3
 8000a9e:	f000 f94f 	bl	8000d40 <HAL_NVIC_SetPriorityGrouping>
 8000aa2:	2000      	movs	r0, #0
 8000aa4:	f000 f808 	bl	8000ab8 <HAL_InitTick>
 8000aa8:	f7ff ff0c 	bl	80008c4 <HAL_MspInit>
 8000aac:	2300      	movs	r3, #0
 8000aae:	4618      	mov	r0, r3
 8000ab0:	bd80      	pop	{r7, pc}
 8000ab2:	bf00      	nop
 8000ab4:	40023c00 	.word	0x40023c00

08000ab8 <HAL_InitTick>:
 8000ab8:	b580      	push	{r7, lr}
 8000aba:	b082      	sub	sp, #8
 8000abc:	af00      	add	r7, sp, #0
 8000abe:	6078      	str	r0, [r7, #4]
 8000ac0:	4b12      	ldr	r3, [pc, #72]	; (8000b0c <HAL_InitTick+0x54>)
 8000ac2:	681a      	ldr	r2, [r3, #0]
 8000ac4:	4b12      	ldr	r3, [pc, #72]	; (8000b10 <HAL_InitTick+0x58>)
 8000ac6:	781b      	ldrb	r3, [r3, #0]
 8000ac8:	4619      	mov	r1, r3
 8000aca:	f44f 737a 	mov.w	r3, #1000	; 0x3e8
 8000ace:	fbb3 f3f1 	udiv	r3, r3, r1
 8000ad2:	fbb2 f3f3 	udiv	r3, r2, r3
 8000ad6:	4618      	mov	r0, r3
 8000ad8:	f000 f967 	bl	8000daa <HAL_SYSTICK_Config>
 8000adc:	4603      	mov	r3, r0
 8000ade:	2b00      	cmp	r3, #0
 8000ae0:	d001      	beq.n	8000ae6 <HAL_InitTick+0x2e>
 8000ae2:	2301      	movs	r3, #1
 8000ae4:	e00e      	b.n	8000b04 <HAL_InitTick+0x4c>
 8000ae6:	687b      	ldr	r3, [r7, #4]
 8000ae8:	2b0f      	cmp	r3, #15
 8000aea:	d80a      	bhi.n	8000b02 <HAL_InitTick+0x4a>
 8000aec:	2200      	movs	r2, #0
 8000aee:	6879      	ldr	r1, [r7, #4]
 8000af0:	f04f 30ff 	mov.w	r0, #4294967295
 8000af4:	f000 f92f 	bl	8000d56 <HAL_NVIC_SetPriority>
 8000af8:	4a06      	ldr	r2, [pc, #24]	; (8000b14 <HAL_InitTick+0x5c>)
 8000afa:	687b      	ldr	r3, [r7, #4]
 8000afc:	6013      	str	r3, [r2, #0]
 8000afe:	2300      	movs	r3, #0
 8000b00:	e000      	b.n	8000b04 <HAL_InitTick+0x4c>
 8000b02:	2301      	movs	r3, #1
 8000b04:	4618      	mov	r0, r3
 8000b06:	3708      	adds	r7, #8
 8000b08:	46bd      	mov	sp, r7
 8000b0a:	bd80      	pop	{r7, pc}
 8000b0c:	20000048 	.word	0x20000048
 8000b10:	20000050 	.word	0x20000050
 8000b14:	2000004c 	.word	0x2000004c

08000b18 <HAL_IncTick>:
 8000b18:	b480      	push	{r7}
 8000b1a:	af00      	add	r7, sp, #0
 8000b1c:	4b06      	ldr	r3, [pc, #24]	; (8000b38 <HAL_IncTick+0x20>)
 8000b1e:	781b      	ldrb	r3, [r3, #0]
 8000b20:	461a      	mov	r2, r3
 8000b22:	4b06      	ldr	r3, [pc, #24]	; (8000b3c <HAL_IncTick+0x24>)
 8000b24:	681b      	ldr	r3, [r3, #0]
 8000b26:	4413      	add	r3, r2
 8000b28:	4a04      	ldr	r2, [pc, #16]	; (8000b3c <HAL_IncTick+0x24>)
 8000b2a:	6013      	str	r3, [r2, #0]
 8000b2c:	bf00      	nop
 8000b2e:	46bd      	mov	sp, r7
 8000b30:	f85d 7b04 	ldr.w	r7, [sp], #4
 8000b34:	4770      	bx	lr
 8000b36:	bf00      	nop
 8000b38:	20000050 	.word	0x20000050
 8000b3c:	200001b0 	.word	0x200001b0

08000b40 <HAL_GetTick>:
 8000b40:	b480      	push	{r7}
 8000b42:	af00      	add	r7, sp, #0
 8000b44:	4b03      	ldr	r3, [pc, #12]	; (8000b54 <HAL_GetTick+0x14>)
 8000b46:	681b      	ldr	r3, [r3, #0]
 8000b48:	4618      	mov	r0, r3
 8000b4a:	46bd      	mov	sp, r7
 8000b4c:	f85d 7b04 	ldr.w	r7, [sp], #4
 8000b50:	4770      	bx	lr
 8000b52:	bf00      	nop
 8000b54:	200001b0 	.word	0x200001b0

08000b58 <HAL_Delay>:
 8000b58:	b580      	push	{r7, lr}
 8000b5a:	b084      	sub	sp, #16
 8000b5c:	af00      	add	r7, sp, #0
 8000b5e:	6078      	str	r0, [r7, #4]
 8000b60:	f7ff ffee 	bl	8000b40 <HAL_GetTick>
 8000b64:	60b8      	str	r0, [r7, #8]
 8000b66:	687b      	ldr	r3, [r7, #4]
 8000b68:	60fb      	str	r3, [r7, #12]
 8000b6a:	68fb      	ldr	r3, [r7, #12]
 8000b6c:	f1b3 3fff 	cmp.w	r3, #4294967295
 8000b70:	d005      	beq.n	8000b7e <HAL_Delay+0x26>
 8000b72:	4b0a      	ldr	r3, [pc, #40]	; (8000b9c <HAL_Delay+0x44>)
 8000b74:	781b      	ldrb	r3, [r3, #0]
 8000b76:	461a      	mov	r2, r3
 8000b78:	68fb      	ldr	r3, [r7, #12]
 8000b7a:	4413      	add	r3, r2
 8000b7c:	60fb      	str	r3, [r7, #12]
 8000b7e:	bf00      	nop
 8000b80:	f7ff ffde 	bl	8000b40 <HAL_GetTick>
 8000b84:	4602      	mov	r2, r0
 8000b86:	68bb      	ldr	r3, [r7, #8]
 8000b88:	1ad3      	subs	r3, r2, r3
 8000b8a:	68fa      	ldr	r2, [r7, #12]
 8000b8c:	429a      	cmp	r2, r3
 8000b8e:	d8f7      	bhi.n	8000b80 <HAL_Delay+0x28>
 8000b90:	bf00      	nop
 8000b92:	bf00      	nop
 8000b94:	3710      	adds	r7, #16
 8000b96:	46bd      	mov	sp, r7
 8000b98:	bd80      	pop	{r7, pc}
 8000b9a:	bf00      	nop
 8000b9c:	20000050 	.word	0x20000050

08000ba0 <__NVIC_SetPriorityGrouping>:
 8000ba0:	b480      	push	{r7}
 8000ba2:	b085      	sub	sp, #20
 8000ba4:	af00      	add	r7, sp, #0
 8000ba6:	6078      	str	r0, [r7, #4]
 8000ba8:	687b      	ldr	r3, [r7, #4]
 8000baa:	f003 0307 	and.w	r3, r3, #7
 8000bae:	60fb      	str	r3, [r7, #12]
 8000bb0:	4b0c      	ldr	r3, [pc, #48]	; (8000be4 <__NVIC_SetPriorityGrouping+0x44>)
 8000bb2:	68db      	ldr	r3, [r3, #12]
 8000bb4:	60bb      	str	r3, [r7, #8]
 8000bb6:	68ba      	ldr	r2, [r7, #8]
 8000bb8:	f64f 03ff 	movw	r3, #63743	; 0xf8ff
 8000bbc:	4013      	ands	r3, r2
 8000bbe:	60bb      	str	r3, [r7, #8]
 8000bc0:	68fb      	ldr	r3, [r7, #12]
 8000bc2:	021a      	lsls	r2, r3, #8
 8000bc4:	68bb      	ldr	r3, [r7, #8]
 8000bc6:	4313      	orrs	r3, r2
 8000bc8:	f043 63bf 	orr.w	r3, r3, #100139008	; 0x5f80000
 8000bcc:	f443 3300 	orr.w	r3, r3, #131072	; 0x20000
 8000bd0:	60bb      	str	r3, [r7, #8]
 8000bd2:	4a04      	ldr	r2, [pc, #16]	; (8000be4 <__NVIC_SetPriorityGrouping+0x44>)
 8000bd4:	68bb      	ldr	r3, [r7, #8]
 8000bd6:	60d3      	str	r3, [r2, #12]
 8000bd8:	bf00      	nop
 8000bda:	3714      	adds	r7, #20
 8000bdc:	46bd      	mov	sp, r7
 8000bde:	f85d 7b04 	ldr.w	r7, [sp], #4
 8000be2:	4770      	bx	lr
 8000be4:	e000ed00 	.word	0xe000ed00

08000be8 <__NVIC_GetPriorityGrouping>:
 8000be8:	b480      	push	{r7}
 8000bea:	af00      	add	r7, sp, #0
 8000bec:	4b04      	ldr	r3, [pc, #16]	; (8000c00 <__NVIC_GetPriorityGrouping+0x18>)
 8000bee:	68db      	ldr	r3, [r3, #12]
 8000bf0:	0a1b      	lsrs	r3, r3, #8
 8000bf2:	f003 0307 	and.w	r3, r3, #7
 8000bf6:	4618      	mov	r0, r3
 8000bf8:	46bd      	mov	sp, r7
 8000bfa:	f85d 7b04 	ldr.w	r7, [sp], #4
 8000bfe:	4770      	bx	lr
 8000c00:	e000ed00 	.word	0xe000ed00

08000c04 <__NVIC_EnableIRQ>:
 8000c04:	b480      	push	{r7}
 8000c06:	b083      	sub	sp, #12
 8000c08:	af00      	add	r7, sp, #0
 8000c0a:	4603      	mov	r3, r0
 8000c0c:	71fb      	strb	r3, [r7, #7]
 8000c0e:	f997 3007 	ldrsb.w	r3, [r7, #7]
 8000c12:	2b00      	cmp	r3, #0
 8000c14:	db0b      	blt.n	8000c2e <__NVIC_EnableIRQ+0x2a>
 8000c16:	79fb      	ldrb	r3, [r7, #7]
 8000c18:	f003 021f 	and.w	r2, r3, #31
 8000c1c:	4907      	ldr	r1, [pc, #28]	; (8000c3c <__NVIC_EnableIRQ+0x38>)
 8000c1e:	f997 3007 	ldrsb.w	r3, [r7, #7]
 8000c22:	095b      	lsrs	r3, r3, #5
 8000c24:	2001      	movs	r0, #1
 8000c26:	fa00 f202 	lsl.w	r2, r0, r2
 8000c2a:	f841 2023 	str.w	r2, [r1, r3, lsl #2]
 8000c2e:	bf00      	nop
 8000c30:	370c      	adds	r7, #12
 8000c32:	46bd      	mov	sp, r7
 8000c34:	f85d 7b04 	ldr.w	r7, [sp], #4
 8000c38:	4770      	bx	lr
 8000c3a:	bf00      	nop
 8000c3c:	e000e100 	.word	0xe000e100

08000c40 <__NVIC_SetPriority>:
 8000c40:	b480      	push	{r7}
 8000c42:	b083      	sub	sp, #12
 8000c44:	af00      	add	r7, sp, #0
 8000c46:	4603      	mov	r3, r0
 8000c48:	6039      	str	r1, [r7, #0]
 8000c4a:	71fb      	strb	r3, [r7, #7]
 8000c4c:	f997 3007 	ldrsb.w	r3, [r7, #7]
 8000c50:	2b00      	cmp	r3, #0
 8000c52:	db0a      	blt.n	8000c6a <__NVIC_SetPriority+0x2a>
 8000c54:	683b      	ldr	r3, [r7, #0]
 8000c56:	b2da      	uxtb	r2, r3
 8000c58:	490c      	ldr	r1, [pc, #48]	; (8000c8c <__NVIC_SetPriority+0x4c>)
 8000c5a:	f997 3007 	ldrsb.w	r3, [r7, #7]
 8000c5e:	0112      	lsls	r2, r2, #4
 8000c60:	b2d2      	uxtb	r2, r2
 8000c62:	440b      	add	r3, r1
 8000c64:	f883 2300 	strb.w	r2, [r3, #768]	; 0x300
 8000c68:	e00a      	b.n	8000c80 <__NVIC_SetPriority+0x40>
 8000c6a:	683b      	ldr	r3, [r7, #0]
 8000c6c:	b2da      	uxtb	r2, r3
 8000c6e:	4908      	ldr	r1, [pc, #32]	; (8000c90 <__NVIC_SetPriority+0x50>)
 8000c70:	79fb      	ldrb	r3, [r7, #7]
 8000c72:	f003 030f 	and.w	r3, r3, #15
 8000c76:	3b04      	subs	r3, #4
 8000c78:	0112      	lsls	r2, r2, #4
 8000c7a:	b2d2      	uxtb	r2, r2
 8000c7c:	440b      	add	r3, r1
 8000c7e:	761a      	strb	r2, [r3, #24]
 8000c80:	bf00      	nop
 8000c82:	370c      	adds	r7, #12
 8000c84:	46bd      	mov	sp, r7
 8000c86:	f85d 7b04 	ldr.w	r7, [sp], #4
 8000c8a:	4770      	bx	lr
 8000c8c:	e000e100 	.word	0xe000e100
 8000c90:	e000ed00 	.word	0xe000ed00

08000c94 <NVIC_EncodePriority>:
 8000c94:	b480      	push	{r7}
 8000c96:	b089      	sub	sp, #36	; 0x24
 8000c98:	af00      	add	r7, sp, #0
 8000c9a:	60f8      	str	r0, [r7, #12]
 8000c9c:	60b9      	str	r1, [r7, #8]
 8000c9e:	607a      	str	r2, [r7, #4]
 8000ca0:	68fb      	ldr	r3, [r7, #12]
 8000ca2:	f003 0307 	and.w	r3, r3, #7
 8000ca6:	61fb      	str	r3, [r7, #28]
 8000ca8:	69fb      	ldr	r3, [r7, #28]
 8000caa:	f1c3 0307 	rsb	r3, r3, #7
 8000cae:	2b04      	cmp	r3, #4
 8000cb0:	bf28      	it	cs
 8000cb2:	2304      	movcs	r3, #4
 8000cb4:	61bb      	str	r3, [r7, #24]
 8000cb6:	69fb      	ldr	r3, [r7, #28]
 8000cb8:	3304      	adds	r3, #4
 8000cba:	2b06      	cmp	r3, #6
 8000cbc:	d902      	bls.n	8000cc4 <NVIC_EncodePriority+0x30>
 8000cbe:	69fb      	ldr	r3, [r7, #28]
 8000cc0:	3b03      	subs	r3, #3
 8000cc2:	e000      	b.n	8000cc6 <NVIC_EncodePriority+0x32>
 8000cc4:	2300      	movs	r3, #0
 8000cc6:	617b      	str	r3, [r7, #20]
 8000cc8:	f04f 32ff 	mov.w	r2, #4294967295
 8000ccc:	69bb      	ldr	r3, [r7, #24]
 8000cce:	fa02 f303 	lsl.w	r3, r2, r3
 8000cd2:	43da      	mvns	r2, r3
 8000cd4:	68bb      	ldr	r3, [r7, #8]
 8000cd6:	401a      	ands	r2, r3
 8000cd8:	697b      	ldr	r3, [r7, #20]
 8000cda:	409a      	lsls	r2, r3
 8000cdc:	f04f 31ff 	mov.w	r1, #4294967295
 8000ce0:	697b      	ldr	r3, [r7, #20]
 8000ce2:	fa01 f303 	lsl.w	r3, r1, r3
 8000ce6:	43d9      	mvns	r1, r3
 8000ce8:	687b      	ldr	r3, [r7, #4]
 8000cea:	400b      	ands	r3, r1
 8000cec:	4313      	orrs	r3, r2
 8000cee:	4618      	mov	r0, r3
 8000cf0:	3724      	adds	r7, #36	; 0x24
 8000cf2:	46bd      	mov	sp, r7
 8000cf4:	f85d 7b04 	ldr.w	r7, [sp], #4
 8000cf8:	4770      	bx	lr
	...

08000cfc <SysTick_Config>:
 8000cfc:	b580      	push	{r7, lr}
 8000cfe:	b082      	sub	sp, #8
 8000d00:	af00      	add	r7, sp, #0
 8000d02:	6078      	str	r0, [r7, #4]
 8000d04:	687b      	ldr	r3, [r7, #4]
 8000d06:	3b01      	subs	r3, #1
 8000d08:	f1b3 7f80 	cmp.w	r3, #16777216	; 0x1000000
 8000d0c:	d301      	bcc.n	8000d12 <SysTick_Config+0x16>
 8000d0e:	2301      	movs	r3, #1
 8000d10:	e00f      	b.n	8000d32 <SysTick_Config+0x36>
 8000d12:	4a0a      	ldr	r2, [pc, #40]	; (8000d3c <SysTick_Config+0x40>)
 8000d14:	687b      	ldr	r3, [r7, #4]
 8000d16:	3b01      	subs	r3, #1
 8000d18:	6053      	str	r3, [r2, #4]
 8000d1a:	210f      	movs	r1, #15
 8000d1c:	f04f 30ff 	mov.w	r0, #4294967295
 8000d20:	f7ff ff8e 	bl	8000c40 <__NVIC_SetPriority>
 8000d24:	4b05      	ldr	r3, [pc, #20]	; (8000d3c <SysTick_Config+0x40>)
 8000d26:	2200      	movs	r2, #0
 8000d28:	609a      	str	r2, [r3, #8]
 8000d2a:	4b04      	ldr	r3, [pc, #16]	; (8000d3c <SysTick_Config+0x40>)
 8000d2c:	2207      	movs	r2, #7
 8000d2e:	601a      	str	r2, [r3, #0]
 8000d30:	2300      	movs	r3, #0
 8000d32:	4618      	mov	r0, r3
 8000d34:	3708      	adds	r7, #8
 8000d36:	46bd      	mov	sp, r7
 8000d38:	bd80      	pop	{r7, pc}
 8000d3a:	bf00      	nop
 8000d3c:	e000e010 	.word	0xe000e010

08000d40 <HAL_NVIC_SetPriorityGrouping>:
 8000d40:	b580      	push	{r7, lr}
 8000d42:	b082      	sub	sp, #8
 8000d44:	af00      	add	r7, sp, #0
 8000d46:	6078      	str	r0, [r7, #4]
 8000d48:	6878      	ldr	r0, [r7, #4]
 8000d4a:	f7ff ff29 	bl	8000ba0 <__NVIC_SetPriorityGrouping>
 8000d4e:	bf00      	nop
 8000d50:	3708      	adds	r7, #8
 8000d52:	46bd      	mov	sp, r7
 8000d54:	bd80      	pop	{r7, pc}

08000d56 <HAL_NVIC_SetPriority>:
 8000d56:	b580      	push	{r7, lr}
 8000d58:	b086      	sub	sp, #24
 8000d5a:	af00      	add	r7, sp, #0
 8000d5c:	4603      	mov	r3, r0
 8000d5e:	60b9      	str	r1, [r7, #8]
 8000d60:	607a      	str	r2, [r7, #4]
 8000d62:	73fb      	strb	r3, [r7, #15]
 8000d64:	2300      	movs	r3, #0
 8000d66:	617b      	str	r3, [r7, #20]
 8000d68:	f7ff ff3e 	bl	8000be8 <__NVIC_GetPriorityGrouping>
 8000d6c:	6178      	str	r0, [r7, #20]
 8000d6e:	687a      	ldr	r2, [r7, #4]
 8000d70:	68b9      	ldr	r1, [r7, #8]
 8000d72:	6978      	ldr	r0, [r7, #20]
 8000d74:	f7ff ff8e 	bl	8000c94 <NVIC_EncodePriority>
 8000d78:	4602      	mov	r2, r0
 8000d7a:	f997 300f 	ldrsb.w	r3, [r7, #15]
 8000d7e:	4611      	mov	r1, r2
 8000d80:	4618      	mov	r0, r3
 8000d82:	f7ff ff5d 	bl	8000c40 <__NVIC_SetPriority>
 8000d86:	bf00      	nop
 8000d88:	3718      	adds	r7, #24
 8000d8a:	46bd      	mov	sp, r7
 8000d8c:	bd80      	pop	{r7, pc}

08000d8e <HAL_NVIC_EnableIRQ>:
 8000d8e:	b580      	push	{r7, lr}
 8000d90:	b082      	sub	sp, #8
 8000d92:	af00      	add	r7, sp, #0
 8000d94:	4603      	mov	r3, r0
 8000d96:	71fb      	strb	r3, [r7, #7]
 8000d98:	f997 3007 	ldrsb.w	r3, [r7, #7]
 8000d9c:	4618      	mov	r0, r3
 8000d9e:	f7ff ff31 	bl	8000c04 <__NVIC_EnableIRQ>
 8000da2:	bf00      	nop
 8000da4:	3708      	adds	r7, #8
 8000da6:	46bd      	mov	sp, r7
 8000da8:	bd80      	pop	{r7, pc}

08000daa <HAL_SYSTICK_Config>:
 8000daa:	b580      	push	{r7, lr}
 8000dac:	b082      	sub	sp, #8
 8000dae:	af00      	add	r7, sp, #0
 8000db0:	6078      	str	r0, [r7, #4]
 8000db2:	6878      	ldr	r0, [r7, #4]
 8000db4:	f7ff ffa2 	bl	8000cfc <SysTick_Config>
 8000db8:	4603      	mov	r3, r0
 8000dba:	4618      	mov	r0, r3
 8000dbc:	3708      	adds	r7, #8
 8000dbe:	46bd      	mov	sp, r7
 8000dc0:	bd80      	pop	{r7, pc}
	...

08000dc4 <HAL_GPIO_Init>:
 8000dc4:	b480      	push	{r7}
 8000dc6:	b089      	sub	sp, #36	; 0x24
 8000dc8:	af00      	add	r7, sp, #0
 8000dca:	6078      	str	r0, [r7, #4]
 8000dcc:	6039      	str	r1, [r7, #0]
 8000dce:	2300      	movs	r3, #0
 8000dd0:	617b      	str	r3, [r7, #20]
 8000dd2:	2300      	movs	r3, #0
 8000dd4:	613b      	str	r3, [r7, #16]
 8000dd6:	2300      	movs	r3, #0
 8000dd8:	61bb      	str	r3, [r7, #24]
 8000dda:	2300      	movs	r3, #0
 8000ddc:	61fb      	str	r3, [r7, #28]
 8000dde:	e16b      	b.n	80010b8 <HAL_GPIO_Init+0x2f4>
 8000de0:	2201      	movs	r2, #1
 8000de2:	69fb      	ldr	r3, [r7, #28]
 8000de4:	fa02 f303 	lsl.w	r3, r2, r3
 8000de8:	617b      	str	r3, [r7, #20]
 8000dea:	683b      	ldr	r3, [r7, #0]
 8000dec:	681b      	ldr	r3, [r3, #0]
 8000dee:	697a      	ldr	r2, [r7, #20]
 8000df0:	4013      	ands	r3, r2
 8000df2:	613b      	str	r3, [r7, #16]
 8000df4:	693a      	ldr	r2, [r7, #16]
 8000df6:	697b      	ldr	r3, [r7, #20]
 8000df8:	429a      	cmp	r2, r3
 8000dfa:	f040 815a 	bne.w	80010b2 <HAL_GPIO_Init+0x2ee>
 8000dfe:	683b      	ldr	r3, [r7, #0]
 8000e00:	685b      	ldr	r3, [r3, #4]
 8000e02:	f003 0303 	and.w	r3, r3, #3
 8000e06:	2b01      	cmp	r3, #1
 8000e08:	d005      	beq.n	8000e16 <HAL_GPIO_Init+0x52>
 8000e0a:	683b      	ldr	r3, [r7, #0]
 8000e0c:	685b      	ldr	r3, [r3, #4]
 8000e0e:	f003 0303 	and.w	r3, r3, #3
 8000e12:	2b02      	cmp	r3, #2
 8000e14:	d130      	bne.n	8000e78 <HAL_GPIO_Init+0xb4>
 8000e16:	687b      	ldr	r3, [r7, #4]
 8000e18:	689b      	ldr	r3, [r3, #8]
 8000e1a:	61bb      	str	r3, [r7, #24]
 8000e1c:	69fb      	ldr	r3, [r7, #28]
 8000e1e:	005b      	lsls	r3, r3, #1
 8000e20:	2203      	movs	r2, #3
 8000e22:	fa02 f303 	lsl.w	r3, r2, r3
 8000e26:	43db      	mvns	r3, r3
 8000e28:	69ba      	ldr	r2, [r7, #24]
 8000e2a:	4013      	ands	r3, r2
 8000e2c:	61bb      	str	r3, [r7, #24]
 8000e2e:	683b      	ldr	r3, [r7, #0]
 8000e30:	68da      	ldr	r2, [r3, #12]
 8000e32:	69fb      	ldr	r3, [r7, #28]
 8000e34:	005b      	lsls	r3, r3, #1
 8000e36:	fa02 f303 	lsl.w	r3, r2, r3
 8000e3a:	69ba      	ldr	r2, [r7, #24]
 8000e3c:	4313      	orrs	r3, r2
 8000e3e:	61bb      	str	r3, [r7, #24]
 8000e40:	687b      	ldr	r3, [r7, #4]
 8000e42:	69ba      	ldr	r2, [r7, #24]
 8000e44:	609a      	str	r2, [r3, #8]
 8000e46:	687b      	ldr	r3, [r7, #4]
 8000e48:	685b      	ldr	r3, [r3, #4]
 8000e4a:	61bb      	str	r3, [r7, #24]
 8000e4c:	2201      	movs	r2, #1
 8000e4e:	69fb      	ldr	r3, [r7, #28]
 8000e50:	fa02 f303 	lsl.w	r3, r2, r3
 8000e54:	43db      	mvns	r3, r3
 8000e56:	69ba      	ldr	r2, [r7, #24]
 8000e58:	4013      	ands	r3, r2
 8000e5a:	61bb      	str	r3, [r7, #24]
 8000e5c:	683b      	ldr	r3, [r7, #0]
 8000e5e:	685b      	ldr	r3, [r3, #4]
 8000e60:	091b      	lsrs	r3, r3, #4
 8000e62:	f003 0201 	and.w	r2, r3, #1
 8000e66:	69fb      	ldr	r3, [r7, #28]
 8000e68:	fa02 f303 	lsl.w	r3, r2, r3
 8000e6c:	69ba      	ldr	r2, [r7, #24]
 8000e6e:	4313      	orrs	r3, r2
 8000e70:	61bb      	str	r3, [r7, #24]
 8000e72:	687b      	ldr	r3, [r7, #4]
 8000e74:	69ba      	ldr	r2, [r7, #24]
 8000e76:	605a      	str	r2, [r3, #4]
 8000e78:	683b      	ldr	r3, [r7, #0]
 8000e7a:	685b      	ldr	r3, [r3, #4]
 8000e7c:	f003 0303 	and.w	r3, r3, #3
 8000e80:	2b03      	cmp	r3, #3
 8000e82:	d017      	beq.n	8000eb4 <HAL_GPIO_Init+0xf0>
 8000e84:	687b      	ldr	r3, [r7, #4]
 8000e86:	68db      	ldr	r3, [r3, #12]
 8000e88:	61bb      	str	r3, [r7, #24]
 8000e8a:	69fb      	ldr	r3, [r7, #28]
 8000e8c:	005b      	lsls	r3, r3, #1
 8000e8e:	2203      	movs	r2, #3
 8000e90:	fa02 f303 	lsl.w	r3, r2, r3
 8000e94:	43db      	mvns	r3, r3
 8000e96:	69ba      	ldr	r2, [r7, #24]
 8000e98:	4013      	ands	r3, r2
 8000e9a:	61bb      	str	r3, [r7, #24]
 8000e9c:	683b      	ldr	r3, [r7, #0]
 8000e9e:	689a      	ldr	r2, [r3, #8]
 8000ea0:	69fb      	ldr	r3, [r7, #28]
 8000ea2:	005b      	lsls	r3, r3, #1
 8000ea4:	fa02 f303 	lsl.w	r3, r2, r3
 8000ea8:	69ba      	ldr	r2, [r7, #24]
 8000eaa:	4313      	orrs	r3, r2
 8000eac:	61bb      	str	r3, [r7, #24]
 8000eae:	687b      	ldr	r3, [r7, #4]
 8000eb0:	69ba      	ldr	r2, [r7, #24]
 8000eb2:	60da      	str	r2, [r3, #12]
 8000eb4:	683b      	ldr	r3, [r7, #0]
 8000eb6:	685b      	ldr	r3, [r3, #4]
 8000eb8:	f003 0303 	and.w	r3, r3, #3
 8000ebc:	2b02      	cmp	r3, #2
 8000ebe:	d123      	bne.n	8000f08 <HAL_GPIO_Init+0x144>
 8000ec0:	69fb      	ldr	r3, [r7, #28]
 8000ec2:	08da      	lsrs	r2, r3, #3
 8000ec4:	687b      	ldr	r3, [r7, #4]
 8000ec6:	3208      	adds	r2, #8
 8000ec8:	f853 3022 	ldr.w	r3, [r3, r2, lsl #2]
 8000ecc:	61bb      	str	r3, [r7, #24]
 8000ece:	69fb      	ldr	r3, [r7, #28]
 8000ed0:	f003 0307 	and.w	r3, r3, #7
 8000ed4:	009b      	lsls	r3, r3, #2
 8000ed6:	220f      	movs	r2, #15
 8000ed8:	fa02 f303 	lsl.w	r3, r2, r3
 8000edc:	43db      	mvns	r3, r3
 8000ede:	69ba      	ldr	r2, [r7, #24]
 8000ee0:	4013      	ands	r3, r2
 8000ee2:	61bb      	str	r3, [r7, #24]
 8000ee4:	683b      	ldr	r3, [r7, #0]
 8000ee6:	691a      	ldr	r2, [r3, #16]
 8000ee8:	69fb      	ldr	r3, [r7, #28]
 8000eea:	f003 0307 	and.w	r3, r3, #7
 8000eee:	009b      	lsls	r3, r3, #2
 8000ef0:	fa02 f303 	lsl.w	r3, r2, r3
 8000ef4:	69ba      	ldr	r2, [r7, #24]
 8000ef6:	4313      	orrs	r3, r2
 8000ef8:	61bb      	str	r3, [r7, #24]
 8000efa:	69fb      	ldr	r3, [r7, #28]
 8000efc:	08da      	lsrs	r2, r3, #3
 8000efe:	687b      	ldr	r3, [r7, #4]
 8000f00:	3208      	adds	r2, #8
 8000f02:	69b9      	ldr	r1, [r7, #24]
 8000f04:	f843 1022 	str.w	r1, [r3, r2, lsl #2]
 8000f08:	687b      	ldr	r3, [r7, #4]
 8000f0a:	681b      	ldr	r3, [r3, #0]
 8000f0c:	61bb      	str	r3, [r7, #24]
 8000f0e:	69fb      	ldr	r3, [r7, #28]
 8000f10:	005b      	lsls	r3, r3, #1
 8000f12:	2203      	movs	r2, #3
 8000f14:	fa02 f303 	lsl.w	r3, r2, r3
 8000f18:	43db      	mvns	r3, r3
 8000f1a:	69ba      	ldr	r2, [r7, #24]
 8000f1c:	4013      	ands	r3, r2
 8000f1e:	61bb      	str	r3, [r7, #24]
 8000f20:	683b      	ldr	r3, [r7, #0]
 8000f22:	685b      	ldr	r3, [r3, #4]
 8000f24:	f003 0203 	and.w	r2, r3, #3
 8000f28:	69fb      	ldr	r3, [r7, #28]
 8000f2a:	005b      	lsls	r3, r3, #1
 8000f2c:	fa02 f303 	lsl.w	r3, r2, r3
 8000f30:	69ba      	ldr	r2, [r7, #24]
 8000f32:	4313      	orrs	r3, r2
 8000f34:	61bb      	str	r3, [r7, #24]
 8000f36:	687b      	ldr	r3, [r7, #4]
 8000f38:	69ba      	ldr	r2, [r7, #24]
 8000f3a:	601a      	str	r2, [r3, #0]
 8000f3c:	683b      	ldr	r3, [r7, #0]
 8000f3e:	685b      	ldr	r3, [r3, #4]
 8000f40:	f403 3340 	and.w	r3, r3, #196608	; 0x30000
 8000f44:	2b00      	cmp	r3, #0
 8000f46:	f000 80b4 	beq.w	80010b2 <HAL_GPIO_Init+0x2ee>
 8000f4a:	2300      	movs	r3, #0
 8000f4c:	60fb      	str	r3, [r7, #12]
 8000f4e:	4b60      	ldr	r3, [pc, #384]	; (80010d0 <HAL_GPIO_Init+0x30c>)
 8000f50:	6c5b      	ldr	r3, [r3, #68]	; 0x44
 8000f52:	4a5f      	ldr	r2, [pc, #380]	; (80010d0 <HAL_GPIO_Init+0x30c>)
 8000f54:	f443 4380 	orr.w	r3, r3, #16384	; 0x4000
 8000f58:	6453      	str	r3, [r2, #68]	; 0x44
 8000f5a:	4b5d      	ldr	r3, [pc, #372]	; (80010d0 <HAL_GPIO_Init+0x30c>)
 8000f5c:	6c5b      	ldr	r3, [r3, #68]	; 0x44
 8000f5e:	f403 4380 	and.w	r3, r3, #16384	; 0x4000
 8000f62:	60fb      	str	r3, [r7, #12]
 8000f64:	68fb      	ldr	r3, [r7, #12]
 8000f66:	4a5b      	ldr	r2, [pc, #364]	; (80010d4 <HAL_GPIO_Init+0x310>)
 8000f68:	69fb      	ldr	r3, [r7, #28]
 8000f6a:	089b      	lsrs	r3, r3, #2
 8000f6c:	3302      	adds	r3, #2
 8000f6e:	f852 3023 	ldr.w	r3, [r2, r3, lsl #2]
 8000f72:	61bb      	str	r3, [r7, #24]
 8000f74:	69fb      	ldr	r3, [r7, #28]
 8000f76:	f003 0303 	and.w	r3, r3, #3
 8000f7a:	009b      	lsls	r3, r3, #2
 8000f7c:	220f      	movs	r2, #15
 8000f7e:	fa02 f303 	lsl.w	r3, r2, r3
 8000f82:	43db      	mvns	r3, r3
 8000f84:	69ba      	ldr	r2, [r7, #24]
 8000f86:	4013      	ands	r3, r2
 8000f88:	61bb      	str	r3, [r7, #24]
 8000f8a:	687b      	ldr	r3, [r7, #4]
 8000f8c:	4a52      	ldr	r2, [pc, #328]	; (80010d8 <HAL_GPIO_Init+0x314>)
 8000f8e:	4293      	cmp	r3, r2
 8000f90:	d02b      	beq.n	8000fea <HAL_GPIO_Init+0x226>
 8000f92:	687b      	ldr	r3, [r7, #4]
 8000f94:	4a51      	ldr	r2, [pc, #324]	; (80010dc <HAL_GPIO_Init+0x318>)
 8000f96:	4293      	cmp	r3, r2
 8000f98:	d025      	beq.n	8000fe6 <HAL_GPIO_Init+0x222>
 8000f9a:	687b      	ldr	r3, [r7, #4]
 8000f9c:	4a50      	ldr	r2, [pc, #320]	; (80010e0 <HAL_GPIO_Init+0x31c>)
 8000f9e:	4293      	cmp	r3, r2
 8000fa0:	d01f      	beq.n	8000fe2 <HAL_GPIO_Init+0x21e>
 8000fa2:	687b      	ldr	r3, [r7, #4]
 8000fa4:	4a4f      	ldr	r2, [pc, #316]	; (80010e4 <HAL_GPIO_Init+0x320>)
 8000fa6:	4293      	cmp	r3, r2
 8000fa8:	d019      	beq.n	8000fde <HAL_GPIO_Init+0x21a>
 8000faa:	687b      	ldr	r3, [r7, #4]
 8000fac:	4a4e      	ldr	r2, [pc, #312]	; (80010e8 <HAL_GPIO_Init+0x324>)
 8000fae:	4293      	cmp	r3, r2
 8000fb0:	d013      	beq.n	8000fda <HAL_GPIO_Init+0x216>
 8000fb2:	687b      	ldr	r3, [r7, #4]
 8000fb4:	4a4d      	ldr	r2, [pc, #308]	; (80010ec <HAL_GPIO_Init+0x328>)
 8000fb6:	4293      	cmp	r3, r2
 8000fb8:	d00d      	beq.n	8000fd6 <HAL_GPIO_Init+0x212>
 8000fba:	687b      	ldr	r3, [r7, #4]
 8000fbc:	4a4c      	ldr	r2, [pc, #304]	; (80010f0 <HAL_GPIO_Init+0x32c>)
 8000fbe:	4293      	cmp	r3, r2
 8000fc0:	d007      	beq.n	8000fd2 <HAL_GPIO_Init+0x20e>
 8000fc2:	687b      	ldr	r3, [r7, #4]
 8000fc4:	4a4b      	ldr	r2, [pc, #300]	; (80010f4 <HAL_GPIO_Init+0x330>)
 8000fc6:	4293      	cmp	r3, r2
 8000fc8:	d101      	bne.n	8000fce <HAL_GPIO_Init+0x20a>
 8000fca:	2307      	movs	r3, #7
 8000fcc:	e00e      	b.n	8000fec <HAL_GPIO_Init+0x228>
 8000fce:	2308      	movs	r3, #8
 8000fd0:	e00c      	b.n	8000fec <HAL_GPIO_Init+0x228>
 8000fd2:	2306      	movs	r3, #6
 8000fd4:	e00a      	b.n	8000fec <HAL_GPIO_Init+0x228>
 8000fd6:	2305      	movs	r3, #5
 8000fd8:	e008      	b.n	8000fec <HAL_GPIO_Init+0x228>
 8000fda:	2304      	movs	r3, #4
 8000fdc:	e006      	b.n	8000fec <HAL_GPIO_Init+0x228>
 8000fde:	2303      	movs	r3, #3
 8000fe0:	e004      	b.n	8000fec <HAL_GPIO_Init+0x228>
 8000fe2:	2302      	movs	r3, #2
 8000fe4:	e002      	b.n	8000fec <HAL_GPIO_Init+0x228>
 8000fe6:	2301      	movs	r3, #1
 8000fe8:	e000      	b.n	8000fec <HAL_GPIO_Init+0x228>
 8000fea:	2300      	movs	r3, #0
 8000fec:	69fa      	ldr	r2, [r7, #28]
 8000fee:	f002 0203 	and.w	r2, r2, #3
 8000ff2:	0092      	lsls	r2, r2, #2
 8000ff4:	4093      	lsls	r3, r2
 8000ff6:	69ba      	ldr	r2, [r7, #24]
 8000ff8:	4313      	orrs	r3, r2
 8000ffa:	61bb      	str	r3, [r7, #24]
 8000ffc:	4935      	ldr	r1, [pc, #212]	; (80010d4 <HAL_GPIO_Init+0x310>)
 8000ffe:	69fb      	ldr	r3, [r7, #28]
 8001000:	089b      	lsrs	r3, r3, #2
 8001002:	3302      	adds	r3, #2
 8001004:	69ba      	ldr	r2, [r7, #24]
 8001006:	f841 2023 	str.w	r2, [r1, r3, lsl #2]
 800100a:	4b3b      	ldr	r3, [pc, #236]	; (80010f8 <HAL_GPIO_Init+0x334>)
 800100c:	689b      	ldr	r3, [r3, #8]
 800100e:	61bb      	str	r3, [r7, #24]
 8001010:	693b      	ldr	r3, [r7, #16]
 8001012:	43db      	mvns	r3, r3
 8001014:	69ba      	ldr	r2, [r7, #24]
 8001016:	4013      	ands	r3, r2
 8001018:	61bb      	str	r3, [r7, #24]
 800101a:	683b      	ldr	r3, [r7, #0]
 800101c:	685b      	ldr	r3, [r3, #4]
 800101e:	f403 1380 	and.w	r3, r3, #1048576	; 0x100000
 8001022:	2b00      	cmp	r3, #0
 8001024:	d003      	beq.n	800102e <HAL_GPIO_Init+0x26a>
 8001026:	69ba      	ldr	r2, [r7, #24]
 8001028:	693b      	ldr	r3, [r7, #16]
 800102a:	4313      	orrs	r3, r2
 800102c:	61bb      	str	r3, [r7, #24]
 800102e:	4a32      	ldr	r2, [pc, #200]	; (80010f8 <HAL_GPIO_Init+0x334>)
 8001030:	69bb      	ldr	r3, [r7, #24]
 8001032:	6093      	str	r3, [r2, #8]
 8001034:	4b30      	ldr	r3, [pc, #192]	; (80010f8 <HAL_GPIO_Init+0x334>)
 8001036:	68db      	ldr	r3, [r3, #12]
 8001038:	61bb      	str	r3, [r7, #24]
 800103a:	693b      	ldr	r3, [r7, #16]
 800103c:	43db      	mvns	r3, r3
 800103e:	69ba      	ldr	r2, [r7, #24]
 8001040:	4013      	ands	r3, r2
 8001042:	61bb      	str	r3, [r7, #24]
 8001044:	683b      	ldr	r3, [r7, #0]
 8001046:	685b      	ldr	r3, [r3, #4]
 8001048:	f403 1300 	and.w	r3, r3, #2097152	; 0x200000
 800104c:	2b00      	cmp	r3, #0
 800104e:	d003      	beq.n	8001058 <HAL_GPIO_Init+0x294>
 8001050:	69ba      	ldr	r2, [r7, #24]
 8001052:	693b      	ldr	r3, [r7, #16]
 8001054:	4313      	orrs	r3, r2
 8001056:	61bb      	str	r3, [r7, #24]
 8001058:	4a27      	ldr	r2, [pc, #156]	; (80010f8 <HAL_GPIO_Init+0x334>)
 800105a:	69bb      	ldr	r3, [r7, #24]
 800105c:	60d3      	str	r3, [r2, #12]
 800105e:	4b26      	ldr	r3, [pc, #152]	; (80010f8 <HAL_GPIO_Init+0x334>)
 8001060:	685b      	ldr	r3, [r3, #4]
 8001062:	61bb      	str	r3, [r7, #24]
 8001064:	693b      	ldr	r3, [r7, #16]
 8001066:	43db      	mvns	r3, r3
 8001068:	69ba      	ldr	r2, [r7, #24]
 800106a:	4013      	ands	r3, r2
 800106c:	61bb      	str	r3, [r7, #24]
 800106e:	683b      	ldr	r3, [r7, #0]
 8001070:	685b      	ldr	r3, [r3, #4]
 8001072:	f403 3300 	and.w	r3, r3, #131072	; 0x20000
 8001076:	2b00      	cmp	r3, #0
 8001078:	d003      	beq.n	8001082 <HAL_GPIO_Init+0x2be>
 800107a:	69ba      	ldr	r2, [r7, #24]
 800107c:	693b      	ldr	r3, [r7, #16]
 800107e:	4313      	orrs	r3, r2
 8001080:	61bb      	str	r3, [r7, #24]
 8001082:	4a1d      	ldr	r2, [pc, #116]	; (80010f8 <HAL_GPIO_Init+0x334>)
 8001084:	69bb      	ldr	r3, [r7, #24]
 8001086:	6053      	str	r3, [r2, #4]
 8001088:	4b1b      	ldr	r3, [pc, #108]	; (80010f8 <HAL_GPIO_Init+0x334>)
 800108a:	681b      	ldr	r3, [r3, #0]
 800108c:	61bb      	str	r3, [r7, #24]
 800108e:	693b      	ldr	r3, [r7, #16]
 8001090:	43db      	mvns	r3, r3
 8001092:	69ba      	ldr	r2, [r7, #24]
 8001094:	4013      	ands	r3, r2
 8001096:	61bb      	str	r3, [r7, #24]
 8001098:	683b      	ldr	r3, [r7, #0]
 800109a:	685b      	ldr	r3, [r3, #4]
 800109c:	f403 3380 	and.w	r3, r3, #65536	; 0x10000
 80010a0:	2b00      	cmp	r3, #0
 80010a2:	d003      	beq.n	80010ac <HAL_GPIO_Init+0x2e8>
 80010a4:	69ba      	ldr	r2, [r7, #24]
 80010a6:	693b      	ldr	r3, [r7, #16]
 80010a8:	4313      	orrs	r3, r2
 80010aa:	61bb      	str	r3, [r7, #24]
 80010ac:	4a12      	ldr	r2, [pc, #72]	; (80010f8 <HAL_GPIO_Init+0x334>)
 80010ae:	69bb      	ldr	r3, [r7, #24]
 80010b0:	6013      	str	r3, [r2, #0]
 80010b2:	69fb      	ldr	r3, [r7, #28]
 80010b4:	3301      	adds	r3, #1
 80010b6:	61fb      	str	r3, [r7, #28]
 80010b8:	69fb      	ldr	r3, [r7, #28]
 80010ba:	2b0f      	cmp	r3, #15
 80010bc:	f67f ae90 	bls.w	8000de0 <HAL_GPIO_Init+0x1c>
 80010c0:	bf00      	nop
 80010c2:	bf00      	nop
 80010c4:	3724      	adds	r7, #36	; 0x24
 80010c6:	46bd      	mov	sp, r7
 80010c8:	f85d 7b04 	ldr.w	r7, [sp], #4
 80010cc:	4770      	bx	lr
 80010ce:	bf00      	nop
 80010d0:	40023800 	.word	0x40023800
 80010d4:	40013800 	.word	0x40013800
 80010d8:	40020000 	.word	0x40020000
 80010dc:	40020400 	.word	0x40020400
 80010e0:	40020800 	.word	0x40020800
 80010e4:	40020c00 	.word	0x40020c00
 80010e8:	40021000 	.word	0x40021000
 80010ec:	40021400 	.word	0x40021400
 80010f0:	40021800 	.word	0x40021800
 80010f4:	40021c00 	.word	0x40021c00
 80010f8:	40013c00 	.word	0x40013c00

080010fc <HAL_GPIO_ReadPin>:
 80010fc:	b480      	push	{r7}
 80010fe:	b085      	sub	sp, #20
 8001100:	af00      	add	r7, sp, #0
 8001102:	6078      	str	r0, [r7, #4]
 8001104:	460b      	mov	r3, r1
 8001106:	807b      	strh	r3, [r7, #2]
 8001108:	687b      	ldr	r3, [r7, #4]
 800110a:	691a      	ldr	r2, [r3, #16]
 800110c:	887b      	ldrh	r3, [r7, #2]
 800110e:	4013      	ands	r3, r2
 8001110:	2b00      	cmp	r3, #0
 8001112:	d002      	beq.n	800111a <HAL_GPIO_ReadPin+0x1e>
 8001114:	2301      	movs	r3, #1
 8001116:	73fb      	strb	r3, [r7, #15]
 8001118:	e001      	b.n	800111e <HAL_GPIO_ReadPin+0x22>
 800111a:	2300      	movs	r3, #0
 800111c:	73fb      	strb	r3, [r7, #15]
 800111e:	7bfb      	ldrb	r3, [r7, #15]
 8001120:	4618      	mov	r0, r3
 8001122:	3714      	adds	r7, #20
 8001124:	46bd      	mov	sp, r7
 8001126:	f85d 7b04 	ldr.w	r7, [sp], #4
 800112a:	4770      	bx	lr

0800112c <HAL_GPIO_WritePin>:
 800112c:	b480      	push	{r7}
 800112e:	b083      	sub	sp, #12
 8001130:	af00      	add	r7, sp, #0
 8001132:	6078      	str	r0, [r7, #4]
 8001134:	460b      	mov	r3, r1
 8001136:	807b      	strh	r3, [r7, #2]
 8001138:	4613      	mov	r3, r2
 800113a:	707b      	strb	r3, [r7, #1]
 800113c:	787b      	ldrb	r3, [r7, #1]
 800113e:	2b00      	cmp	r3, #0
 8001140:	d003      	beq.n	800114a <HAL_GPIO_WritePin+0x1e>
 8001142:	887a      	ldrh	r2, [r7, #2]
 8001144:	687b      	ldr	r3, [r7, #4]
 8001146:	619a      	str	r2, [r3, #24]
 8001148:	e003      	b.n	8001152 <HAL_GPIO_WritePin+0x26>
 800114a:	887b      	ldrh	r3, [r7, #2]
 800114c:	041a      	lsls	r2, r3, #16
 800114e:	687b      	ldr	r3, [r7, #4]
 8001150:	619a      	str	r2, [r3, #24]
 8001152:	bf00      	nop
 8001154:	370c      	adds	r7, #12
 8001156:	46bd      	mov	sp, r7
 8001158:	f85d 7b04 	ldr.w	r7, [sp], #4
 800115c:	4770      	bx	lr
	...

08001160 <HAL_GPIO_EXTI_IRQHandler>:
 8001160:	b580      	push	{r7, lr}
 8001162:	b082      	sub	sp, #8
 8001164:	af00      	add	r7, sp, #0
 8001166:	4603      	mov	r3, r0
 8001168:	80fb      	strh	r3, [r7, #6]
 800116a:	4b08      	ldr	r3, [pc, #32]	; (800118c <HAL_GPIO_EXTI_IRQHandler+0x2c>)
 800116c:	695a      	ldr	r2, [r3, #20]
 800116e:	88fb      	ldrh	r3, [r7, #6]
 8001170:	4013      	ands	r3, r2
 8001172:	2b00      	cmp	r3, #0
 8001174:	d006      	beq.n	8001184 <HAL_GPIO_EXTI_IRQHandler+0x24>
 8001176:	4a05      	ldr	r2, [pc, #20]	; (800118c <HAL_GPIO_EXTI_IRQHandler+0x2c>)
 8001178:	88fb      	ldrh	r3, [r7, #6]
 800117a:	6153      	str	r3, [r2, #20]
 800117c:	88fb      	ldrh	r3, [r7, #6]
 800117e:	4618      	mov	r0, r3
 8001180:	f7ff fb2a 	bl	80007d8 <HAL_GPIO_EXTI_Callback>
 8001184:	bf00      	nop
 8001186:	3708      	adds	r7, #8
 8001188:	46bd      	mov	sp, r7
 800118a:	bd80      	pop	{r7, pc}
 800118c:	40013c00 	.word	0x40013c00

08001190 <HAL_PCD_Init>:
 8001190:	b5f0      	push	{r4, r5, r6, r7, lr}
 8001192:	b08f      	sub	sp, #60	; 0x3c
 8001194:	af0a      	add	r7, sp, #40	; 0x28
 8001196:	6078      	str	r0, [r7, #4]
 8001198:	687b      	ldr	r3, [r7, #4]
 800119a:	2b00      	cmp	r3, #0
 800119c:	d101      	bne.n	80011a2 <HAL_PCD_Init+0x12>
 800119e:	2301      	movs	r3, #1
 80011a0:	e10f      	b.n	80013c2 <HAL_PCD_Init+0x232>
 80011a2:	687b      	ldr	r3, [r7, #4]
 80011a4:	681b      	ldr	r3, [r3, #0]
 80011a6:	60bb      	str	r3, [r7, #8]
 80011a8:	687b      	ldr	r3, [r7, #4]
 80011aa:	f893 34bd 	ldrb.w	r3, [r3, #1213]	; 0x4bd
 80011ae:	b2db      	uxtb	r3, r3
 80011b0:	2b00      	cmp	r3, #0
 80011b2:	d106      	bne.n	80011c2 <HAL_PCD_Init+0x32>
 80011b4:	687b      	ldr	r3, [r7, #4]
 80011b6:	2200      	movs	r2, #0
 80011b8:	f883 24bc 	strb.w	r2, [r3, #1212]	; 0x4bc
 80011bc:	6878      	ldr	r0, [r7, #4]
 80011be:	f006 f813 	bl	80071e8 <HAL_PCD_MspInit>
 80011c2:	687b      	ldr	r3, [r7, #4]
 80011c4:	2203      	movs	r2, #3
 80011c6:	f883 24bd 	strb.w	r2, [r3, #1213]	; 0x4bd
 80011ca:	68bb      	ldr	r3, [r7, #8]
 80011cc:	6bdb      	ldr	r3, [r3, #60]	; 0x3c
 80011ce:	f403 7380 	and.w	r3, r3, #256	; 0x100
 80011d2:	2b00      	cmp	r3, #0
 80011d4:	d102      	bne.n	80011dc <HAL_PCD_Init+0x4c>
 80011d6:	687b      	ldr	r3, [r7, #4]
 80011d8:	2200      	movs	r2, #0
 80011da:	611a      	str	r2, [r3, #16]
 80011dc:	687b      	ldr	r3, [r7, #4]
 80011de:	681b      	ldr	r3, [r3, #0]
 80011e0:	4618      	mov	r0, r3
 80011e2:	f002 fafa 	bl	80037da <USB_DisableGlobalInt>
 80011e6:	687b      	ldr	r3, [r7, #4]
 80011e8:	681b      	ldr	r3, [r3, #0]
 80011ea:	603b      	str	r3, [r7, #0]
 80011ec:	687e      	ldr	r6, [r7, #4]
 80011ee:	466d      	mov	r5, sp
 80011f0:	f106 0410 	add.w	r4, r6, #16
 80011f4:	cc0f      	ldmia	r4!, {r0, r1, r2, r3}
 80011f6:	c50f      	stmia	r5!, {r0, r1, r2, r3}
 80011f8:	cc0f      	ldmia	r4!, {r0, r1, r2, r3}
 80011fa:	c50f      	stmia	r5!, {r0, r1, r2, r3}
 80011fc:	e894 0003 	ldmia.w	r4, {r0, r1}
 8001200:	e885 0003 	stmia.w	r5, {r0, r1}
 8001204:	1d33      	adds	r3, r6, #4
 8001206:	cb0e      	ldmia	r3, {r1, r2, r3}
 8001208:	6838      	ldr	r0, [r7, #0]
 800120a:	f002 f9d1 	bl	80035b0 <USB_CoreInit>
 800120e:	4603      	mov	r3, r0
 8001210:	2b00      	cmp	r3, #0
 8001212:	d005      	beq.n	8001220 <HAL_PCD_Init+0x90>
 8001214:	687b      	ldr	r3, [r7, #4]
 8001216:	2202      	movs	r2, #2
 8001218:	f883 24bd 	strb.w	r2, [r3, #1213]	; 0x4bd
 800121c:	2301      	movs	r3, #1
 800121e:	e0d0      	b.n	80013c2 <HAL_PCD_Init+0x232>
 8001220:	687b      	ldr	r3, [r7, #4]
 8001222:	681b      	ldr	r3, [r3, #0]
 8001224:	2100      	movs	r1, #0
 8001226:	4618      	mov	r0, r3
 8001228:	f002 fae8 	bl	80037fc <USB_SetCurrentMode>
 800122c:	2300      	movs	r3, #0
 800122e:	73fb      	strb	r3, [r7, #15]
 8001230:	e04a      	b.n	80012c8 <HAL_PCD_Init+0x138>
 8001232:	7bfa      	ldrb	r2, [r7, #15]
 8001234:	6879      	ldr	r1, [r7, #4]
 8001236:	4613      	mov	r3, r2
 8001238:	00db      	lsls	r3, r3, #3
 800123a:	4413      	add	r3, r2
 800123c:	009b      	lsls	r3, r3, #2
 800123e:	440b      	add	r3, r1
 8001240:	333d      	adds	r3, #61	; 0x3d
 8001242:	2201      	movs	r2, #1
 8001244:	701a      	strb	r2, [r3, #0]
 8001246:	7bfa      	ldrb	r2, [r7, #15]
 8001248:	6879      	ldr	r1, [r7, #4]
 800124a:	4613      	mov	r3, r2
 800124c:	00db      	lsls	r3, r3, #3
 800124e:	4413      	add	r3, r2
 8001250:	009b      	lsls	r3, r3, #2
 8001252:	440b      	add	r3, r1
 8001254:	333c      	adds	r3, #60	; 0x3c
 8001256:	7bfa      	ldrb	r2, [r7, #15]
 8001258:	701a      	strb	r2, [r3, #0]
 800125a:	7bfa      	ldrb	r2, [r7, #15]
 800125c:	7bfb      	ldrb	r3, [r7, #15]
 800125e:	b298      	uxth	r0, r3
 8001260:	6879      	ldr	r1, [r7, #4]
 8001262:	4613      	mov	r3, r2
 8001264:	00db      	lsls	r3, r3, #3
 8001266:	4413      	add	r3, r2
 8001268:	009b      	lsls	r3, r3, #2
 800126a:	440b      	add	r3, r1
 800126c:	3344      	adds	r3, #68	; 0x44
 800126e:	4602      	mov	r2, r0
 8001270:	801a      	strh	r2, [r3, #0]
 8001272:	7bfa      	ldrb	r2, [r7, #15]
 8001274:	6879      	ldr	r1, [r7, #4]
 8001276:	4613      	mov	r3, r2
 8001278:	00db      	lsls	r3, r3, #3
 800127a:	4413      	add	r3, r2
 800127c:	009b      	lsls	r3, r3, #2
 800127e:	440b      	add	r3, r1
 8001280:	3340      	adds	r3, #64	; 0x40
 8001282:	2200      	movs	r2, #0
 8001284:	701a      	strb	r2, [r3, #0]
 8001286:	7bfa      	ldrb	r2, [r7, #15]
 8001288:	6879      	ldr	r1, [r7, #4]
 800128a:	4613      	mov	r3, r2
 800128c:	00db      	lsls	r3, r3, #3
 800128e:	4413      	add	r3, r2
 8001290:	009b      	lsls	r3, r3, #2
 8001292:	440b      	add	r3, r1
 8001294:	3348      	adds	r3, #72	; 0x48
 8001296:	2200      	movs	r2, #0
 8001298:	601a      	str	r2, [r3, #0]
 800129a:	7bfa      	ldrb	r2, [r7, #15]
 800129c:	6879      	ldr	r1, [r7, #4]
 800129e:	4613      	mov	r3, r2
 80012a0:	00db      	lsls	r3, r3, #3
 80012a2:	4413      	add	r3, r2
 80012a4:	009b      	lsls	r3, r3, #2
 80012a6:	440b      	add	r3, r1
 80012a8:	334c      	adds	r3, #76	; 0x4c
 80012aa:	2200      	movs	r2, #0
 80012ac:	601a      	str	r2, [r3, #0]
 80012ae:	7bfa      	ldrb	r2, [r7, #15]
 80012b0:	6879      	ldr	r1, [r7, #4]
 80012b2:	4613      	mov	r3, r2
 80012b4:	00db      	lsls	r3, r3, #3
 80012b6:	4413      	add	r3, r2
 80012b8:	009b      	lsls	r3, r3, #2
 80012ba:	440b      	add	r3, r1
 80012bc:	3354      	adds	r3, #84	; 0x54
 80012be:	2200      	movs	r2, #0
 80012c0:	601a      	str	r2, [r3, #0]
 80012c2:	7bfb      	ldrb	r3, [r7, #15]
 80012c4:	3301      	adds	r3, #1
 80012c6:	73fb      	strb	r3, [r7, #15]
 80012c8:	7bfa      	ldrb	r2, [r7, #15]
 80012ca:	687b      	ldr	r3, [r7, #4]
 80012cc:	685b      	ldr	r3, [r3, #4]
 80012ce:	429a      	cmp	r2, r3
 80012d0:	d3af      	bcc.n	8001232 <HAL_PCD_Init+0xa2>
 80012d2:	2300      	movs	r3, #0
 80012d4:	73fb      	strb	r3, [r7, #15]
 80012d6:	e044      	b.n	8001362 <HAL_PCD_Init+0x1d2>
 80012d8:	7bfa      	ldrb	r2, [r7, #15]
 80012da:	6879      	ldr	r1, [r7, #4]
 80012dc:	4613      	mov	r3, r2
 80012de:	00db      	lsls	r3, r3, #3
 80012e0:	4413      	add	r3, r2
 80012e2:	009b      	lsls	r3, r3, #2
 80012e4:	440b      	add	r3, r1
 80012e6:	f203 237d 	addw	r3, r3, #637	; 0x27d
 80012ea:	2200      	movs	r2, #0
 80012ec:	701a      	strb	r2, [r3, #0]
 80012ee:	7bfa      	ldrb	r2, [r7, #15]
 80012f0:	6879      	ldr	r1, [r7, #4]
 80012f2:	4613      	mov	r3, r2
 80012f4:	00db      	lsls	r3, r3, #3
 80012f6:	4413      	add	r3, r2
 80012f8:	009b      	lsls	r3, r3, #2
 80012fa:	440b      	add	r3, r1
 80012fc:	f503 731f 	add.w	r3, r3, #636	; 0x27c
 8001300:	7bfa      	ldrb	r2, [r7, #15]
 8001302:	701a      	strb	r2, [r3, #0]
 8001304:	7bfa      	ldrb	r2, [r7, #15]
 8001306:	6879      	ldr	r1, [r7, #4]
 8001308:	4613      	mov	r3, r2
 800130a:	00db      	lsls	r3, r3, #3
 800130c:	4413      	add	r3, r2
 800130e:	009b      	lsls	r3, r3, #2
 8001310:	440b      	add	r3, r1
 8001312:	f503 7320 	add.w	r3, r3, #640	; 0x280
 8001316:	2200      	movs	r2, #0
 8001318:	701a      	strb	r2, [r3, #0]
 800131a:	7bfa      	ldrb	r2, [r7, #15]
 800131c:	6879      	ldr	r1, [r7, #4]
 800131e:	4613      	mov	r3, r2
 8001320:	00db      	lsls	r3, r3, #3
 8001322:	4413      	add	r3, r2
 8001324:	009b      	lsls	r3, r3, #2
 8001326:	440b      	add	r3, r1
 8001328:	f503 7322 	add.w	r3, r3, #648	; 0x288
 800132c:	2200      	movs	r2, #0
 800132e:	601a      	str	r2, [r3, #0]
 8001330:	7bfa      	ldrb	r2, [r7, #15]
 8001332:	6879      	ldr	r1, [r7, #4]
 8001334:	4613      	mov	r3, r2
 8001336:	00db      	lsls	r3, r3, #3
 8001338:	4413      	add	r3, r2
 800133a:	009b      	lsls	r3, r3, #2
 800133c:	440b      	add	r3, r1
 800133e:	f503 7323 	add.w	r3, r3, #652	; 0x28c
 8001342:	2200      	movs	r2, #0
 8001344:	601a      	str	r2, [r3, #0]
 8001346:	7bfa      	ldrb	r2, [r7, #15]
 8001348:	6879      	ldr	r1, [r7, #4]
 800134a:	4613      	mov	r3, r2
 800134c:	00db      	lsls	r3, r3, #3
 800134e:	4413      	add	r3, r2
 8001350:	009b      	lsls	r3, r3, #2
 8001352:	440b      	add	r3, r1
 8001354:	f503 7325 	add.w	r3, r3, #660	; 0x294
 8001358:	2200      	movs	r2, #0
 800135a:	601a      	str	r2, [r3, #0]
 800135c:	7bfb      	ldrb	r3, [r7, #15]
 800135e:	3301      	adds	r3, #1
 8001360:	73fb      	strb	r3, [r7, #15]
 8001362:	7bfa      	ldrb	r2, [r7, #15]
 8001364:	687b      	ldr	r3, [r7, #4]
 8001366:	685b      	ldr	r3, [r3, #4]
 8001368:	429a      	cmp	r2, r3
 800136a:	d3b5      	bcc.n	80012d8 <HAL_PCD_Init+0x148>
 800136c:	687b      	ldr	r3, [r7, #4]
 800136e:	681b      	ldr	r3, [r3, #0]
 8001370:	603b      	str	r3, [r7, #0]
 8001372:	687e      	ldr	r6, [r7, #4]
 8001374:	466d      	mov	r5, sp
 8001376:	f106 0410 	add.w	r4, r6, #16
 800137a:	cc0f      	ldmia	r4!, {r0, r1, r2, r3}
 800137c:	c50f      	stmia	r5!, {r0, r1, r2, r3}
 800137e:	cc0f      	ldmia	r4!, {r0, r1, r2, r3}
 8001380:	c50f      	stmia	r5!, {r0, r1, r2, r3}
 8001382:	e894 0003 	ldmia.w	r4, {r0, r1}
 8001386:	e885 0003 	stmia.w	r5, {r0, r1}
 800138a:	1d33      	adds	r3, r6, #4
 800138c:	cb0e      	ldmia	r3, {r1, r2, r3}
 800138e:	6838      	ldr	r0, [r7, #0]
 8001390:	f002 fa80 	bl	8003894 <USB_DevInit>
 8001394:	4603      	mov	r3, r0
 8001396:	2b00      	cmp	r3, #0
 8001398:	d005      	beq.n	80013a6 <HAL_PCD_Init+0x216>
 800139a:	687b      	ldr	r3, [r7, #4]
 800139c:	2202      	movs	r2, #2
 800139e:	f883 24bd 	strb.w	r2, [r3, #1213]	; 0x4bd
 80013a2:	2301      	movs	r3, #1
 80013a4:	e00d      	b.n	80013c2 <HAL_PCD_Init+0x232>
 80013a6:	687b      	ldr	r3, [r7, #4]
 80013a8:	2200      	movs	r2, #0
 80013aa:	f883 2038 	strb.w	r2, [r3, #56]	; 0x38
 80013ae:	687b      	ldr	r3, [r7, #4]
 80013b0:	2201      	movs	r2, #1
 80013b2:	f883 24bd 	strb.w	r2, [r3, #1213]	; 0x4bd
 80013b6:	687b      	ldr	r3, [r7, #4]
 80013b8:	681b      	ldr	r3, [r3, #0]
 80013ba:	4618      	mov	r0, r3
 80013bc:	f003 fbcf 	bl	8004b5e <USB_DevDisconnect>
 80013c0:	2300      	movs	r3, #0
 80013c2:	4618      	mov	r0, r3
 80013c4:	3714      	adds	r7, #20
 80013c6:	46bd      	mov	sp, r7
 80013c8:	bdf0      	pop	{r4, r5, r6, r7, pc}

080013ca <HAL_PCD_Start>:
 80013ca:	b580      	push	{r7, lr}
 80013cc:	b084      	sub	sp, #16
 80013ce:	af00      	add	r7, sp, #0
 80013d0:	6078      	str	r0, [r7, #4]
 80013d2:	687b      	ldr	r3, [r7, #4]
 80013d4:	681b      	ldr	r3, [r3, #0]
 80013d6:	60fb      	str	r3, [r7, #12]
 80013d8:	687b      	ldr	r3, [r7, #4]
 80013da:	f893 34bc 	ldrb.w	r3, [r3, #1212]	; 0x4bc
 80013de:	2b01      	cmp	r3, #1
 80013e0:	d101      	bne.n	80013e6 <HAL_PCD_Start+0x1c>
 80013e2:	2302      	movs	r3, #2
 80013e4:	e020      	b.n	8001428 <HAL_PCD_Start+0x5e>
 80013e6:	687b      	ldr	r3, [r7, #4]
 80013e8:	2201      	movs	r2, #1
 80013ea:	f883 24bc 	strb.w	r2, [r3, #1212]	; 0x4bc
 80013ee:	687b      	ldr	r3, [r7, #4]
 80013f0:	6a9b      	ldr	r3, [r3, #40]	; 0x28
 80013f2:	2b01      	cmp	r3, #1
 80013f4:	d109      	bne.n	800140a <HAL_PCD_Start+0x40>
 80013f6:	687b      	ldr	r3, [r7, #4]
 80013f8:	699b      	ldr	r3, [r3, #24]
 80013fa:	2b01      	cmp	r3, #1
 80013fc:	d005      	beq.n	800140a <HAL_PCD_Start+0x40>
 80013fe:	68fb      	ldr	r3, [r7, #12]
 8001400:	6b9b      	ldr	r3, [r3, #56]	; 0x38
 8001402:	f443 3280 	orr.w	r2, r3, #65536	; 0x10000
 8001406:	68fb      	ldr	r3, [r7, #12]
 8001408:	639a      	str	r2, [r3, #56]	; 0x38
 800140a:	687b      	ldr	r3, [r7, #4]
 800140c:	681b      	ldr	r3, [r3, #0]
 800140e:	4618      	mov	r0, r3
 8001410:	f002 f9d2 	bl	80037b8 <USB_EnableGlobalInt>
 8001414:	687b      	ldr	r3, [r7, #4]
 8001416:	681b      	ldr	r3, [r3, #0]
 8001418:	4618      	mov	r0, r3
 800141a:	f003 fb7f 	bl	8004b1c <USB_DevConnect>
 800141e:	687b      	ldr	r3, [r7, #4]
 8001420:	2200      	movs	r2, #0
 8001422:	f883 24bc 	strb.w	r2, [r3, #1212]	; 0x4bc
 8001426:	2300      	movs	r3, #0
 8001428:	4618      	mov	r0, r3
 800142a:	3710      	adds	r7, #16
 800142c:	46bd      	mov	sp, r7
 800142e:	bd80      	pop	{r7, pc}

08001430 <HAL_PCD_IRQHandler>:
 8001430:	b590      	push	{r4, r7, lr}
 8001432:	b08d      	sub	sp, #52	; 0x34
 8001434:	af00      	add	r7, sp, #0
 8001436:	6078      	str	r0, [r7, #4]
 8001438:	687b      	ldr	r3, [r7, #4]
 800143a:	681b      	ldr	r3, [r3, #0]
 800143c:	623b      	str	r3, [r7, #32]
 800143e:	6a3b      	ldr	r3, [r7, #32]
 8001440:	61fb      	str	r3, [r7, #28]
 8001442:	687b      	ldr	r3, [r7, #4]
 8001444:	681b      	ldr	r3, [r3, #0]
 8001446:	4618      	mov	r0, r3
 8001448:	f003 fc3d 	bl	8004cc6 <USB_GetMode>
 800144c:	4603      	mov	r3, r0
 800144e:	2b00      	cmp	r3, #0
 8001450:	f040 848a 	bne.w	8001d68 <HAL_PCD_IRQHandler+0x938>
 8001454:	687b      	ldr	r3, [r7, #4]
 8001456:	681b      	ldr	r3, [r3, #0]
 8001458:	4618      	mov	r0, r3
 800145a:	f003 fba1 	bl	8004ba0 <USB_ReadInterrupts>
 800145e:	4603      	mov	r3, r0
 8001460:	2b00      	cmp	r3, #0
 8001462:	f000 8480 	beq.w	8001d66 <HAL_PCD_IRQHandler+0x936>
 8001466:	69fb      	ldr	r3, [r7, #28]
 8001468:	f503 6300 	add.w	r3, r3, #2048	; 0x800
 800146c:	689b      	ldr	r3, [r3, #8]
 800146e:	0a1b      	lsrs	r3, r3, #8
 8001470:	f3c3 020d 	ubfx	r2, r3, #0, #14
 8001474:	687b      	ldr	r3, [r7, #4]
 8001476:	f8c3 24fc 	str.w	r2, [r3, #1276]	; 0x4fc
 800147a:	687b      	ldr	r3, [r7, #4]
 800147c:	681b      	ldr	r3, [r3, #0]
 800147e:	4618      	mov	r0, r3
 8001480:	f003 fb8e 	bl	8004ba0 <USB_ReadInterrupts>
 8001484:	4603      	mov	r3, r0
 8001486:	f003 0302 	and.w	r3, r3, #2
 800148a:	2b02      	cmp	r3, #2
 800148c:	d107      	bne.n	800149e <HAL_PCD_IRQHandler+0x6e>
 800148e:	687b      	ldr	r3, [r7, #4]
 8001490:	681b      	ldr	r3, [r3, #0]
 8001492:	695a      	ldr	r2, [r3, #20]
 8001494:	687b      	ldr	r3, [r7, #4]
 8001496:	681b      	ldr	r3, [r3, #0]
 8001498:	f002 0202 	and.w	r2, r2, #2
 800149c:	615a      	str	r2, [r3, #20]
 800149e:	687b      	ldr	r3, [r7, #4]
 80014a0:	681b      	ldr	r3, [r3, #0]
 80014a2:	4618      	mov	r0, r3
 80014a4:	f003 fb7c 	bl	8004ba0 <USB_ReadInterrupts>
 80014a8:	4603      	mov	r3, r0
 80014aa:	f003 0310 	and.w	r3, r3, #16
 80014ae:	2b10      	cmp	r3, #16
 80014b0:	d161      	bne.n	8001576 <HAL_PCD_IRQHandler+0x146>
 80014b2:	687b      	ldr	r3, [r7, #4]
 80014b4:	681b      	ldr	r3, [r3, #0]
 80014b6:	699a      	ldr	r2, [r3, #24]
 80014b8:	687b      	ldr	r3, [r7, #4]
 80014ba:	681b      	ldr	r3, [r3, #0]
 80014bc:	f022 0210 	bic.w	r2, r2, #16
 80014c0:	619a      	str	r2, [r3, #24]
 80014c2:	6a3b      	ldr	r3, [r7, #32]
 80014c4:	6a1b      	ldr	r3, [r3, #32]
 80014c6:	61bb      	str	r3, [r7, #24]
 80014c8:	69bb      	ldr	r3, [r7, #24]
 80014ca:	f003 020f 	and.w	r2, r3, #15
 80014ce:	4613      	mov	r3, r2
 80014d0:	00db      	lsls	r3, r3, #3
 80014d2:	4413      	add	r3, r2
 80014d4:	009b      	lsls	r3, r3, #2
 80014d6:	f503 731e 	add.w	r3, r3, #632	; 0x278
 80014da:	687a      	ldr	r2, [r7, #4]
 80014dc:	4413      	add	r3, r2
 80014de:	3304      	adds	r3, #4
 80014e0:	617b      	str	r3, [r7, #20]
 80014e2:	69bb      	ldr	r3, [r7, #24]
 80014e4:	0c5b      	lsrs	r3, r3, #17
 80014e6:	f003 030f 	and.w	r3, r3, #15
 80014ea:	2b02      	cmp	r3, #2
 80014ec:	d124      	bne.n	8001538 <HAL_PCD_IRQHandler+0x108>
 80014ee:	69ba      	ldr	r2, [r7, #24]
 80014f0:	f647 73f0 	movw	r3, #32752	; 0x7ff0
 80014f4:	4013      	ands	r3, r2
 80014f6:	2b00      	cmp	r3, #0
 80014f8:	d035      	beq.n	8001566 <HAL_PCD_IRQHandler+0x136>
 80014fa:	697b      	ldr	r3, [r7, #20]
 80014fc:	6919      	ldr	r1, [r3, #16]
 80014fe:	69bb      	ldr	r3, [r7, #24]
 8001500:	091b      	lsrs	r3, r3, #4
 8001502:	b29b      	uxth	r3, r3
 8001504:	f3c3 030a 	ubfx	r3, r3, #0, #11
 8001508:	b29b      	uxth	r3, r3
 800150a:	461a      	mov	r2, r3
 800150c:	6a38      	ldr	r0, [r7, #32]
 800150e:	f003 f9b3 	bl	8004878 <USB_ReadPacket>
 8001512:	697b      	ldr	r3, [r7, #20]
 8001514:	691a      	ldr	r2, [r3, #16]
 8001516:	69bb      	ldr	r3, [r7, #24]
 8001518:	091b      	lsrs	r3, r3, #4
 800151a:	f3c3 030a 	ubfx	r3, r3, #0, #11
 800151e:	441a      	add	r2, r3
 8001520:	697b      	ldr	r3, [r7, #20]
 8001522:	611a      	str	r2, [r3, #16]
 8001524:	697b      	ldr	r3, [r7, #20]
 8001526:	6a1a      	ldr	r2, [r3, #32]
 8001528:	69bb      	ldr	r3, [r7, #24]
 800152a:	091b      	lsrs	r3, r3, #4
 800152c:	f3c3 030a 	ubfx	r3, r3, #0, #11
 8001530:	441a      	add	r2, r3
 8001532:	697b      	ldr	r3, [r7, #20]
 8001534:	621a      	str	r2, [r3, #32]
 8001536:	e016      	b.n	8001566 <HAL_PCD_IRQHandler+0x136>
 8001538:	69bb      	ldr	r3, [r7, #24]
 800153a:	0c5b      	lsrs	r3, r3, #17
 800153c:	f003 030f 	and.w	r3, r3, #15
 8001540:	2b06      	cmp	r3, #6
 8001542:	d110      	bne.n	8001566 <HAL_PCD_IRQHandler+0x136>
 8001544:	687b      	ldr	r3, [r7, #4]
 8001546:	f203 43c4 	addw	r3, r3, #1220	; 0x4c4
 800154a:	2208      	movs	r2, #8
 800154c:	4619      	mov	r1, r3
 800154e:	6a38      	ldr	r0, [r7, #32]
 8001550:	f003 f992 	bl	8004878 <USB_ReadPacket>
 8001554:	697b      	ldr	r3, [r7, #20]
 8001556:	6a1a      	ldr	r2, [r3, #32]
 8001558:	69bb      	ldr	r3, [r7, #24]
 800155a:	091b      	lsrs	r3, r3, #4
 800155c:	f3c3 030a 	ubfx	r3, r3, #0, #11
 8001560:	441a      	add	r2, r3
 8001562:	697b      	ldr	r3, [r7, #20]
 8001564:	621a      	str	r2, [r3, #32]
 8001566:	687b      	ldr	r3, [r7, #4]
 8001568:	681b      	ldr	r3, [r3, #0]
 800156a:	699a      	ldr	r2, [r3, #24]
 800156c:	687b      	ldr	r3, [r7, #4]
 800156e:	681b      	ldr	r3, [r3, #0]
 8001570:	f042 0210 	orr.w	r2, r2, #16
 8001574:	619a      	str	r2, [r3, #24]
 8001576:	687b      	ldr	r3, [r7, #4]
 8001578:	681b      	ldr	r3, [r3, #0]
 800157a:	4618      	mov	r0, r3
 800157c:	f003 fb10 	bl	8004ba0 <USB_ReadInterrupts>
 8001580:	4603      	mov	r3, r0
 8001582:	f403 2300 	and.w	r3, r3, #524288	; 0x80000
 8001586:	f5b3 2f00 	cmp.w	r3, #524288	; 0x80000
 800158a:	f040 80a7 	bne.w	80016dc <HAL_PCD_IRQHandler+0x2ac>
 800158e:	2300      	movs	r3, #0
 8001590:	627b      	str	r3, [r7, #36]	; 0x24
 8001592:	687b      	ldr	r3, [r7, #4]
 8001594:	681b      	ldr	r3, [r3, #0]
 8001596:	4618      	mov	r0, r3
 8001598:	f003 fb15 	bl	8004bc6 <USB_ReadDevAllOutEpInterrupt>
 800159c:	62b8      	str	r0, [r7, #40]	; 0x28
 800159e:	e099      	b.n	80016d4 <HAL_PCD_IRQHandler+0x2a4>
 80015a0:	6abb      	ldr	r3, [r7, #40]	; 0x28
 80015a2:	f003 0301 	and.w	r3, r3, #1
 80015a6:	2b00      	cmp	r3, #0
 80015a8:	f000 808e 	beq.w	80016c8 <HAL_PCD_IRQHandler+0x298>
 80015ac:	687b      	ldr	r3, [r7, #4]
 80015ae:	681b      	ldr	r3, [r3, #0]
 80015b0:	6a7a      	ldr	r2, [r7, #36]	; 0x24
 80015b2:	b2d2      	uxtb	r2, r2
 80015b4:	4611      	mov	r1, r2
 80015b6:	4618      	mov	r0, r3
 80015b8:	f003 fb39 	bl	8004c2e <USB_ReadDevOutEPInterrupt>
 80015bc:	6138      	str	r0, [r7, #16]
 80015be:	693b      	ldr	r3, [r7, #16]
 80015c0:	f003 0301 	and.w	r3, r3, #1
 80015c4:	2b00      	cmp	r3, #0
 80015c6:	d00c      	beq.n	80015e2 <HAL_PCD_IRQHandler+0x1b2>
 80015c8:	6a7b      	ldr	r3, [r7, #36]	; 0x24
 80015ca:	015a      	lsls	r2, r3, #5
 80015cc:	69fb      	ldr	r3, [r7, #28]
 80015ce:	4413      	add	r3, r2
 80015d0:	f503 6330 	add.w	r3, r3, #2816	; 0xb00
 80015d4:	461a      	mov	r2, r3
 80015d6:	2301      	movs	r3, #1
 80015d8:	6093      	str	r3, [r2, #8]
 80015da:	6a79      	ldr	r1, [r7, #36]	; 0x24
 80015dc:	6878      	ldr	r0, [r7, #4]
 80015de:	f000 fec3 	bl	8002368 <PCD_EP_OutXfrComplete_int>
 80015e2:	693b      	ldr	r3, [r7, #16]
 80015e4:	f003 0308 	and.w	r3, r3, #8
 80015e8:	2b00      	cmp	r3, #0
 80015ea:	d00c      	beq.n	8001606 <HAL_PCD_IRQHandler+0x1d6>
 80015ec:	6a7b      	ldr	r3, [r7, #36]	; 0x24
 80015ee:	015a      	lsls	r2, r3, #5
 80015f0:	69fb      	ldr	r3, [r7, #28]
 80015f2:	4413      	add	r3, r2
 80015f4:	f503 6330 	add.w	r3, r3, #2816	; 0xb00
 80015f8:	461a      	mov	r2, r3
 80015fa:	2308      	movs	r3, #8
 80015fc:	6093      	str	r3, [r2, #8]
 80015fe:	6a79      	ldr	r1, [r7, #36]	; 0x24
 8001600:	6878      	ldr	r0, [r7, #4]
 8001602:	f000 ff99 	bl	8002538 <PCD_EP_OutSetupPacket_int>
 8001606:	693b      	ldr	r3, [r7, #16]
 8001608:	f003 0310 	and.w	r3, r3, #16
 800160c:	2b00      	cmp	r3, #0
 800160e:	d008      	beq.n	8001622 <HAL_PCD_IRQHandler+0x1f2>
 8001610:	6a7b      	ldr	r3, [r7, #36]	; 0x24
 8001612:	015a      	lsls	r2, r3, #5
 8001614:	69fb      	ldr	r3, [r7, #28]
 8001616:	4413      	add	r3, r2
 8001618:	f503 6330 	add.w	r3, r3, #2816	; 0xb00
 800161c:	461a      	mov	r2, r3
 800161e:	2310      	movs	r3, #16
 8001620:	6093      	str	r3, [r2, #8]
 8001622:	693b      	ldr	r3, [r7, #16]
 8001624:	f003 0302 	and.w	r3, r3, #2
 8001628:	2b00      	cmp	r3, #0
 800162a:	d030      	beq.n	800168e <HAL_PCD_IRQHandler+0x25e>
 800162c:	6a3b      	ldr	r3, [r7, #32]
 800162e:	695b      	ldr	r3, [r3, #20]
 8001630:	f003 0380 	and.w	r3, r3, #128	; 0x80
 8001634:	2b80      	cmp	r3, #128	; 0x80
 8001636:	d109      	bne.n	800164c <HAL_PCD_IRQHandler+0x21c>
 8001638:	69fb      	ldr	r3, [r7, #28]
 800163a:	f503 6300 	add.w	r3, r3, #2048	; 0x800
 800163e:	685b      	ldr	r3, [r3, #4]
 8001640:	69fa      	ldr	r2, [r7, #28]
 8001642:	f502 6200 	add.w	r2, r2, #2048	; 0x800
 8001646:	f443 6380 	orr.w	r3, r3, #1024	; 0x400
 800164a:	6053      	str	r3, [r2, #4]
 800164c:	6a7a      	ldr	r2, [r7, #36]	; 0x24
 800164e:	4613      	mov	r3, r2
 8001650:	00db      	lsls	r3, r3, #3
 8001652:	4413      	add	r3, r2
 8001654:	009b      	lsls	r3, r3, #2
 8001656:	f503 731e 	add.w	r3, r3, #632	; 0x278
 800165a:	687a      	ldr	r2, [r7, #4]
 800165c:	4413      	add	r3, r2
 800165e:	3304      	adds	r3, #4
 8001660:	617b      	str	r3, [r7, #20]
 8001662:	697b      	ldr	r3, [r7, #20]
 8001664:	78db      	ldrb	r3, [r3, #3]
 8001666:	2b01      	cmp	r3, #1
 8001668:	d108      	bne.n	800167c <HAL_PCD_IRQHandler+0x24c>
 800166a:	697b      	ldr	r3, [r7, #20]
 800166c:	2200      	movs	r2, #0
 800166e:	70da      	strb	r2, [r3, #3]
 8001670:	6a7b      	ldr	r3, [r7, #36]	; 0x24
 8001672:	b2db      	uxtb	r3, r3
 8001674:	4619      	mov	r1, r3
 8001676:	6878      	ldr	r0, [r7, #4]
 8001678:	f005 febc 	bl	80073f4 <HAL_PCD_ISOOUTIncompleteCallback>
 800167c:	6a7b      	ldr	r3, [r7, #36]	; 0x24
 800167e:	015a      	lsls	r2, r3, #5
 8001680:	69fb      	ldr	r3, [r7, #28]
 8001682:	4413      	add	r3, r2
 8001684:	f503 6330 	add.w	r3, r3, #2816	; 0xb00
 8001688:	461a      	mov	r2, r3
 800168a:	2302      	movs	r3, #2
 800168c:	6093      	str	r3, [r2, #8]
 800168e:	693b      	ldr	r3, [r7, #16]
 8001690:	f003 0320 	and.w	r3, r3, #32
 8001694:	2b00      	cmp	r3, #0
 8001696:	d008      	beq.n	80016aa <HAL_PCD_IRQHandler+0x27a>
 8001698:	6a7b      	ldr	r3, [r7, #36]	; 0x24
 800169a:	015a      	lsls	r2, r3, #5
 800169c:	69fb      	ldr	r3, [r7, #28]
 800169e:	4413      	add	r3, r2
 80016a0:	f503 6330 	add.w	r3, r3, #2816	; 0xb00
 80016a4:	461a      	mov	r2, r3
 80016a6:	2320      	movs	r3, #32
 80016a8:	6093      	str	r3, [r2, #8]
 80016aa:	693b      	ldr	r3, [r7, #16]
 80016ac:	f403 5300 	and.w	r3, r3, #8192	; 0x2000
 80016b0:	2b00      	cmp	r3, #0
 80016b2:	d009      	beq.n	80016c8 <HAL_PCD_IRQHandler+0x298>
 80016b4:	6a7b      	ldr	r3, [r7, #36]	; 0x24
 80016b6:	015a      	lsls	r2, r3, #5
 80016b8:	69fb      	ldr	r3, [r7, #28]
 80016ba:	4413      	add	r3, r2
 80016bc:	f503 6330 	add.w	r3, r3, #2816	; 0xb00
 80016c0:	461a      	mov	r2, r3
 80016c2:	f44f 5300 	mov.w	r3, #8192	; 0x2000
 80016c6:	6093      	str	r3, [r2, #8]
 80016c8:	6a7b      	ldr	r3, [r7, #36]	; 0x24
 80016ca:	3301      	adds	r3, #1
 80016cc:	627b      	str	r3, [r7, #36]	; 0x24
 80016ce:	6abb      	ldr	r3, [r7, #40]	; 0x28
 80016d0:	085b      	lsrs	r3, r3, #1
 80016d2:	62bb      	str	r3, [r7, #40]	; 0x28
 80016d4:	6abb      	ldr	r3, [r7, #40]	; 0x28
 80016d6:	2b00      	cmp	r3, #0
 80016d8:	f47f af62 	bne.w	80015a0 <HAL_PCD_IRQHandler+0x170>
 80016dc:	687b      	ldr	r3, [r7, #4]
 80016de:	681b      	ldr	r3, [r3, #0]
 80016e0:	4618      	mov	r0, r3
 80016e2:	f003 fa5d 	bl	8004ba0 <USB_ReadInterrupts>
 80016e6:	4603      	mov	r3, r0
 80016e8:	f403 2380 	and.w	r3, r3, #262144	; 0x40000
 80016ec:	f5b3 2f80 	cmp.w	r3, #262144	; 0x40000
 80016f0:	f040 80db 	bne.w	80018aa <HAL_PCD_IRQHandler+0x47a>
 80016f4:	687b      	ldr	r3, [r7, #4]
 80016f6:	681b      	ldr	r3, [r3, #0]
 80016f8:	4618      	mov	r0, r3
 80016fa:	f003 fa7e 	bl	8004bfa <USB_ReadDevAllInEpInterrupt>
 80016fe:	62b8      	str	r0, [r7, #40]	; 0x28
 8001700:	2300      	movs	r3, #0
 8001702:	627b      	str	r3, [r7, #36]	; 0x24
 8001704:	e0cd      	b.n	80018a2 <HAL_PCD_IRQHandler+0x472>
 8001706:	6abb      	ldr	r3, [r7, #40]	; 0x28
 8001708:	f003 0301 	and.w	r3, r3, #1
 800170c:	2b00      	cmp	r3, #0
 800170e:	f000 80c2 	beq.w	8001896 <HAL_PCD_IRQHandler+0x466>
 8001712:	687b      	ldr	r3, [r7, #4]
 8001714:	681b      	ldr	r3, [r3, #0]
 8001716:	6a7a      	ldr	r2, [r7, #36]	; 0x24
 8001718:	b2d2      	uxtb	r2, r2
 800171a:	4611      	mov	r1, r2
 800171c:	4618      	mov	r0, r3
 800171e:	f003 faa4 	bl	8004c6a <USB_ReadDevInEPInterrupt>
 8001722:	6138      	str	r0, [r7, #16]
 8001724:	693b      	ldr	r3, [r7, #16]
 8001726:	f003 0301 	and.w	r3, r3, #1
 800172a:	2b00      	cmp	r3, #0
 800172c:	d057      	beq.n	80017de <HAL_PCD_IRQHandler+0x3ae>
 800172e:	6a7b      	ldr	r3, [r7, #36]	; 0x24
 8001730:	f003 030f 	and.w	r3, r3, #15
 8001734:	2201      	movs	r2, #1
 8001736:	fa02 f303 	lsl.w	r3, r2, r3
 800173a:	60fb      	str	r3, [r7, #12]
 800173c:	69fb      	ldr	r3, [r7, #28]
 800173e:	f503 6300 	add.w	r3, r3, #2048	; 0x800
 8001742:	6b5a      	ldr	r2, [r3, #52]	; 0x34
 8001744:	68fb      	ldr	r3, [r7, #12]
 8001746:	43db      	mvns	r3, r3
 8001748:	69f9      	ldr	r1, [r7, #28]
 800174a:	f501 6100 	add.w	r1, r1, #2048	; 0x800
 800174e:	4013      	ands	r3, r2
 8001750:	634b      	str	r3, [r1, #52]	; 0x34
 8001752:	6a7b      	ldr	r3, [r7, #36]	; 0x24
 8001754:	015a      	lsls	r2, r3, #5
 8001756:	69fb      	ldr	r3, [r7, #28]
 8001758:	4413      	add	r3, r2
 800175a:	f503 6310 	add.w	r3, r3, #2304	; 0x900
 800175e:	461a      	mov	r2, r3
 8001760:	2301      	movs	r3, #1
 8001762:	6093      	str	r3, [r2, #8]
 8001764:	687b      	ldr	r3, [r7, #4]
 8001766:	691b      	ldr	r3, [r3, #16]
 8001768:	2b01      	cmp	r3, #1
 800176a:	d132      	bne.n	80017d2 <HAL_PCD_IRQHandler+0x3a2>
 800176c:	6879      	ldr	r1, [r7, #4]
 800176e:	6a7a      	ldr	r2, [r7, #36]	; 0x24
 8001770:	4613      	mov	r3, r2
 8001772:	00db      	lsls	r3, r3, #3
 8001774:	4413      	add	r3, r2
 8001776:	009b      	lsls	r3, r3, #2
 8001778:	440b      	add	r3, r1
 800177a:	334c      	adds	r3, #76	; 0x4c
 800177c:	6819      	ldr	r1, [r3, #0]
 800177e:	6878      	ldr	r0, [r7, #4]
 8001780:	6a7a      	ldr	r2, [r7, #36]	; 0x24
 8001782:	4613      	mov	r3, r2
 8001784:	00db      	lsls	r3, r3, #3
 8001786:	4413      	add	r3, r2
 8001788:	009b      	lsls	r3, r3, #2
 800178a:	4403      	add	r3, r0
 800178c:	3348      	adds	r3, #72	; 0x48
 800178e:	681b      	ldr	r3, [r3, #0]
 8001790:	4419      	add	r1, r3
 8001792:	6878      	ldr	r0, [r7, #4]
 8001794:	6a7a      	ldr	r2, [r7, #36]	; 0x24
 8001796:	4613      	mov	r3, r2
 8001798:	00db      	lsls	r3, r3, #3
 800179a:	4413      	add	r3, r2
 800179c:	009b      	lsls	r3, r3, #2
 800179e:	4403      	add	r3, r0
 80017a0:	334c      	adds	r3, #76	; 0x4c
 80017a2:	6019      	str	r1, [r3, #0]
 80017a4:	6a7b      	ldr	r3, [r7, #36]	; 0x24
 80017a6:	2b00      	cmp	r3, #0
 80017a8:	d113      	bne.n	80017d2 <HAL_PCD_IRQHandler+0x3a2>
 80017aa:	6879      	ldr	r1, [r7, #4]
 80017ac:	6a7a      	ldr	r2, [r7, #36]	; 0x24
 80017ae:	4613      	mov	r3, r2
 80017b0:	00db      	lsls	r3, r3, #3
 80017b2:	4413      	add	r3, r2
 80017b4:	009b      	lsls	r3, r3, #2
 80017b6:	440b      	add	r3, r1
 80017b8:	3354      	adds	r3, #84	; 0x54
 80017ba:	681b      	ldr	r3, [r3, #0]
 80017bc:	2b00      	cmp	r3, #0
 80017be:	d108      	bne.n	80017d2 <HAL_PCD_IRQHandler+0x3a2>
 80017c0:	687b      	ldr	r3, [r7, #4]
 80017c2:	6818      	ldr	r0, [r3, #0]
 80017c4:	687b      	ldr	r3, [r7, #4]
 80017c6:	f203 43c4 	addw	r3, r3, #1220	; 0x4c4
 80017ca:	461a      	mov	r2, r3
 80017cc:	2101      	movs	r1, #1
 80017ce:	f003 faab 	bl	8004d28 <USB_EP0_OutStart>
 80017d2:	6a7b      	ldr	r3, [r7, #36]	; 0x24
 80017d4:	b2db      	uxtb	r3, r3
 80017d6:	4619      	mov	r1, r3
 80017d8:	6878      	ldr	r0, [r7, #4]
 80017da:	f005 fd86 	bl	80072ea <HAL_PCD_DataInStageCallback>
 80017de:	693b      	ldr	r3, [r7, #16]
 80017e0:	f003 0308 	and.w	r3, r3, #8
 80017e4:	2b00      	cmp	r3, #0
 80017e6:	d008      	beq.n	80017fa <HAL_PCD_IRQHandler+0x3ca>
 80017e8:	6a7b      	ldr	r3, [r7, #36]	; 0x24
 80017ea:	015a      	lsls	r2, r3, #5
 80017ec:	69fb      	ldr	r3, [r7, #28]
 80017ee:	4413      	add	r3, r2
 80017f0:	f503 6310 	add.w	r3, r3, #2304	; 0x900
 80017f4:	461a      	mov	r2, r3
 80017f6:	2308      	movs	r3, #8
 80017f8:	6093      	str	r3, [r2, #8]
 80017fa:	693b      	ldr	r3, [r7, #16]
 80017fc:	f003 0310 	and.w	r3, r3, #16
 8001800:	2b00      	cmp	r3, #0
 8001802:	d008      	beq.n	8001816 <HAL_PCD_IRQHandler+0x3e6>
 8001804:	6a7b      	ldr	r3, [r7, #36]	; 0x24
 8001806:	015a      	lsls	r2, r3, #5
 8001808:	69fb      	ldr	r3, [r7, #28]
 800180a:	4413      	add	r3, r2
 800180c:	f503 6310 	add.w	r3, r3, #2304	; 0x900
 8001810:	461a      	mov	r2, r3
 8001812:	2310      	movs	r3, #16
 8001814:	6093      	str	r3, [r2, #8]
 8001816:	693b      	ldr	r3, [r7, #16]
 8001818:	f003 0340 	and.w	r3, r3, #64	; 0x40
 800181c:	2b00      	cmp	r3, #0
 800181e:	d008      	beq.n	8001832 <HAL_PCD_IRQHandler+0x402>
 8001820:	6a7b      	ldr	r3, [r7, #36]	; 0x24
 8001822:	015a      	lsls	r2, r3, #5
 8001824:	69fb      	ldr	r3, [r7, #28]
 8001826:	4413      	add	r3, r2
 8001828:	f503 6310 	add.w	r3, r3, #2304	; 0x900
 800182c:	461a      	mov	r2, r3
 800182e:	2340      	movs	r3, #64	; 0x40
 8001830:	6093      	str	r3, [r2, #8]
 8001832:	693b      	ldr	r3, [r7, #16]
 8001834:	f003 0302 	and.w	r3, r3, #2
 8001838:	2b00      	cmp	r3, #0
 800183a:	d023      	beq.n	8001884 <HAL_PCD_IRQHandler+0x454>
 800183c:	6a79      	ldr	r1, [r7, #36]	; 0x24
 800183e:	6a38      	ldr	r0, [r7, #32]
 8001840:	f002 f98c 	bl	8003b5c <USB_FlushTxFifo>
 8001844:	6a7a      	ldr	r2, [r7, #36]	; 0x24
 8001846:	4613      	mov	r3, r2
 8001848:	00db      	lsls	r3, r3, #3
 800184a:	4413      	add	r3, r2
 800184c:	009b      	lsls	r3, r3, #2
 800184e:	3338      	adds	r3, #56	; 0x38
 8001850:	687a      	ldr	r2, [r7, #4]
 8001852:	4413      	add	r3, r2
 8001854:	3304      	adds	r3, #4
 8001856:	617b      	str	r3, [r7, #20]
 8001858:	697b      	ldr	r3, [r7, #20]
 800185a:	78db      	ldrb	r3, [r3, #3]
 800185c:	2b01      	cmp	r3, #1
 800185e:	d108      	bne.n	8001872 <HAL_PCD_IRQHandler+0x442>
 8001860:	697b      	ldr	r3, [r7, #20]
 8001862:	2200      	movs	r2, #0
 8001864:	70da      	strb	r2, [r3, #3]
 8001866:	6a7b      	ldr	r3, [r7, #36]	; 0x24
 8001868:	b2db      	uxtb	r3, r3
 800186a:	4619      	mov	r1, r3
 800186c:	6878      	ldr	r0, [r7, #4]
 800186e:	f005 fdd3 	bl	8007418 <HAL_PCD_ISOINIncompleteCallback>
 8001872:	6a7b      	ldr	r3, [r7, #36]	; 0x24
 8001874:	015a      	lsls	r2, r3, #5
 8001876:	69fb      	ldr	r3, [r7, #28]
 8001878:	4413      	add	r3, r2
 800187a:	f503 6310 	add.w	r3, r3, #2304	; 0x900
 800187e:	461a      	mov	r2, r3
 8001880:	2302      	movs	r3, #2
 8001882:	6093      	str	r3, [r2, #8]
 8001884:	693b      	ldr	r3, [r7, #16]
 8001886:	f003 0380 	and.w	r3, r3, #128	; 0x80
 800188a:	2b00      	cmp	r3, #0
 800188c:	d003      	beq.n	8001896 <HAL_PCD_IRQHandler+0x466>
 800188e:	6a79      	ldr	r1, [r7, #36]	; 0x24
 8001890:	6878      	ldr	r0, [r7, #4]
 8001892:	f000 fcdb 	bl	800224c <PCD_WriteEmptyTxFifo>
 8001896:	6a7b      	ldr	r3, [r7, #36]	; 0x24
 8001898:	3301      	adds	r3, #1
 800189a:	627b      	str	r3, [r7, #36]	; 0x24
 800189c:	6abb      	ldr	r3, [r7, #40]	; 0x28
 800189e:	085b      	lsrs	r3, r3, #1
 80018a0:	62bb      	str	r3, [r7, #40]	; 0x28
 80018a2:	6abb      	ldr	r3, [r7, #40]	; 0x28
 80018a4:	2b00      	cmp	r3, #0
 80018a6:	f47f af2e 	bne.w	8001706 <HAL_PCD_IRQHandler+0x2d6>
 80018aa:	687b      	ldr	r3, [r7, #4]
 80018ac:	681b      	ldr	r3, [r3, #0]
 80018ae:	4618      	mov	r0, r3
 80018b0:	f003 f976 	bl	8004ba0 <USB_ReadInterrupts>
 80018b4:	4603      	mov	r3, r0
 80018b6:	f003 4300 	and.w	r3, r3, #2147483648	; 0x80000000
 80018ba:	f1b3 4f00 	cmp.w	r3, #2147483648	; 0x80000000
 80018be:	d122      	bne.n	8001906 <HAL_PCD_IRQHandler+0x4d6>
 80018c0:	69fb      	ldr	r3, [r7, #28]
 80018c2:	f503 6300 	add.w	r3, r3, #2048	; 0x800
 80018c6:	685b      	ldr	r3, [r3, #4]
 80018c8:	69fa      	ldr	r2, [r7, #28]
 80018ca:	f502 6200 	add.w	r2, r2, #2048	; 0x800
 80018ce:	f023 0301 	bic.w	r3, r3, #1
 80018d2:	6053      	str	r3, [r2, #4]
 80018d4:	687b      	ldr	r3, [r7, #4]
 80018d6:	f893 34f4 	ldrb.w	r3, [r3, #1268]	; 0x4f4
 80018da:	2b01      	cmp	r3, #1
 80018dc:	d108      	bne.n	80018f0 <HAL_PCD_IRQHandler+0x4c0>
 80018de:	687b      	ldr	r3, [r7, #4]
 80018e0:	2200      	movs	r2, #0
 80018e2:	f883 24f4 	strb.w	r2, [r3, #1268]	; 0x4f4
 80018e6:	2100      	movs	r1, #0
 80018e8:	6878      	ldr	r0, [r7, #4]
 80018ea:	f000 fec3 	bl	8002674 <HAL_PCDEx_LPM_Callback>
 80018ee:	e002      	b.n	80018f6 <HAL_PCD_IRQHandler+0x4c6>
 80018f0:	6878      	ldr	r0, [r7, #4]
 80018f2:	f005 fd71 	bl	80073d8 <HAL_PCD_ResumeCallback>
 80018f6:	687b      	ldr	r3, [r7, #4]
 80018f8:	681b      	ldr	r3, [r3, #0]
 80018fa:	695a      	ldr	r2, [r3, #20]
 80018fc:	687b      	ldr	r3, [r7, #4]
 80018fe:	681b      	ldr	r3, [r3, #0]
 8001900:	f002 4200 	and.w	r2, r2, #2147483648	; 0x80000000
 8001904:	615a      	str	r2, [r3, #20]
 8001906:	687b      	ldr	r3, [r7, #4]
 8001908:	681b      	ldr	r3, [r3, #0]
 800190a:	4618      	mov	r0, r3
 800190c:	f003 f948 	bl	8004ba0 <USB_ReadInterrupts>
 8001910:	4603      	mov	r3, r0
 8001912:	f403 6300 	and.w	r3, r3, #2048	; 0x800
 8001916:	f5b3 6f00 	cmp.w	r3, #2048	; 0x800
 800191a:	d112      	bne.n	8001942 <HAL_PCD_IRQHandler+0x512>
 800191c:	69fb      	ldr	r3, [r7, #28]
 800191e:	f503 6300 	add.w	r3, r3, #2048	; 0x800
 8001922:	689b      	ldr	r3, [r3, #8]
 8001924:	f003 0301 	and.w	r3, r3, #1
 8001928:	2b01      	cmp	r3, #1
 800192a:	d102      	bne.n	8001932 <HAL_PCD_IRQHandler+0x502>
 800192c:	6878      	ldr	r0, [r7, #4]
 800192e:	f005 fd2d 	bl	800738c <HAL_PCD_SuspendCallback>
 8001932:	687b      	ldr	r3, [r7, #4]
 8001934:	681b      	ldr	r3, [r3, #0]
 8001936:	695a      	ldr	r2, [r3, #20]
 8001938:	687b      	ldr	r3, [r7, #4]
 800193a:	681b      	ldr	r3, [r3, #0]
 800193c:	f402 6200 	and.w	r2, r2, #2048	; 0x800
 8001940:	615a      	str	r2, [r3, #20]
 8001942:	687b      	ldr	r3, [r7, #4]
 8001944:	681b      	ldr	r3, [r3, #0]
 8001946:	4618      	mov	r0, r3
 8001948:	f003 f92a 	bl	8004ba0 <USB_ReadInterrupts>
 800194c:	4603      	mov	r3, r0
 800194e:	f403 5380 	and.w	r3, r3, #4096	; 0x1000
 8001952:	f5b3 5f80 	cmp.w	r3, #4096	; 0x1000
 8001956:	f040 80b7 	bne.w	8001ac8 <HAL_PCD_IRQHandler+0x698>
 800195a:	69fb      	ldr	r3, [r7, #28]
 800195c:	f503 6300 	add.w	r3, r3, #2048	; 0x800
 8001960:	685b      	ldr	r3, [r3, #4]
 8001962:	69fa      	ldr	r2, [r7, #28]
 8001964:	f502 6200 	add.w	r2, r2, #2048	; 0x800
 8001968:	f023 0301 	bic.w	r3, r3, #1
 800196c:	6053      	str	r3, [r2, #4]
 800196e:	687b      	ldr	r3, [r7, #4]
 8001970:	681b      	ldr	r3, [r3, #0]
 8001972:	2110      	movs	r1, #16
 8001974:	4618      	mov	r0, r3
 8001976:	f002 f8f1 	bl	8003b5c <USB_FlushTxFifo>
 800197a:	2300      	movs	r3, #0
 800197c:	62fb      	str	r3, [r7, #44]	; 0x2c
 800197e:	e046      	b.n	8001a0e <HAL_PCD_IRQHandler+0x5de>
 8001980:	6afb      	ldr	r3, [r7, #44]	; 0x2c
 8001982:	015a      	lsls	r2, r3, #5
 8001984:	69fb      	ldr	r3, [r7, #28]
 8001986:	4413      	add	r3, r2
 8001988:	f503 6310 	add.w	r3, r3, #2304	; 0x900
 800198c:	461a      	mov	r2, r3
 800198e:	f64f 337f 	movw	r3, #64383	; 0xfb7f
 8001992:	6093      	str	r3, [r2, #8]
 8001994:	6afb      	ldr	r3, [r7, #44]	; 0x2c
 8001996:	015a      	lsls	r2, r3, #5
 8001998:	69fb      	ldr	r3, [r7, #28]
 800199a:	4413      	add	r3, r2
 800199c:	f503 6310 	add.w	r3, r3, #2304	; 0x900
 80019a0:	681b      	ldr	r3, [r3, #0]
 80019a2:	6afa      	ldr	r2, [r7, #44]	; 0x2c
 80019a4:	0151      	lsls	r1, r2, #5
 80019a6:	69fa      	ldr	r2, [r7, #28]
 80019a8:	440a      	add	r2, r1
 80019aa:	f502 6210 	add.w	r2, r2, #2304	; 0x900
 80019ae:	f423 1300 	bic.w	r3, r3, #2097152	; 0x200000
 80019b2:	6013      	str	r3, [r2, #0]
 80019b4:	6afb      	ldr	r3, [r7, #44]	; 0x2c
 80019b6:	015a      	lsls	r2, r3, #5
 80019b8:	69fb      	ldr	r3, [r7, #28]
 80019ba:	4413      	add	r3, r2
 80019bc:	f503 6330 	add.w	r3, r3, #2816	; 0xb00
 80019c0:	461a      	mov	r2, r3
 80019c2:	f64f 337f 	movw	r3, #64383	; 0xfb7f
 80019c6:	6093      	str	r3, [r2, #8]
 80019c8:	6afb      	ldr	r3, [r7, #44]	; 0x2c
 80019ca:	015a      	lsls	r2, r3, #5
 80019cc:	69fb      	ldr	r3, [r7, #28]
 80019ce:	4413      	add	r3, r2
 80019d0:	f503 6330 	add.w	r3, r3, #2816	; 0xb00
 80019d4:	681b      	ldr	r3, [r3, #0]
 80019d6:	6afa      	ldr	r2, [r7, #44]	; 0x2c
 80019d8:	0151      	lsls	r1, r2, #5
 80019da:	69fa      	ldr	r2, [r7, #28]
 80019dc:	440a      	add	r2, r1
 80019de:	f502 6230 	add.w	r2, r2, #2816	; 0xb00
 80019e2:	f423 1300 	bic.w	r3, r3, #2097152	; 0x200000
 80019e6:	6013      	str	r3, [r2, #0]
 80019e8:	6afb      	ldr	r3, [r7, #44]	; 0x2c
 80019ea:	015a      	lsls	r2, r3, #5
 80019ec:	69fb      	ldr	r3, [r7, #28]
 80019ee:	4413      	add	r3, r2
 80019f0:	f503 6330 	add.w	r3, r3, #2816	; 0xb00
 80019f4:	681b      	ldr	r3, [r3, #0]
 80019f6:	6afa      	ldr	r2, [r7, #44]	; 0x2c
 80019f8:	0151      	lsls	r1, r2, #5
 80019fa:	69fa      	ldr	r2, [r7, #28]
 80019fc:	440a      	add	r2, r1
 80019fe:	f502 6230 	add.w	r2, r2, #2816	; 0xb00
 8001a02:	f043 6300 	orr.w	r3, r3, #134217728	; 0x8000000
 8001a06:	6013      	str	r3, [r2, #0]
 8001a08:	6afb      	ldr	r3, [r7, #44]	; 0x2c
 8001a0a:	3301      	adds	r3, #1
 8001a0c:	62fb      	str	r3, [r7, #44]	; 0x2c
 8001a0e:	687b      	ldr	r3, [r7, #4]
 8001a10:	685b      	ldr	r3, [r3, #4]
 8001a12:	6afa      	ldr	r2, [r7, #44]	; 0x2c
 8001a14:	429a      	cmp	r2, r3
 8001a16:	d3b3      	bcc.n	8001980 <HAL_PCD_IRQHandler+0x550>
 8001a18:	69fb      	ldr	r3, [r7, #28]
 8001a1a:	f503 6300 	add.w	r3, r3, #2048	; 0x800
 8001a1e:	69db      	ldr	r3, [r3, #28]
 8001a20:	69fa      	ldr	r2, [r7, #28]
 8001a22:	f502 6200 	add.w	r2, r2, #2048	; 0x800
 8001a26:	f043 1301 	orr.w	r3, r3, #65537	; 0x10001
 8001a2a:	61d3      	str	r3, [r2, #28]
 8001a2c:	687b      	ldr	r3, [r7, #4]
 8001a2e:	6b1b      	ldr	r3, [r3, #48]	; 0x30
 8001a30:	2b00      	cmp	r3, #0
 8001a32:	d016      	beq.n	8001a62 <HAL_PCD_IRQHandler+0x632>
 8001a34:	69fb      	ldr	r3, [r7, #28]
 8001a36:	f503 6300 	add.w	r3, r3, #2048	; 0x800
 8001a3a:	f8d3 3084 	ldr.w	r3, [r3, #132]	; 0x84
 8001a3e:	69fa      	ldr	r2, [r7, #28]
 8001a40:	f502 6200 	add.w	r2, r2, #2048	; 0x800
 8001a44:	f043 030b 	orr.w	r3, r3, #11
 8001a48:	f8c2 3084 	str.w	r3, [r2, #132]	; 0x84
 8001a4c:	69fb      	ldr	r3, [r7, #28]
 8001a4e:	f503 6300 	add.w	r3, r3, #2048	; 0x800
 8001a52:	6c5b      	ldr	r3, [r3, #68]	; 0x44
 8001a54:	69fa      	ldr	r2, [r7, #28]
 8001a56:	f502 6200 	add.w	r2, r2, #2048	; 0x800
 8001a5a:	f043 030b 	orr.w	r3, r3, #11
 8001a5e:	6453      	str	r3, [r2, #68]	; 0x44
 8001a60:	e015      	b.n	8001a8e <HAL_PCD_IRQHandler+0x65e>
 8001a62:	69fb      	ldr	r3, [r7, #28]
 8001a64:	f503 6300 	add.w	r3, r3, #2048	; 0x800
 8001a68:	695b      	ldr	r3, [r3, #20]
 8001a6a:	69fa      	ldr	r2, [r7, #28]
 8001a6c:	f502 6200 	add.w	r2, r2, #2048	; 0x800
 8001a70:	f443 5300 	orr.w	r3, r3, #8192	; 0x2000
 8001a74:	f043 032b 	orr.w	r3, r3, #43	; 0x2b
 8001a78:	6153      	str	r3, [r2, #20]
 8001a7a:	69fb      	ldr	r3, [r7, #28]
 8001a7c:	f503 6300 	add.w	r3, r3, #2048	; 0x800
 8001a80:	691b      	ldr	r3, [r3, #16]
 8001a82:	69fa      	ldr	r2, [r7, #28]
 8001a84:	f502 6200 	add.w	r2, r2, #2048	; 0x800
 8001a88:	f043 030b 	orr.w	r3, r3, #11
 8001a8c:	6113      	str	r3, [r2, #16]
 8001a8e:	69fb      	ldr	r3, [r7, #28]
 8001a90:	f503 6300 	add.w	r3, r3, #2048	; 0x800
 8001a94:	681b      	ldr	r3, [r3, #0]
 8001a96:	69fa      	ldr	r2, [r7, #28]
 8001a98:	f502 6200 	add.w	r2, r2, #2048	; 0x800
 8001a9c:	f423 63fe 	bic.w	r3, r3, #2032	; 0x7f0
 8001aa0:	6013      	str	r3, [r2, #0]
 8001aa2:	687b      	ldr	r3, [r7, #4]
 8001aa4:	6818      	ldr	r0, [r3, #0]
 8001aa6:	687b      	ldr	r3, [r7, #4]
 8001aa8:	691b      	ldr	r3, [r3, #16]
 8001aaa:	b2d9      	uxtb	r1, r3
 8001aac:	687b      	ldr	r3, [r7, #4]
 8001aae:	f203 43c4 	addw	r3, r3, #1220	; 0x4c4
 8001ab2:	461a      	mov	r2, r3
 8001ab4:	f003 f938 	bl	8004d28 <USB_EP0_OutStart>
 8001ab8:	687b      	ldr	r3, [r7, #4]
 8001aba:	681b      	ldr	r3, [r3, #0]
 8001abc:	695a      	ldr	r2, [r3, #20]
 8001abe:	687b      	ldr	r3, [r7, #4]
 8001ac0:	681b      	ldr	r3, [r3, #0]
 8001ac2:	f402 5280 	and.w	r2, r2, #4096	; 0x1000
 8001ac6:	615a      	str	r2, [r3, #20]
 8001ac8:	687b      	ldr	r3, [r7, #4]
 8001aca:	681b      	ldr	r3, [r3, #0]
 8001acc:	4618      	mov	r0, r3
 8001ace:	f003 f867 	bl	8004ba0 <USB_ReadInterrupts>
 8001ad2:	4603      	mov	r3, r0
 8001ad4:	f403 5300 	and.w	r3, r3, #8192	; 0x2000
 8001ad8:	f5b3 5f00 	cmp.w	r3, #8192	; 0x2000
 8001adc:	d124      	bne.n	8001b28 <HAL_PCD_IRQHandler+0x6f8>
 8001ade:	687b      	ldr	r3, [r7, #4]
 8001ae0:	681b      	ldr	r3, [r3, #0]
 8001ae2:	4618      	mov	r0, r3
 8001ae4:	f003 f8fd 	bl	8004ce2 <USB_ActivateSetup>
 8001ae8:	687b      	ldr	r3, [r7, #4]
 8001aea:	681b      	ldr	r3, [r3, #0]
 8001aec:	4618      	mov	r0, r3
 8001aee:	f002 f8b2 	bl	8003c56 <USB_GetDevSpeed>
 8001af2:	4603      	mov	r3, r0
 8001af4:	461a      	mov	r2, r3
 8001af6:	687b      	ldr	r3, [r7, #4]
 8001af8:	60da      	str	r2, [r3, #12]
 8001afa:	687b      	ldr	r3, [r7, #4]
 8001afc:	681c      	ldr	r4, [r3, #0]
 8001afe:	f001 fa29 	bl	8002f54 <HAL_RCC_GetHCLKFreq>
 8001b02:	4601      	mov	r1, r0
 8001b04:	687b      	ldr	r3, [r7, #4]
 8001b06:	68db      	ldr	r3, [r3, #12]
 8001b08:	b2db      	uxtb	r3, r3
 8001b0a:	461a      	mov	r2, r3
 8001b0c:	4620      	mov	r0, r4
 8001b0e:	f001 fdb1 	bl	8003674 <USB_SetTurnaroundTime>
 8001b12:	6878      	ldr	r0, [r7, #4]
 8001b14:	f005 fc11 	bl	800733a <HAL_PCD_ResetCallback>
 8001b18:	687b      	ldr	r3, [r7, #4]
 8001b1a:	681b      	ldr	r3, [r3, #0]
 8001b1c:	695a      	ldr	r2, [r3, #20]
 8001b1e:	687b      	ldr	r3, [r7, #4]
 8001b20:	681b      	ldr	r3, [r3, #0]
 8001b22:	f402 5200 	and.w	r2, r2, #8192	; 0x2000
 8001b26:	615a      	str	r2, [r3, #20]
 8001b28:	687b      	ldr	r3, [r7, #4]
 8001b2a:	681b      	ldr	r3, [r3, #0]
 8001b2c:	4618      	mov	r0, r3
 8001b2e:	f003 f837 	bl	8004ba0 <USB_ReadInterrupts>
 8001b32:	4603      	mov	r3, r0
 8001b34:	f003 0308 	and.w	r3, r3, #8
 8001b38:	2b08      	cmp	r3, #8
 8001b3a:	d10a      	bne.n	8001b52 <HAL_PCD_IRQHandler+0x722>
 8001b3c:	6878      	ldr	r0, [r7, #4]
 8001b3e:	f005 fbee 	bl	800731e <HAL_PCD_SOFCallback>
 8001b42:	687b      	ldr	r3, [r7, #4]
 8001b44:	681b      	ldr	r3, [r3, #0]
 8001b46:	695a      	ldr	r2, [r3, #20]
 8001b48:	687b      	ldr	r3, [r7, #4]
 8001b4a:	681b      	ldr	r3, [r3, #0]
 8001b4c:	f002 0208 	and.w	r2, r2, #8
 8001b50:	615a      	str	r2, [r3, #20]
 8001b52:	687b      	ldr	r3, [r7, #4]
 8001b54:	681b      	ldr	r3, [r3, #0]
 8001b56:	4618      	mov	r0, r3
 8001b58:	f003 f822 	bl	8004ba0 <USB_ReadInterrupts>
 8001b5c:	4603      	mov	r3, r0
 8001b5e:	f003 0380 	and.w	r3, r3, #128	; 0x80
 8001b62:	2b80      	cmp	r3, #128	; 0x80
 8001b64:	d122      	bne.n	8001bac <HAL_PCD_IRQHandler+0x77c>
 8001b66:	6a3b      	ldr	r3, [r7, #32]
 8001b68:	699b      	ldr	r3, [r3, #24]
 8001b6a:	f023 0280 	bic.w	r2, r3, #128	; 0x80
 8001b6e:	6a3b      	ldr	r3, [r7, #32]
 8001b70:	619a      	str	r2, [r3, #24]
 8001b72:	2301      	movs	r3, #1
 8001b74:	627b      	str	r3, [r7, #36]	; 0x24
 8001b76:	e014      	b.n	8001ba2 <HAL_PCD_IRQHandler+0x772>
 8001b78:	6879      	ldr	r1, [r7, #4]
 8001b7a:	6a7a      	ldr	r2, [r7, #36]	; 0x24
 8001b7c:	4613      	mov	r3, r2
 8001b7e:	00db      	lsls	r3, r3, #3
 8001b80:	4413      	add	r3, r2
 8001b82:	009b      	lsls	r3, r3, #2
 8001b84:	440b      	add	r3, r1
 8001b86:	f203 237f 	addw	r3, r3, #639	; 0x27f
 8001b8a:	781b      	ldrb	r3, [r3, #0]
 8001b8c:	2b01      	cmp	r3, #1
 8001b8e:	d105      	bne.n	8001b9c <HAL_PCD_IRQHandler+0x76c>
 8001b90:	6a7b      	ldr	r3, [r7, #36]	; 0x24
 8001b92:	b2db      	uxtb	r3, r3
 8001b94:	4619      	mov	r1, r3
 8001b96:	6878      	ldr	r0, [r7, #4]
 8001b98:	f000 fb27 	bl	80021ea <HAL_PCD_EP_Abort>
 8001b9c:	6a7b      	ldr	r3, [r7, #36]	; 0x24
 8001b9e:	3301      	adds	r3, #1
 8001ba0:	627b      	str	r3, [r7, #36]	; 0x24
 8001ba2:	687b      	ldr	r3, [r7, #4]
 8001ba4:	685b      	ldr	r3, [r3, #4]
 8001ba6:	6a7a      	ldr	r2, [r7, #36]	; 0x24
 8001ba8:	429a      	cmp	r2, r3
 8001baa:	d3e5      	bcc.n	8001b78 <HAL_PCD_IRQHandler+0x748>
 8001bac:	687b      	ldr	r3, [r7, #4]
 8001bae:	681b      	ldr	r3, [r3, #0]
 8001bb0:	4618      	mov	r0, r3
 8001bb2:	f002 fff5 	bl	8004ba0 <USB_ReadInterrupts>
 8001bb6:	4603      	mov	r3, r0
 8001bb8:	f403 1380 	and.w	r3, r3, #1048576	; 0x100000
 8001bbc:	f5b3 1f80 	cmp.w	r3, #1048576	; 0x100000
 8001bc0:	d13b      	bne.n	8001c3a <HAL_PCD_IRQHandler+0x80a>
 8001bc2:	2301      	movs	r3, #1
 8001bc4:	627b      	str	r3, [r7, #36]	; 0x24
 8001bc6:	e02b      	b.n	8001c20 <HAL_PCD_IRQHandler+0x7f0>
 8001bc8:	6a7b      	ldr	r3, [r7, #36]	; 0x24
 8001bca:	015a      	lsls	r2, r3, #5
 8001bcc:	69fb      	ldr	r3, [r7, #28]
 8001bce:	4413      	add	r3, r2
 8001bd0:	f503 6310 	add.w	r3, r3, #2304	; 0x900
 8001bd4:	681b      	ldr	r3, [r3, #0]
 8001bd6:	61bb      	str	r3, [r7, #24]
 8001bd8:	6879      	ldr	r1, [r7, #4]
 8001bda:	6a7a      	ldr	r2, [r7, #36]	; 0x24
 8001bdc:	4613      	mov	r3, r2
 8001bde:	00db      	lsls	r3, r3, #3
 8001be0:	4413      	add	r3, r2
 8001be2:	009b      	lsls	r3, r3, #2
 8001be4:	440b      	add	r3, r1
 8001be6:	3340      	adds	r3, #64	; 0x40
 8001be8:	781b      	ldrb	r3, [r3, #0]
 8001bea:	2b01      	cmp	r3, #1
 8001bec:	d115      	bne.n	8001c1a <HAL_PCD_IRQHandler+0x7ea>
 8001bee:	69bb      	ldr	r3, [r7, #24]
 8001bf0:	2b00      	cmp	r3, #0
 8001bf2:	da12      	bge.n	8001c1a <HAL_PCD_IRQHandler+0x7ea>
 8001bf4:	6879      	ldr	r1, [r7, #4]
 8001bf6:	6a7a      	ldr	r2, [r7, #36]	; 0x24
 8001bf8:	4613      	mov	r3, r2
 8001bfa:	00db      	lsls	r3, r3, #3
 8001bfc:	4413      	add	r3, r2
 8001bfe:	009b      	lsls	r3, r3, #2
 8001c00:	440b      	add	r3, r1
 8001c02:	333f      	adds	r3, #63	; 0x3f
 8001c04:	2201      	movs	r2, #1
 8001c06:	701a      	strb	r2, [r3, #0]
 8001c08:	6a7b      	ldr	r3, [r7, #36]	; 0x24
 8001c0a:	b2db      	uxtb	r3, r3
 8001c0c:	f063 037f 	orn	r3, r3, #127	; 0x7f
 8001c10:	b2db      	uxtb	r3, r3
 8001c12:	4619      	mov	r1, r3
 8001c14:	6878      	ldr	r0, [r7, #4]
 8001c16:	f000 fae8 	bl	80021ea <HAL_PCD_EP_Abort>
 8001c1a:	6a7b      	ldr	r3, [r7, #36]	; 0x24
 8001c1c:	3301      	adds	r3, #1
 8001c1e:	627b      	str	r3, [r7, #36]	; 0x24
 8001c20:	687b      	ldr	r3, [r7, #4]
 8001c22:	685b      	ldr	r3, [r3, #4]
 8001c24:	6a7a      	ldr	r2, [r7, #36]	; 0x24
 8001c26:	429a      	cmp	r2, r3
 8001c28:	d3ce      	bcc.n	8001bc8 <HAL_PCD_IRQHandler+0x798>
 8001c2a:	687b      	ldr	r3, [r7, #4]
 8001c2c:	681b      	ldr	r3, [r3, #0]
 8001c2e:	695a      	ldr	r2, [r3, #20]
 8001c30:	687b      	ldr	r3, [r7, #4]
 8001c32:	681b      	ldr	r3, [r3, #0]
 8001c34:	f402 1280 	and.w	r2, r2, #1048576	; 0x100000
 8001c38:	615a      	str	r2, [r3, #20]
 8001c3a:	687b      	ldr	r3, [r7, #4]
 8001c3c:	681b      	ldr	r3, [r3, #0]
 8001c3e:	4618      	mov	r0, r3
 8001c40:	f002 ffae 	bl	8004ba0 <USB_ReadInterrupts>
 8001c44:	4603      	mov	r3, r0
 8001c46:	f403 1300 	and.w	r3, r3, #2097152	; 0x200000
 8001c4a:	f5b3 1f00 	cmp.w	r3, #2097152	; 0x200000
 8001c4e:	d155      	bne.n	8001cfc <HAL_PCD_IRQHandler+0x8cc>
 8001c50:	2301      	movs	r3, #1
 8001c52:	627b      	str	r3, [r7, #36]	; 0x24
 8001c54:	e045      	b.n	8001ce2 <HAL_PCD_IRQHandler+0x8b2>
 8001c56:	6a7b      	ldr	r3, [r7, #36]	; 0x24
 8001c58:	015a      	lsls	r2, r3, #5
 8001c5a:	69fb      	ldr	r3, [r7, #28]
 8001c5c:	4413      	add	r3, r2
 8001c5e:	f503 6330 	add.w	r3, r3, #2816	; 0xb00
 8001c62:	681b      	ldr	r3, [r3, #0]
 8001c64:	61bb      	str	r3, [r7, #24]
 8001c66:	6879      	ldr	r1, [r7, #4]
 8001c68:	6a7a      	ldr	r2, [r7, #36]	; 0x24
 8001c6a:	4613      	mov	r3, r2
 8001c6c:	00db      	lsls	r3, r3, #3
 8001c6e:	4413      	add	r3, r2
 8001c70:	009b      	lsls	r3, r3, #2
 8001c72:	440b      	add	r3, r1
 8001c74:	f503 7320 	add.w	r3, r3, #640	; 0x280
 8001c78:	781b      	ldrb	r3, [r3, #0]
 8001c7a:	2b01      	cmp	r3, #1
 8001c7c:	d12e      	bne.n	8001cdc <HAL_PCD_IRQHandler+0x8ac>
 8001c7e:	69bb      	ldr	r3, [r7, #24]
 8001c80:	2b00      	cmp	r3, #0
 8001c82:	da2b      	bge.n	8001cdc <HAL_PCD_IRQHandler+0x8ac>
 8001c84:	69bb      	ldr	r3, [r7, #24]
 8001c86:	f403 3280 	and.w	r2, r3, #65536	; 0x10000
 8001c8a:	687b      	ldr	r3, [r7, #4]
 8001c8c:	f8d3 34fc 	ldr.w	r3, [r3, #1276]	; 0x4fc
 8001c90:	f003 0301 	and.w	r3, r3, #1
 8001c94:	429a      	cmp	r2, r3
 8001c96:	d121      	bne.n	8001cdc <HAL_PCD_IRQHandler+0x8ac>
 8001c98:	6879      	ldr	r1, [r7, #4]
 8001c9a:	6a7a      	ldr	r2, [r7, #36]	; 0x24
 8001c9c:	4613      	mov	r3, r2
 8001c9e:	00db      	lsls	r3, r3, #3
 8001ca0:	4413      	add	r3, r2
 8001ca2:	009b      	lsls	r3, r3, #2
 8001ca4:	440b      	add	r3, r1
 8001ca6:	f203 237f 	addw	r3, r3, #639	; 0x27f
 8001caa:	2201      	movs	r2, #1
 8001cac:	701a      	strb	r2, [r3, #0]
 8001cae:	6a3b      	ldr	r3, [r7, #32]
 8001cb0:	699b      	ldr	r3, [r3, #24]
 8001cb2:	f043 0280 	orr.w	r2, r3, #128	; 0x80
 8001cb6:	6a3b      	ldr	r3, [r7, #32]
 8001cb8:	619a      	str	r2, [r3, #24]
 8001cba:	6a3b      	ldr	r3, [r7, #32]
 8001cbc:	695b      	ldr	r3, [r3, #20]
 8001cbe:	f003 0380 	and.w	r3, r3, #128	; 0x80
 8001cc2:	2b00      	cmp	r3, #0
 8001cc4:	d10a      	bne.n	8001cdc <HAL_PCD_IRQHandler+0x8ac>
 8001cc6:	69fb      	ldr	r3, [r7, #28]
 8001cc8:	f503 6300 	add.w	r3, r3, #2048	; 0x800
 8001ccc:	685b      	ldr	r3, [r3, #4]
 8001cce:	69fa      	ldr	r2, [r7, #28]
 8001cd0:	f502 6200 	add.w	r2, r2, #2048	; 0x800
 8001cd4:	f443 7300 	orr.w	r3, r3, #512	; 0x200
 8001cd8:	6053      	str	r3, [r2, #4]
 8001cda:	e007      	b.n	8001cec <HAL_PCD_IRQHandler+0x8bc>
 8001cdc:	6a7b      	ldr	r3, [r7, #36]	; 0x24
 8001cde:	3301      	adds	r3, #1
 8001ce0:	627b      	str	r3, [r7, #36]	; 0x24
 8001ce2:	687b      	ldr	r3, [r7, #4]
 8001ce4:	685b      	ldr	r3, [r3, #4]
 8001ce6:	6a7a      	ldr	r2, [r7, #36]	; 0x24
 8001ce8:	429a      	cmp	r2, r3
 8001cea:	d3b4      	bcc.n	8001c56 <HAL_PCD_IRQHandler+0x826>
 8001cec:	687b      	ldr	r3, [r7, #4]
 8001cee:	681b      	ldr	r3, [r3, #0]
 8001cf0:	695a      	ldr	r2, [r3, #20]
 8001cf2:	687b      	ldr	r3, [r7, #4]
 8001cf4:	681b      	ldr	r3, [r3, #0]
 8001cf6:	f402 1200 	and.w	r2, r2, #2097152	; 0x200000
 8001cfa:	615a      	str	r2, [r3, #20]
 8001cfc:	687b      	ldr	r3, [r7, #4]
 8001cfe:	681b      	ldr	r3, [r3, #0]
 8001d00:	4618      	mov	r0, r3
 8001d02:	f002 ff4d 	bl	8004ba0 <USB_ReadInterrupts>
 8001d06:	4603      	mov	r3, r0
 8001d08:	f003 4380 	and.w	r3, r3, #1073741824	; 0x40000000
 8001d0c:	f1b3 4f80 	cmp.w	r3, #1073741824	; 0x40000000
 8001d10:	d10a      	bne.n	8001d28 <HAL_PCD_IRQHandler+0x8f8>
 8001d12:	6878      	ldr	r0, [r7, #4]
 8001d14:	f005 fb92 	bl	800743c <HAL_PCD_ConnectCallback>
 8001d18:	687b      	ldr	r3, [r7, #4]
 8001d1a:	681b      	ldr	r3, [r3, #0]
 8001d1c:	695a      	ldr	r2, [r3, #20]
 8001d1e:	687b      	ldr	r3, [r7, #4]
 8001d20:	681b      	ldr	r3, [r3, #0]
 8001d22:	f002 4280 	and.w	r2, r2, #1073741824	; 0x40000000
 8001d26:	615a      	str	r2, [r3, #20]
 8001d28:	687b      	ldr	r3, [r7, #4]
 8001d2a:	681b      	ldr	r3, [r3, #0]
 8001d2c:	4618      	mov	r0, r3
 8001d2e:	f002 ff37 	bl	8004ba0 <USB_ReadInterrupts>
 8001d32:	4603      	mov	r3, r0
 8001d34:	f003 0304 	and.w	r3, r3, #4
 8001d38:	2b04      	cmp	r3, #4
 8001d3a:	d115      	bne.n	8001d68 <HAL_PCD_IRQHandler+0x938>
 8001d3c:	687b      	ldr	r3, [r7, #4]
 8001d3e:	681b      	ldr	r3, [r3, #0]
 8001d40:	685b      	ldr	r3, [r3, #4]
 8001d42:	61bb      	str	r3, [r7, #24]
 8001d44:	69bb      	ldr	r3, [r7, #24]
 8001d46:	f003 0304 	and.w	r3, r3, #4
 8001d4a:	2b00      	cmp	r3, #0
 8001d4c:	d002      	beq.n	8001d54 <HAL_PCD_IRQHandler+0x924>
 8001d4e:	6878      	ldr	r0, [r7, #4]
 8001d50:	f005 fb82 	bl	8007458 <HAL_PCD_DisconnectCallback>
 8001d54:	687b      	ldr	r3, [r7, #4]
 8001d56:	681b      	ldr	r3, [r3, #0]
 8001d58:	6859      	ldr	r1, [r3, #4]
 8001d5a:	687b      	ldr	r3, [r7, #4]
 8001d5c:	681b      	ldr	r3, [r3, #0]
 8001d5e:	69ba      	ldr	r2, [r7, #24]
 8001d60:	430a      	orrs	r2, r1
 8001d62:	605a      	str	r2, [r3, #4]
 8001d64:	e000      	b.n	8001d68 <HAL_PCD_IRQHandler+0x938>
 8001d66:	bf00      	nop
 8001d68:	3734      	adds	r7, #52	; 0x34
 8001d6a:	46bd      	mov	sp, r7
 8001d6c:	bd90      	pop	{r4, r7, pc}

08001d6e <HAL_PCD_SetAddress>:
 8001d6e:	b580      	push	{r7, lr}
 8001d70:	b082      	sub	sp, #8
 8001d72:	af00      	add	r7, sp, #0
 8001d74:	6078      	str	r0, [r7, #4]
 8001d76:	460b      	mov	r3, r1
 8001d78:	70fb      	strb	r3, [r7, #3]
 8001d7a:	687b      	ldr	r3, [r7, #4]
 8001d7c:	f893 34bc 	ldrb.w	r3, [r3, #1212]	; 0x4bc
 8001d80:	2b01      	cmp	r3, #1
 8001d82:	d101      	bne.n	8001d88 <HAL_PCD_SetAddress+0x1a>
 8001d84:	2302      	movs	r3, #2
 8001d86:	e013      	b.n	8001db0 <HAL_PCD_SetAddress+0x42>
 8001d88:	687b      	ldr	r3, [r7, #4]
 8001d8a:	2201      	movs	r2, #1
 8001d8c:	f883 24bc 	strb.w	r2, [r3, #1212]	; 0x4bc
 8001d90:	687b      	ldr	r3, [r7, #4]
 8001d92:	78fa      	ldrb	r2, [r7, #3]
 8001d94:	f883 2038 	strb.w	r2, [r3, #56]	; 0x38
 8001d98:	687b      	ldr	r3, [r7, #4]
 8001d9a:	681b      	ldr	r3, [r3, #0]
 8001d9c:	78fa      	ldrb	r2, [r7, #3]
 8001d9e:	4611      	mov	r1, r2
 8001da0:	4618      	mov	r0, r3
 8001da2:	f002 fe95 	bl	8004ad0 <USB_SetDevAddress>
 8001da6:	687b      	ldr	r3, [r7, #4]
 8001da8:	2200      	movs	r2, #0
 8001daa:	f883 24bc 	strb.w	r2, [r3, #1212]	; 0x4bc
 8001dae:	2300      	movs	r3, #0
 8001db0:	4618      	mov	r0, r3
 8001db2:	3708      	adds	r7, #8
 8001db4:	46bd      	mov	sp, r7
 8001db6:	bd80      	pop	{r7, pc}

08001db8 <HAL_PCD_EP_Open>:
 8001db8:	b580      	push	{r7, lr}
 8001dba:	b084      	sub	sp, #16
 8001dbc:	af00      	add	r7, sp, #0
 8001dbe:	6078      	str	r0, [r7, #4]
 8001dc0:	4608      	mov	r0, r1
 8001dc2:	4611      	mov	r1, r2
 8001dc4:	461a      	mov	r2, r3
 8001dc6:	4603      	mov	r3, r0
 8001dc8:	70fb      	strb	r3, [r7, #3]
 8001dca:	460b      	mov	r3, r1
 8001dcc:	803b      	strh	r3, [r7, #0]
 8001dce:	4613      	mov	r3, r2
 8001dd0:	70bb      	strb	r3, [r7, #2]
 8001dd2:	2300      	movs	r3, #0
 8001dd4:	72fb      	strb	r3, [r7, #11]
 8001dd6:	f997 3003 	ldrsb.w	r3, [r7, #3]
 8001dda:	2b00      	cmp	r3, #0
 8001ddc:	da0f      	bge.n	8001dfe <HAL_PCD_EP_Open+0x46>
 8001dde:	78fb      	ldrb	r3, [r7, #3]
 8001de0:	f003 020f 	and.w	r2, r3, #15
 8001de4:	4613      	mov	r3, r2
 8001de6:	00db      	lsls	r3, r3, #3
 8001de8:	4413      	add	r3, r2
 8001dea:	009b      	lsls	r3, r3, #2
 8001dec:	3338      	adds	r3, #56	; 0x38
 8001dee:	687a      	ldr	r2, [r7, #4]
 8001df0:	4413      	add	r3, r2
 8001df2:	3304      	adds	r3, #4
 8001df4:	60fb      	str	r3, [r7, #12]
 8001df6:	68fb      	ldr	r3, [r7, #12]
 8001df8:	2201      	movs	r2, #1
 8001dfa:	705a      	strb	r2, [r3, #1]
 8001dfc:	e00f      	b.n	8001e1e <HAL_PCD_EP_Open+0x66>
 8001dfe:	78fb      	ldrb	r3, [r7, #3]
 8001e00:	f003 020f 	and.w	r2, r3, #15
 8001e04:	4613      	mov	r3, r2
 8001e06:	00db      	lsls	r3, r3, #3
 8001e08:	4413      	add	r3, r2
 8001e0a:	009b      	lsls	r3, r3, #2
 8001e0c:	f503 731e 	add.w	r3, r3, #632	; 0x278
 8001e10:	687a      	ldr	r2, [r7, #4]
 8001e12:	4413      	add	r3, r2
 8001e14:	3304      	adds	r3, #4
 8001e16:	60fb      	str	r3, [r7, #12]
 8001e18:	68fb      	ldr	r3, [r7, #12]
 8001e1a:	2200      	movs	r2, #0
 8001e1c:	705a      	strb	r2, [r3, #1]
 8001e1e:	78fb      	ldrb	r3, [r7, #3]
 8001e20:	f003 030f 	and.w	r3, r3, #15
 8001e24:	b2da      	uxtb	r2, r3
 8001e26:	68fb      	ldr	r3, [r7, #12]
 8001e28:	701a      	strb	r2, [r3, #0]
 8001e2a:	883a      	ldrh	r2, [r7, #0]
 8001e2c:	68fb      	ldr	r3, [r7, #12]
 8001e2e:	60da      	str	r2, [r3, #12]
 8001e30:	68fb      	ldr	r3, [r7, #12]
 8001e32:	78ba      	ldrb	r2, [r7, #2]
 8001e34:	711a      	strb	r2, [r3, #4]
 8001e36:	68fb      	ldr	r3, [r7, #12]
 8001e38:	785b      	ldrb	r3, [r3, #1]
 8001e3a:	2b00      	cmp	r3, #0
 8001e3c:	d004      	beq.n	8001e48 <HAL_PCD_EP_Open+0x90>
 8001e3e:	68fb      	ldr	r3, [r7, #12]
 8001e40:	781b      	ldrb	r3, [r3, #0]
 8001e42:	b29a      	uxth	r2, r3
 8001e44:	68fb      	ldr	r3, [r7, #12]
 8001e46:	811a      	strh	r2, [r3, #8]
 8001e48:	78bb      	ldrb	r3, [r7, #2]
 8001e4a:	2b02      	cmp	r3, #2
 8001e4c:	d102      	bne.n	8001e54 <HAL_PCD_EP_Open+0x9c>
 8001e4e:	68fb      	ldr	r3, [r7, #12]
 8001e50:	2200      	movs	r2, #0
 8001e52:	715a      	strb	r2, [r3, #5]
 8001e54:	687b      	ldr	r3, [r7, #4]
 8001e56:	f893 34bc 	ldrb.w	r3, [r3, #1212]	; 0x4bc
 8001e5a:	2b01      	cmp	r3, #1
 8001e5c:	d101      	bne.n	8001e62 <HAL_PCD_EP_Open+0xaa>
 8001e5e:	2302      	movs	r3, #2
 8001e60:	e00e      	b.n	8001e80 <HAL_PCD_EP_Open+0xc8>
 8001e62:	687b      	ldr	r3, [r7, #4]
 8001e64:	2201      	movs	r2, #1
 8001e66:	f883 24bc 	strb.w	r2, [r3, #1212]	; 0x4bc
 8001e6a:	687b      	ldr	r3, [r7, #4]
 8001e6c:	681b      	ldr	r3, [r3, #0]
 8001e6e:	68f9      	ldr	r1, [r7, #12]
 8001e70:	4618      	mov	r0, r3
 8001e72:	f001 ff15 	bl	8003ca0 <USB_ActivateEndpoint>
 8001e76:	687b      	ldr	r3, [r7, #4]
 8001e78:	2200      	movs	r2, #0
 8001e7a:	f883 24bc 	strb.w	r2, [r3, #1212]	; 0x4bc
 8001e7e:	7afb      	ldrb	r3, [r7, #11]
 8001e80:	4618      	mov	r0, r3
 8001e82:	3710      	adds	r7, #16
 8001e84:	46bd      	mov	sp, r7
 8001e86:	bd80      	pop	{r7, pc}

08001e88 <HAL_PCD_EP_Close>:
 8001e88:	b580      	push	{r7, lr}
 8001e8a:	b084      	sub	sp, #16
 8001e8c:	af00      	add	r7, sp, #0
 8001e8e:	6078      	str	r0, [r7, #4]
 8001e90:	460b      	mov	r3, r1
 8001e92:	70fb      	strb	r3, [r7, #3]
 8001e94:	f997 3003 	ldrsb.w	r3, [r7, #3]
 8001e98:	2b00      	cmp	r3, #0
 8001e9a:	da0f      	bge.n	8001ebc <HAL_PCD_EP_Close+0x34>
 8001e9c:	78fb      	ldrb	r3, [r7, #3]
 8001e9e:	f003 020f 	and.w	r2, r3, #15
 8001ea2:	4613      	mov	r3, r2
 8001ea4:	00db      	lsls	r3, r3, #3
 8001ea6:	4413      	add	r3, r2
 8001ea8:	009b      	lsls	r3, r3, #2
 8001eaa:	3338      	adds	r3, #56	; 0x38
 8001eac:	687a      	ldr	r2, [r7, #4]
 8001eae:	4413      	add	r3, r2
 8001eb0:	3304      	adds	r3, #4
 8001eb2:	60fb      	str	r3, [r7, #12]
 8001eb4:	68fb      	ldr	r3, [r7, #12]
 8001eb6:	2201      	movs	r2, #1
 8001eb8:	705a      	strb	r2, [r3, #1]
 8001eba:	e00f      	b.n	8001edc <HAL_PCD_EP_Close+0x54>
 8001ebc:	78fb      	ldrb	r3, [r7, #3]
 8001ebe:	f003 020f 	and.w	r2, r3, #15
 8001ec2:	4613      	mov	r3, r2
 8001ec4:	00db      	lsls	r3, r3, #3
 8001ec6:	4413      	add	r3, r2
 8001ec8:	009b      	lsls	r3, r3, #2
 8001eca:	f503 731e 	add.w	r3, r3, #632	; 0x278
 8001ece:	687a      	ldr	r2, [r7, #4]
 8001ed0:	4413      	add	r3, r2
 8001ed2:	3304      	adds	r3, #4
 8001ed4:	60fb      	str	r3, [r7, #12]
 8001ed6:	68fb      	ldr	r3, [r7, #12]
 8001ed8:	2200      	movs	r2, #0
 8001eda:	705a      	strb	r2, [r3, #1]
 8001edc:	78fb      	ldrb	r3, [r7, #3]
 8001ede:	f003 030f 	and.w	r3, r3, #15
 8001ee2:	b2da      	uxtb	r2, r3
 8001ee4:	68fb      	ldr	r3, [r7, #12]
 8001ee6:	701a      	strb	r2, [r3, #0]
 8001ee8:	687b      	ldr	r3, [r7, #4]
 8001eea:	f893 34bc 	ldrb.w	r3, [r3, #1212]	; 0x4bc
 8001eee:	2b01      	cmp	r3, #1
 8001ef0:	d101      	bne.n	8001ef6 <HAL_PCD_EP_Close+0x6e>
 8001ef2:	2302      	movs	r3, #2
 8001ef4:	e00e      	b.n	8001f14 <HAL_PCD_EP_Close+0x8c>
 8001ef6:	687b      	ldr	r3, [r7, #4]
 8001ef8:	2201      	movs	r2, #1
 8001efa:	f883 24bc 	strb.w	r2, [r3, #1212]	; 0x4bc
 8001efe:	687b      	ldr	r3, [r7, #4]
 8001f00:	681b      	ldr	r3, [r3, #0]
 8001f02:	68f9      	ldr	r1, [r7, #12]
 8001f04:	4618      	mov	r0, r3
 8001f06:	f001 ff53 	bl	8003db0 <USB_DeactivateEndpoint>
 8001f0a:	687b      	ldr	r3, [r7, #4]
 8001f0c:	2200      	movs	r2, #0
 8001f0e:	f883 24bc 	strb.w	r2, [r3, #1212]	; 0x4bc
 8001f12:	2300      	movs	r3, #0
 8001f14:	4618      	mov	r0, r3
 8001f16:	3710      	adds	r7, #16
 8001f18:	46bd      	mov	sp, r7
 8001f1a:	bd80      	pop	{r7, pc}

08001f1c <HAL_PCD_EP_Receive>:
 8001f1c:	b580      	push	{r7, lr}
 8001f1e:	b086      	sub	sp, #24
 8001f20:	af00      	add	r7, sp, #0
 8001f22:	60f8      	str	r0, [r7, #12]
 8001f24:	607a      	str	r2, [r7, #4]
 8001f26:	603b      	str	r3, [r7, #0]
 8001f28:	460b      	mov	r3, r1
 8001f2a:	72fb      	strb	r3, [r7, #11]
 8001f2c:	7afb      	ldrb	r3, [r7, #11]
 8001f2e:	f003 020f 	and.w	r2, r3, #15
 8001f32:	4613      	mov	r3, r2
 8001f34:	00db      	lsls	r3, r3, #3
 8001f36:	4413      	add	r3, r2
 8001f38:	009b      	lsls	r3, r3, #2
 8001f3a:	f503 731e 	add.w	r3, r3, #632	; 0x278
 8001f3e:	68fa      	ldr	r2, [r7, #12]
 8001f40:	4413      	add	r3, r2
 8001f42:	3304      	adds	r3, #4
 8001f44:	617b      	str	r3, [r7, #20]
 8001f46:	697b      	ldr	r3, [r7, #20]
 8001f48:	687a      	ldr	r2, [r7, #4]
 8001f4a:	611a      	str	r2, [r3, #16]
 8001f4c:	697b      	ldr	r3, [r7, #20]
 8001f4e:	683a      	ldr	r2, [r7, #0]
 8001f50:	619a      	str	r2, [r3, #24]
 8001f52:	697b      	ldr	r3, [r7, #20]
 8001f54:	2200      	movs	r2, #0
 8001f56:	621a      	str	r2, [r3, #32]
 8001f58:	697b      	ldr	r3, [r7, #20]
 8001f5a:	2200      	movs	r2, #0
 8001f5c:	705a      	strb	r2, [r3, #1]
 8001f5e:	7afb      	ldrb	r3, [r7, #11]
 8001f60:	f003 030f 	and.w	r3, r3, #15
 8001f64:	b2da      	uxtb	r2, r3
 8001f66:	697b      	ldr	r3, [r7, #20]
 8001f68:	701a      	strb	r2, [r3, #0]
 8001f6a:	68fb      	ldr	r3, [r7, #12]
 8001f6c:	691b      	ldr	r3, [r3, #16]
 8001f6e:	2b01      	cmp	r3, #1
 8001f70:	d102      	bne.n	8001f78 <HAL_PCD_EP_Receive+0x5c>
 8001f72:	687a      	ldr	r2, [r7, #4]
 8001f74:	697b      	ldr	r3, [r7, #20]
 8001f76:	615a      	str	r2, [r3, #20]
 8001f78:	7afb      	ldrb	r3, [r7, #11]
 8001f7a:	f003 030f 	and.w	r3, r3, #15
 8001f7e:	2b00      	cmp	r3, #0
 8001f80:	d109      	bne.n	8001f96 <HAL_PCD_EP_Receive+0x7a>
 8001f82:	68fb      	ldr	r3, [r7, #12]
 8001f84:	6818      	ldr	r0, [r3, #0]
 8001f86:	68fb      	ldr	r3, [r7, #12]
 8001f88:	691b      	ldr	r3, [r3, #16]
 8001f8a:	b2db      	uxtb	r3, r3
 8001f8c:	461a      	mov	r2, r3
 8001f8e:	6979      	ldr	r1, [r7, #20]
 8001f90:	f002 fa32 	bl	80043f8 <USB_EP0StartXfer>
 8001f94:	e008      	b.n	8001fa8 <HAL_PCD_EP_Receive+0x8c>
 8001f96:	68fb      	ldr	r3, [r7, #12]
 8001f98:	6818      	ldr	r0, [r3, #0]
 8001f9a:	68fb      	ldr	r3, [r7, #12]
 8001f9c:	691b      	ldr	r3, [r3, #16]
 8001f9e:	b2db      	uxtb	r3, r3
 8001fa0:	461a      	mov	r2, r3
 8001fa2:	6979      	ldr	r1, [r7, #20]
 8001fa4:	f001 ffe0 	bl	8003f68 <USB_EPStartXfer>
 8001fa8:	2300      	movs	r3, #0
 8001faa:	4618      	mov	r0, r3
 8001fac:	3718      	adds	r7, #24
 8001fae:	46bd      	mov	sp, r7
 8001fb0:	bd80      	pop	{r7, pc}

08001fb2 <HAL_PCD_EP_GetRxCount>:
 8001fb2:	b480      	push	{r7}
 8001fb4:	b083      	sub	sp, #12
 8001fb6:	af00      	add	r7, sp, #0
 8001fb8:	6078      	str	r0, [r7, #4]
 8001fba:	460b      	mov	r3, r1
 8001fbc:	70fb      	strb	r3, [r7, #3]
 8001fbe:	78fb      	ldrb	r3, [r7, #3]
 8001fc0:	f003 020f 	and.w	r2, r3, #15
 8001fc4:	6879      	ldr	r1, [r7, #4]
 8001fc6:	4613      	mov	r3, r2
 8001fc8:	00db      	lsls	r3, r3, #3
 8001fca:	4413      	add	r3, r2
 8001fcc:	009b      	lsls	r3, r3, #2
 8001fce:	440b      	add	r3, r1
 8001fd0:	f503 7327 	add.w	r3, r3, #668	; 0x29c
 8001fd4:	681b      	ldr	r3, [r3, #0]
 8001fd6:	4618      	mov	r0, r3
 8001fd8:	370c      	adds	r7, #12
 8001fda:	46bd      	mov	sp, r7
 8001fdc:	f85d 7b04 	ldr.w	r7, [sp], #4
 8001fe0:	4770      	bx	lr

08001fe2 <HAL_PCD_EP_Transmit>:
 8001fe2:	b580      	push	{r7, lr}
 8001fe4:	b086      	sub	sp, #24
 8001fe6:	af00      	add	r7, sp, #0
 8001fe8:	60f8      	str	r0, [r7, #12]
 8001fea:	607a      	str	r2, [r7, #4]
 8001fec:	603b      	str	r3, [r7, #0]
 8001fee:	460b      	mov	r3, r1
 8001ff0:	72fb      	strb	r3, [r7, #11]
 8001ff2:	7afb      	ldrb	r3, [r7, #11]
 8001ff4:	f003 020f 	and.w	r2, r3, #15
 8001ff8:	4613      	mov	r3, r2
 8001ffa:	00db      	lsls	r3, r3, #3
 8001ffc:	4413      	add	r3, r2
 8001ffe:	009b      	lsls	r3, r3, #2
 8002000:	3338      	adds	r3, #56	; 0x38
 8002002:	68fa      	ldr	r2, [r7, #12]
 8002004:	4413      	add	r3, r2
 8002006:	3304      	adds	r3, #4
 8002008:	617b      	str	r3, [r7, #20]
 800200a:	697b      	ldr	r3, [r7, #20]
 800200c:	687a      	ldr	r2, [r7, #4]
 800200e:	611a      	str	r2, [r3, #16]
 8002010:	697b      	ldr	r3, [r7, #20]
 8002012:	683a      	ldr	r2, [r7, #0]
 8002014:	619a      	str	r2, [r3, #24]
 8002016:	697b      	ldr	r3, [r7, #20]
 8002018:	2200      	movs	r2, #0
 800201a:	621a      	str	r2, [r3, #32]
 800201c:	697b      	ldr	r3, [r7, #20]
 800201e:	2201      	movs	r2, #1
 8002020:	705a      	strb	r2, [r3, #1]
 8002022:	7afb      	ldrb	r3, [r7, #11]
 8002024:	f003 030f 	and.w	r3, r3, #15
 8002028:	b2da      	uxtb	r2, r3
 800202a:	697b      	ldr	r3, [r7, #20]
 800202c:	701a      	strb	r2, [r3, #0]
 800202e:	68fb      	ldr	r3, [r7, #12]
 8002030:	691b      	ldr	r3, [r3, #16]
 8002032:	2b01      	cmp	r3, #1
 8002034:	d102      	bne.n	800203c <HAL_PCD_EP_Transmit+0x5a>
 8002036:	687a      	ldr	r2, [r7, #4]
 8002038:	697b      	ldr	r3, [r7, #20]
 800203a:	615a      	str	r2, [r3, #20]
 800203c:	7afb      	ldrb	r3, [r7, #11]
 800203e:	f003 030f 	and.w	r3, r3, #15
 8002042:	2b00      	cmp	r3, #0
 8002044:	d109      	bne.n	800205a <HAL_PCD_EP_Transmit+0x78>
 8002046:	68fb      	ldr	r3, [r7, #12]
 8002048:	6818      	ldr	r0, [r3, #0]
 800204a:	68fb      	ldr	r3, [r7, #12]
 800204c:	691b      	ldr	r3, [r3, #16]
 800204e:	b2db      	uxtb	r3, r3
 8002050:	461a      	mov	r2, r3
 8002052:	6979      	ldr	r1, [r7, #20]
 8002054:	f002 f9d0 	bl	80043f8 <USB_EP0StartXfer>
 8002058:	e008      	b.n	800206c <HAL_PCD_EP_Transmit+0x8a>
 800205a:	68fb      	ldr	r3, [r7, #12]
 800205c:	6818      	ldr	r0, [r3, #0]
 800205e:	68fb      	ldr	r3, [r7, #12]
 8002060:	691b      	ldr	r3, [r3, #16]
 8002062:	b2db      	uxtb	r3, r3
 8002064:	461a      	mov	r2, r3
 8002066:	6979      	ldr	r1, [r7, #20]
 8002068:	f001 ff7e 	bl	8003f68 <USB_EPStartXfer>
 800206c:	2300      	movs	r3, #0
 800206e:	4618      	mov	r0, r3
 8002070:	3718      	adds	r7, #24
 8002072:	46bd      	mov	sp, r7
 8002074:	bd80      	pop	{r7, pc}

08002076 <HAL_PCD_EP_SetStall>:
 8002076:	b580      	push	{r7, lr}
 8002078:	b084      	sub	sp, #16
 800207a:	af00      	add	r7, sp, #0
 800207c:	6078      	str	r0, [r7, #4]
 800207e:	460b      	mov	r3, r1
 8002080:	70fb      	strb	r3, [r7, #3]
 8002082:	78fb      	ldrb	r3, [r7, #3]
 8002084:	f003 020f 	and.w	r2, r3, #15
 8002088:	687b      	ldr	r3, [r7, #4]
 800208a:	685b      	ldr	r3, [r3, #4]
 800208c:	429a      	cmp	r2, r3
 800208e:	d901      	bls.n	8002094 <HAL_PCD_EP_SetStall+0x1e>
 8002090:	2301      	movs	r3, #1
 8002092:	e050      	b.n	8002136 <HAL_PCD_EP_SetStall+0xc0>
 8002094:	f997 3003 	ldrsb.w	r3, [r7, #3]
 8002098:	2b00      	cmp	r3, #0
 800209a:	da0f      	bge.n	80020bc <HAL_PCD_EP_SetStall+0x46>
 800209c:	78fb      	ldrb	r3, [r7, #3]
 800209e:	f003 020f 	and.w	r2, r3, #15
 80020a2:	4613      	mov	r3, r2
 80020a4:	00db      	lsls	r3, r3, #3
 80020a6:	4413      	add	r3, r2
 80020a8:	009b      	lsls	r3, r3, #2
 80020aa:	3338      	adds	r3, #56	; 0x38
 80020ac:	687a      	ldr	r2, [r7, #4]
 80020ae:	4413      	add	r3, r2
 80020b0:	3304      	adds	r3, #4
 80020b2:	60fb      	str	r3, [r7, #12]
 80020b4:	68fb      	ldr	r3, [r7, #12]
 80020b6:	2201      	movs	r2, #1
 80020b8:	705a      	strb	r2, [r3, #1]
 80020ba:	e00d      	b.n	80020d8 <HAL_PCD_EP_SetStall+0x62>
 80020bc:	78fa      	ldrb	r2, [r7, #3]
 80020be:	4613      	mov	r3, r2
 80020c0:	00db      	lsls	r3, r3, #3
 80020c2:	4413      	add	r3, r2
 80020c4:	009b      	lsls	r3, r3, #2
 80020c6:	f503 731e 	add.w	r3, r3, #632	; 0x278
 80020ca:	687a      	ldr	r2, [r7, #4]
 80020cc:	4413      	add	r3, r2
 80020ce:	3304      	adds	r3, #4
 80020d0:	60fb      	str	r3, [r7, #12]
 80020d2:	68fb      	ldr	r3, [r7, #12]
 80020d4:	2200      	movs	r2, #0
 80020d6:	705a      	strb	r2, [r3, #1]
 80020d8:	68fb      	ldr	r3, [r7, #12]
 80020da:	2201      	movs	r2, #1
 80020dc:	709a      	strb	r2, [r3, #2]
 80020de:	78fb      	ldrb	r3, [r7, #3]
 80020e0:	f003 030f 	and.w	r3, r3, #15
 80020e4:	b2da      	uxtb	r2, r3
 80020e6:	68fb      	ldr	r3, [r7, #12]
 80020e8:	701a      	strb	r2, [r3, #0]
 80020ea:	687b      	ldr	r3, [r7, #4]
 80020ec:	f893 34bc 	ldrb.w	r3, [r3, #1212]	; 0x4bc
 80020f0:	2b01      	cmp	r3, #1
 80020f2:	d101      	bne.n	80020f8 <HAL_PCD_EP_SetStall+0x82>
 80020f4:	2302      	movs	r3, #2
 80020f6:	e01e      	b.n	8002136 <HAL_PCD_EP_SetStall+0xc0>
 80020f8:	687b      	ldr	r3, [r7, #4]
 80020fa:	2201      	movs	r2, #1
 80020fc:	f883 24bc 	strb.w	r2, [r3, #1212]	; 0x4bc
 8002100:	687b      	ldr	r3, [r7, #4]
 8002102:	681b      	ldr	r3, [r3, #0]
 8002104:	68f9      	ldr	r1, [r7, #12]
 8002106:	4618      	mov	r0, r3
 8002108:	f002 fc0e 	bl	8004928 <USB_EPSetStall>
 800210c:	78fb      	ldrb	r3, [r7, #3]
 800210e:	f003 030f 	and.w	r3, r3, #15
 8002112:	2b00      	cmp	r3, #0
 8002114:	d10a      	bne.n	800212c <HAL_PCD_EP_SetStall+0xb6>
 8002116:	687b      	ldr	r3, [r7, #4]
 8002118:	6818      	ldr	r0, [r3, #0]
 800211a:	687b      	ldr	r3, [r7, #4]
 800211c:	691b      	ldr	r3, [r3, #16]
 800211e:	b2d9      	uxtb	r1, r3
 8002120:	687b      	ldr	r3, [r7, #4]
 8002122:	f203 43c4 	addw	r3, r3, #1220	; 0x4c4
 8002126:	461a      	mov	r2, r3
 8002128:	f002 fdfe 	bl	8004d28 <USB_EP0_OutStart>
 800212c:	687b      	ldr	r3, [r7, #4]
 800212e:	2200      	movs	r2, #0
 8002130:	f883 24bc 	strb.w	r2, [r3, #1212]	; 0x4bc
 8002134:	2300      	movs	r3, #0
 8002136:	4618      	mov	r0, r3
 8002138:	3710      	adds	r7, #16
 800213a:	46bd      	mov	sp, r7
 800213c:	bd80      	pop	{r7, pc}

0800213e <HAL_PCD_EP_ClrStall>:
 800213e:	b580      	push	{r7, lr}
 8002140:	b084      	sub	sp, #16
 8002142:	af00      	add	r7, sp, #0
 8002144:	6078      	str	r0, [r7, #4]
 8002146:	460b      	mov	r3, r1
 8002148:	70fb      	strb	r3, [r7, #3]
 800214a:	78fb      	ldrb	r3, [r7, #3]
 800214c:	f003 020f 	and.w	r2, r3, #15
 8002150:	687b      	ldr	r3, [r7, #4]
 8002152:	685b      	ldr	r3, [r3, #4]
 8002154:	429a      	cmp	r2, r3
 8002156:	d901      	bls.n	800215c <HAL_PCD_EP_ClrStall+0x1e>
 8002158:	2301      	movs	r3, #1
 800215a:	e042      	b.n	80021e2 <HAL_PCD_EP_ClrStall+0xa4>
 800215c:	f997 3003 	ldrsb.w	r3, [r7, #3]
 8002160:	2b00      	cmp	r3, #0
 8002162:	da0f      	bge.n	8002184 <HAL_PCD_EP_ClrStall+0x46>
 8002164:	78fb      	ldrb	r3, [r7, #3]
 8002166:	f003 020f 	and.w	r2, r3, #15
 800216a:	4613      	mov	r3, r2
 800216c:	00db      	lsls	r3, r3, #3
 800216e:	4413      	add	r3, r2
 8002170:	009b      	lsls	r3, r3, #2
 8002172:	3338      	adds	r3, #56	; 0x38
 8002174:	687a      	ldr	r2, [r7, #4]
 8002176:	4413      	add	r3, r2
 8002178:	3304      	adds	r3, #4
 800217a:	60fb      	str	r3, [r7, #12]
 800217c:	68fb      	ldr	r3, [r7, #12]
 800217e:	2201      	movs	r2, #1
 8002180:	705a      	strb	r2, [r3, #1]
 8002182:	e00f      	b.n	80021a4 <HAL_PCD_EP_ClrStall+0x66>
 8002184:	78fb      	ldrb	r3, [r7, #3]
 8002186:	f003 020f 	and.w	r2, r3, #15
 800218a:	4613      	mov	r3, r2
 800218c:	00db      	lsls	r3, r3, #3
 800218e:	4413      	add	r3, r2
 8002190:	009b      	lsls	r3, r3, #2
 8002192:	f503 731e 	add.w	r3, r3, #632	; 0x278
 8002196:	687a      	ldr	r2, [r7, #4]
 8002198:	4413      	add	r3, r2
 800219a:	3304      	adds	r3, #4
 800219c:	60fb      	str	r3, [r7, #12]
 800219e:	68fb      	ldr	r3, [r7, #12]
 80021a0:	2200      	movs	r2, #0
 80021a2:	705a      	strb	r2, [r3, #1]
 80021a4:	68fb      	ldr	r3, [r7, #12]
 80021a6:	2200      	movs	r2, #0
 80021a8:	709a      	strb	r2, [r3, #2]
 80021aa:	78fb      	ldrb	r3, [r7, #3]
 80021ac:	f003 030f 	and.w	r3, r3, #15
 80021b0:	b2da      	uxtb	r2, r3
 80021b2:	68fb      	ldr	r3, [r7, #12]
 80021b4:	701a      	strb	r2, [r3, #0]
 80021b6:	687b      	ldr	r3, [r7, #4]
 80021b8:	f893 34bc 	ldrb.w	r3, [r3, #1212]	; 0x4bc
 80021bc:	2b01      	cmp	r3, #1
 80021be:	d101      	bne.n	80021c4 <HAL_PCD_EP_ClrStall+0x86>
 80021c0:	2302      	movs	r3, #2
 80021c2:	e00e      	b.n	80021e2 <HAL_PCD_EP_ClrStall+0xa4>
 80021c4:	687b      	ldr	r3, [r7, #4]
 80021c6:	2201      	movs	r2, #1
 80021c8:	f883 24bc 	strb.w	r2, [r3, #1212]	; 0x4bc
 80021cc:	687b      	ldr	r3, [r7, #4]
 80021ce:	681b      	ldr	r3, [r3, #0]
 80021d0:	68f9      	ldr	r1, [r7, #12]
 80021d2:	4618      	mov	r0, r3
 80021d4:	f002 fc16 	bl	8004a04 <USB_EPClearStall>
 80021d8:	687b      	ldr	r3, [r7, #4]
 80021da:	2200      	movs	r2, #0
 80021dc:	f883 24bc 	strb.w	r2, [r3, #1212]	; 0x4bc
 80021e0:	2300      	movs	r3, #0
 80021e2:	4618      	mov	r0, r3
 80021e4:	3710      	adds	r7, #16
 80021e6:	46bd      	mov	sp, r7
 80021e8:	bd80      	pop	{r7, pc}

080021ea <HAL_PCD_EP_Abort>:
 80021ea:	b580      	push	{r7, lr}
 80021ec:	b084      	sub	sp, #16
 80021ee:	af00      	add	r7, sp, #0
 80021f0:	6078      	str	r0, [r7, #4]
 80021f2:	460b      	mov	r3, r1
 80021f4:	70fb      	strb	r3, [r7, #3]
 80021f6:	f997 3003 	ldrsb.w	r3, [r7, #3]
 80021fa:	2b00      	cmp	r3, #0
 80021fc:	da0c      	bge.n	8002218 <HAL_PCD_EP_Abort+0x2e>
 80021fe:	78fb      	ldrb	r3, [r7, #3]
 8002200:	f003 020f 	and.w	r2, r3, #15
 8002204:	4613      	mov	r3, r2
 8002206:	00db      	lsls	r3, r3, #3
 8002208:	4413      	add	r3, r2
 800220a:	009b      	lsls	r3, r3, #2
 800220c:	3338      	adds	r3, #56	; 0x38
 800220e:	687a      	ldr	r2, [r7, #4]
 8002210:	4413      	add	r3, r2
 8002212:	3304      	adds	r3, #4
 8002214:	60fb      	str	r3, [r7, #12]
 8002216:	e00c      	b.n	8002232 <HAL_PCD_EP_Abort+0x48>
 8002218:	78fb      	ldrb	r3, [r7, #3]
 800221a:	f003 020f 	and.w	r2, r3, #15
 800221e:	4613      	mov	r3, r2
 8002220:	00db      	lsls	r3, r3, #3
 8002222:	4413      	add	r3, r2
 8002224:	009b      	lsls	r3, r3, #2
 8002226:	f503 731e 	add.w	r3, r3, #632	; 0x278
 800222a:	687a      	ldr	r2, [r7, #4]
 800222c:	4413      	add	r3, r2
 800222e:	3304      	adds	r3, #4
 8002230:	60fb      	str	r3, [r7, #12]
 8002232:	687b      	ldr	r3, [r7, #4]
 8002234:	681b      	ldr	r3, [r3, #0]
 8002236:	68f9      	ldr	r1, [r7, #12]
 8002238:	4618      	mov	r0, r3
 800223a:	f002 fa35 	bl	80046a8 <USB_EPStopXfer>
 800223e:	4603      	mov	r3, r0
 8002240:	72fb      	strb	r3, [r7, #11]
 8002242:	7afb      	ldrb	r3, [r7, #11]
 8002244:	4618      	mov	r0, r3
 8002246:	3710      	adds	r7, #16
 8002248:	46bd      	mov	sp, r7
 800224a:	bd80      	pop	{r7, pc}

0800224c <PCD_WriteEmptyTxFifo>:
 800224c:	b580      	push	{r7, lr}
 800224e:	b08a      	sub	sp, #40	; 0x28
 8002250:	af02      	add	r7, sp, #8
 8002252:	6078      	str	r0, [r7, #4]
 8002254:	6039      	str	r1, [r7, #0]
 8002256:	687b      	ldr	r3, [r7, #4]
 8002258:	681b      	ldr	r3, [r3, #0]
 800225a:	617b      	str	r3, [r7, #20]
 800225c:	697b      	ldr	r3, [r7, #20]
 800225e:	613b      	str	r3, [r7, #16]
 8002260:	683a      	ldr	r2, [r7, #0]
 8002262:	4613      	mov	r3, r2
 8002264:	00db      	lsls	r3, r3, #3
 8002266:	4413      	add	r3, r2
 8002268:	009b      	lsls	r3, r3, #2
 800226a:	3338      	adds	r3, #56	; 0x38
 800226c:	687a      	ldr	r2, [r7, #4]
 800226e:	4413      	add	r3, r2
 8002270:	3304      	adds	r3, #4
 8002272:	60fb      	str	r3, [r7, #12]
 8002274:	68fb      	ldr	r3, [r7, #12]
 8002276:	6a1a      	ldr	r2, [r3, #32]
 8002278:	68fb      	ldr	r3, [r7, #12]
 800227a:	699b      	ldr	r3, [r3, #24]
 800227c:	429a      	cmp	r2, r3
 800227e:	d901      	bls.n	8002284 <PCD_WriteEmptyTxFifo+0x38>
 8002280:	2301      	movs	r3, #1
 8002282:	e06c      	b.n	800235e <PCD_WriteEmptyTxFifo+0x112>
 8002284:	68fb      	ldr	r3, [r7, #12]
 8002286:	699a      	ldr	r2, [r3, #24]
 8002288:	68fb      	ldr	r3, [r7, #12]
 800228a:	6a1b      	ldr	r3, [r3, #32]
 800228c:	1ad3      	subs	r3, r2, r3
 800228e:	61fb      	str	r3, [r7, #28]
 8002290:	68fb      	ldr	r3, [r7, #12]
 8002292:	68db      	ldr	r3, [r3, #12]
 8002294:	69fa      	ldr	r2, [r7, #28]
 8002296:	429a      	cmp	r2, r3
 8002298:	d902      	bls.n	80022a0 <PCD_WriteEmptyTxFifo+0x54>
 800229a:	68fb      	ldr	r3, [r7, #12]
 800229c:	68db      	ldr	r3, [r3, #12]
 800229e:	61fb      	str	r3, [r7, #28]
 80022a0:	69fb      	ldr	r3, [r7, #28]
 80022a2:	3303      	adds	r3, #3
 80022a4:	089b      	lsrs	r3, r3, #2
 80022a6:	61bb      	str	r3, [r7, #24]
 80022a8:	e02b      	b.n	8002302 <PCD_WriteEmptyTxFifo+0xb6>
 80022aa:	68fb      	ldr	r3, [r7, #12]
 80022ac:	699a      	ldr	r2, [r3, #24]
 80022ae:	68fb      	ldr	r3, [r7, #12]
 80022b0:	6a1b      	ldr	r3, [r3, #32]
 80022b2:	1ad3      	subs	r3, r2, r3
 80022b4:	61fb      	str	r3, [r7, #28]
 80022b6:	68fb      	ldr	r3, [r7, #12]
 80022b8:	68db      	ldr	r3, [r3, #12]
 80022ba:	69fa      	ldr	r2, [r7, #28]
 80022bc:	429a      	cmp	r2, r3
 80022be:	d902      	bls.n	80022c6 <PCD_WriteEmptyTxFifo+0x7a>
 80022c0:	68fb      	ldr	r3, [r7, #12]
 80022c2:	68db      	ldr	r3, [r3, #12]
 80022c4:	61fb      	str	r3, [r7, #28]
 80022c6:	69fb      	ldr	r3, [r7, #28]
 80022c8:	3303      	adds	r3, #3
 80022ca:	089b      	lsrs	r3, r3, #2
 80022cc:	61bb      	str	r3, [r7, #24]
 80022ce:	68fb      	ldr	r3, [r7, #12]
 80022d0:	6919      	ldr	r1, [r3, #16]
 80022d2:	683b      	ldr	r3, [r7, #0]
 80022d4:	b2da      	uxtb	r2, r3
 80022d6:	69fb      	ldr	r3, [r7, #28]
 80022d8:	b298      	uxth	r0, r3
 80022da:	687b      	ldr	r3, [r7, #4]
 80022dc:	691b      	ldr	r3, [r3, #16]
 80022de:	b2db      	uxtb	r3, r3
 80022e0:	9300      	str	r3, [sp, #0]
 80022e2:	4603      	mov	r3, r0
 80022e4:	6978      	ldr	r0, [r7, #20]
 80022e6:	f002 fa89 	bl	80047fc <USB_WritePacket>
 80022ea:	68fb      	ldr	r3, [r7, #12]
 80022ec:	691a      	ldr	r2, [r3, #16]
 80022ee:	69fb      	ldr	r3, [r7, #28]
 80022f0:	441a      	add	r2, r3
 80022f2:	68fb      	ldr	r3, [r7, #12]
 80022f4:	611a      	str	r2, [r3, #16]
 80022f6:	68fb      	ldr	r3, [r7, #12]
 80022f8:	6a1a      	ldr	r2, [r3, #32]
 80022fa:	69fb      	ldr	r3, [r7, #28]
 80022fc:	441a      	add	r2, r3
 80022fe:	68fb      	ldr	r3, [r7, #12]
 8002300:	621a      	str	r2, [r3, #32]
 8002302:	683b      	ldr	r3, [r7, #0]
 8002304:	015a      	lsls	r2, r3, #5
 8002306:	693b      	ldr	r3, [r7, #16]
 8002308:	4413      	add	r3, r2
 800230a:	f503 6310 	add.w	r3, r3, #2304	; 0x900
 800230e:	699b      	ldr	r3, [r3, #24]
 8002310:	b29b      	uxth	r3, r3
 8002312:	69ba      	ldr	r2, [r7, #24]
 8002314:	429a      	cmp	r2, r3
 8002316:	d809      	bhi.n	800232c <PCD_WriteEmptyTxFifo+0xe0>
 8002318:	68fb      	ldr	r3, [r7, #12]
 800231a:	6a1a      	ldr	r2, [r3, #32]
 800231c:	68fb      	ldr	r3, [r7, #12]
 800231e:	699b      	ldr	r3, [r3, #24]
 8002320:	429a      	cmp	r2, r3
 8002322:	d203      	bcs.n	800232c <PCD_WriteEmptyTxFifo+0xe0>
 8002324:	68fb      	ldr	r3, [r7, #12]
 8002326:	699b      	ldr	r3, [r3, #24]
 8002328:	2b00      	cmp	r3, #0
 800232a:	d1be      	bne.n	80022aa <PCD_WriteEmptyTxFifo+0x5e>
 800232c:	68fb      	ldr	r3, [r7, #12]
 800232e:	699a      	ldr	r2, [r3, #24]
 8002330:	68fb      	ldr	r3, [r7, #12]
 8002332:	6a1b      	ldr	r3, [r3, #32]
 8002334:	429a      	cmp	r2, r3
 8002336:	d811      	bhi.n	800235c <PCD_WriteEmptyTxFifo+0x110>
 8002338:	683b      	ldr	r3, [r7, #0]
 800233a:	f003 030f 	and.w	r3, r3, #15
 800233e:	2201      	movs	r2, #1
 8002340:	fa02 f303 	lsl.w	r3, r2, r3
 8002344:	60bb      	str	r3, [r7, #8]
 8002346:	693b      	ldr	r3, [r7, #16]
 8002348:	f503 6300 	add.w	r3, r3, #2048	; 0x800
 800234c:	6b5a      	ldr	r2, [r3, #52]	; 0x34
 800234e:	68bb      	ldr	r3, [r7, #8]
 8002350:	43db      	mvns	r3, r3
 8002352:	6939      	ldr	r1, [r7, #16]
 8002354:	f501 6100 	add.w	r1, r1, #2048	; 0x800
 8002358:	4013      	ands	r3, r2
 800235a:	634b      	str	r3, [r1, #52]	; 0x34
 800235c:	2300      	movs	r3, #0
 800235e:	4618      	mov	r0, r3
 8002360:	3720      	adds	r7, #32
 8002362:	46bd      	mov	sp, r7
 8002364:	bd80      	pop	{r7, pc}
	...

08002368 <PCD_EP_OutXfrComplete_int>:
 8002368:	b580      	push	{r7, lr}
 800236a:	b088      	sub	sp, #32
 800236c:	af00      	add	r7, sp, #0
 800236e:	6078      	str	r0, [r7, #4]
 8002370:	6039      	str	r1, [r7, #0]
 8002372:	687b      	ldr	r3, [r7, #4]
 8002374:	681b      	ldr	r3, [r3, #0]
 8002376:	61fb      	str	r3, [r7, #28]
 8002378:	69fb      	ldr	r3, [r7, #28]
 800237a:	61bb      	str	r3, [r7, #24]
 800237c:	69fb      	ldr	r3, [r7, #28]
 800237e:	333c      	adds	r3, #60	; 0x3c
 8002380:	3304      	adds	r3, #4
 8002382:	681b      	ldr	r3, [r3, #0]
 8002384:	617b      	str	r3, [r7, #20]
 8002386:	683b      	ldr	r3, [r7, #0]
 8002388:	015a      	lsls	r2, r3, #5
 800238a:	69bb      	ldr	r3, [r7, #24]
 800238c:	4413      	add	r3, r2
 800238e:	f503 6330 	add.w	r3, r3, #2816	; 0xb00
 8002392:	689b      	ldr	r3, [r3, #8]
 8002394:	613b      	str	r3, [r7, #16]
 8002396:	687b      	ldr	r3, [r7, #4]
 8002398:	691b      	ldr	r3, [r3, #16]
 800239a:	2b01      	cmp	r3, #1
 800239c:	d17b      	bne.n	8002496 <PCD_EP_OutXfrComplete_int+0x12e>
 800239e:	693b      	ldr	r3, [r7, #16]
 80023a0:	f003 0308 	and.w	r3, r3, #8
 80023a4:	2b00      	cmp	r3, #0
 80023a6:	d015      	beq.n	80023d4 <PCD_EP_OutXfrComplete_int+0x6c>
 80023a8:	697b      	ldr	r3, [r7, #20]
 80023aa:	4a61      	ldr	r2, [pc, #388]	; (8002530 <PCD_EP_OutXfrComplete_int+0x1c8>)
 80023ac:	4293      	cmp	r3, r2
 80023ae:	f240 80b9 	bls.w	8002524 <PCD_EP_OutXfrComplete_int+0x1bc>
 80023b2:	693b      	ldr	r3, [r7, #16]
 80023b4:	f403 4300 	and.w	r3, r3, #32768	; 0x8000
 80023b8:	2b00      	cmp	r3, #0
 80023ba:	f000 80b3 	beq.w	8002524 <PCD_EP_OutXfrComplete_int+0x1bc>
 80023be:	683b      	ldr	r3, [r7, #0]
 80023c0:	015a      	lsls	r2, r3, #5
 80023c2:	69bb      	ldr	r3, [r7, #24]
 80023c4:	4413      	add	r3, r2
 80023c6:	f503 6330 	add.w	r3, r3, #2816	; 0xb00
 80023ca:	461a      	mov	r2, r3
 80023cc:	f44f 4300 	mov.w	r3, #32768	; 0x8000
 80023d0:	6093      	str	r3, [r2, #8]
 80023d2:	e0a7      	b.n	8002524 <PCD_EP_OutXfrComplete_int+0x1bc>
 80023d4:	693b      	ldr	r3, [r7, #16]
 80023d6:	f003 0320 	and.w	r3, r3, #32
 80023da:	2b00      	cmp	r3, #0
 80023dc:	d009      	beq.n	80023f2 <PCD_EP_OutXfrComplete_int+0x8a>
 80023de:	683b      	ldr	r3, [r7, #0]
 80023e0:	015a      	lsls	r2, r3, #5
 80023e2:	69bb      	ldr	r3, [r7, #24]
 80023e4:	4413      	add	r3, r2
 80023e6:	f503 6330 	add.w	r3, r3, #2816	; 0xb00
 80023ea:	461a      	mov	r2, r3
 80023ec:	2320      	movs	r3, #32
 80023ee:	6093      	str	r3, [r2, #8]
 80023f0:	e098      	b.n	8002524 <PCD_EP_OutXfrComplete_int+0x1bc>
 80023f2:	693b      	ldr	r3, [r7, #16]
 80023f4:	f003 0328 	and.w	r3, r3, #40	; 0x28
 80023f8:	2b00      	cmp	r3, #0
 80023fa:	f040 8093 	bne.w	8002524 <PCD_EP_OutXfrComplete_int+0x1bc>
 80023fe:	697b      	ldr	r3, [r7, #20]
 8002400:	4a4b      	ldr	r2, [pc, #300]	; (8002530 <PCD_EP_OutXfrComplete_int+0x1c8>)
 8002402:	4293      	cmp	r3, r2
 8002404:	d90f      	bls.n	8002426 <PCD_EP_OutXfrComplete_int+0xbe>
 8002406:	693b      	ldr	r3, [r7, #16]
 8002408:	f403 4300 	and.w	r3, r3, #32768	; 0x8000
 800240c:	2b00      	cmp	r3, #0
 800240e:	d00a      	beq.n	8002426 <PCD_EP_OutXfrComplete_int+0xbe>
 8002410:	683b      	ldr	r3, [r7, #0]
 8002412:	015a      	lsls	r2, r3, #5
 8002414:	69bb      	ldr	r3, [r7, #24]
 8002416:	4413      	add	r3, r2
 8002418:	f503 6330 	add.w	r3, r3, #2816	; 0xb00
 800241c:	461a      	mov	r2, r3
 800241e:	f44f 4300 	mov.w	r3, #32768	; 0x8000
 8002422:	6093      	str	r3, [r2, #8]
 8002424:	e07e      	b.n	8002524 <PCD_EP_OutXfrComplete_int+0x1bc>
 8002426:	683a      	ldr	r2, [r7, #0]
 8002428:	4613      	mov	r3, r2
 800242a:	00db      	lsls	r3, r3, #3
 800242c:	4413      	add	r3, r2
 800242e:	009b      	lsls	r3, r3, #2
 8002430:	f503 731e 	add.w	r3, r3, #632	; 0x278
 8002434:	687a      	ldr	r2, [r7, #4]
 8002436:	4413      	add	r3, r2
 8002438:	3304      	adds	r3, #4
 800243a:	60fb      	str	r3, [r7, #12]
 800243c:	68fb      	ldr	r3, [r7, #12]
 800243e:	69da      	ldr	r2, [r3, #28]
 8002440:	683b      	ldr	r3, [r7, #0]
 8002442:	0159      	lsls	r1, r3, #5
 8002444:	69bb      	ldr	r3, [r7, #24]
 8002446:	440b      	add	r3, r1
 8002448:	f503 6330 	add.w	r3, r3, #2816	; 0xb00
 800244c:	691b      	ldr	r3, [r3, #16]
 800244e:	f3c3 0312 	ubfx	r3, r3, #0, #19
 8002452:	1ad2      	subs	r2, r2, r3
 8002454:	68fb      	ldr	r3, [r7, #12]
 8002456:	621a      	str	r2, [r3, #32]
 8002458:	683b      	ldr	r3, [r7, #0]
 800245a:	2b00      	cmp	r3, #0
 800245c:	d114      	bne.n	8002488 <PCD_EP_OutXfrComplete_int+0x120>
 800245e:	68fb      	ldr	r3, [r7, #12]
 8002460:	699b      	ldr	r3, [r3, #24]
 8002462:	2b00      	cmp	r3, #0
 8002464:	d109      	bne.n	800247a <PCD_EP_OutXfrComplete_int+0x112>
 8002466:	687b      	ldr	r3, [r7, #4]
 8002468:	6818      	ldr	r0, [r3, #0]
 800246a:	687b      	ldr	r3, [r7, #4]
 800246c:	f203 43c4 	addw	r3, r3, #1220	; 0x4c4
 8002470:	461a      	mov	r2, r3
 8002472:	2101      	movs	r1, #1
 8002474:	f002 fc58 	bl	8004d28 <USB_EP0_OutStart>
 8002478:	e006      	b.n	8002488 <PCD_EP_OutXfrComplete_int+0x120>
 800247a:	68fb      	ldr	r3, [r7, #12]
 800247c:	691a      	ldr	r2, [r3, #16]
 800247e:	68fb      	ldr	r3, [r7, #12]
 8002480:	6a1b      	ldr	r3, [r3, #32]
 8002482:	441a      	add	r2, r3
 8002484:	68fb      	ldr	r3, [r7, #12]
 8002486:	611a      	str	r2, [r3, #16]
 8002488:	683b      	ldr	r3, [r7, #0]
 800248a:	b2db      	uxtb	r3, r3
 800248c:	4619      	mov	r1, r3
 800248e:	6878      	ldr	r0, [r7, #4]
 8002490:	f004 ff10 	bl	80072b4 <HAL_PCD_DataOutStageCallback>
 8002494:	e046      	b.n	8002524 <PCD_EP_OutXfrComplete_int+0x1bc>
 8002496:	697b      	ldr	r3, [r7, #20]
 8002498:	4a26      	ldr	r2, [pc, #152]	; (8002534 <PCD_EP_OutXfrComplete_int+0x1cc>)
 800249a:	4293      	cmp	r3, r2
 800249c:	d124      	bne.n	80024e8 <PCD_EP_OutXfrComplete_int+0x180>
 800249e:	693b      	ldr	r3, [r7, #16]
 80024a0:	f403 4300 	and.w	r3, r3, #32768	; 0x8000
 80024a4:	2b00      	cmp	r3, #0
 80024a6:	d00a      	beq.n	80024be <PCD_EP_OutXfrComplete_int+0x156>
 80024a8:	683b      	ldr	r3, [r7, #0]
 80024aa:	015a      	lsls	r2, r3, #5
 80024ac:	69bb      	ldr	r3, [r7, #24]
 80024ae:	4413      	add	r3, r2
 80024b0:	f503 6330 	add.w	r3, r3, #2816	; 0xb00
 80024b4:	461a      	mov	r2, r3
 80024b6:	f44f 4300 	mov.w	r3, #32768	; 0x8000
 80024ba:	6093      	str	r3, [r2, #8]
 80024bc:	e032      	b.n	8002524 <PCD_EP_OutXfrComplete_int+0x1bc>
 80024be:	693b      	ldr	r3, [r7, #16]
 80024c0:	f003 0320 	and.w	r3, r3, #32
 80024c4:	2b00      	cmp	r3, #0
 80024c6:	d008      	beq.n	80024da <PCD_EP_OutXfrComplete_int+0x172>
 80024c8:	683b      	ldr	r3, [r7, #0]
 80024ca:	015a      	lsls	r2, r3, #5
 80024cc:	69bb      	ldr	r3, [r7, #24]
 80024ce:	4413      	add	r3, r2
 80024d0:	f503 6330 	add.w	r3, r3, #2816	; 0xb00
 80024d4:	461a      	mov	r2, r3
 80024d6:	2320      	movs	r3, #32
 80024d8:	6093      	str	r3, [r2, #8]
 80024da:	683b      	ldr	r3, [r7, #0]
 80024dc:	b2db      	uxtb	r3, r3
 80024de:	4619      	mov	r1, r3
 80024e0:	6878      	ldr	r0, [r7, #4]
 80024e2:	f004 fee7 	bl	80072b4 <HAL_PCD_DataOutStageCallback>
 80024e6:	e01d      	b.n	8002524 <PCD_EP_OutXfrComplete_int+0x1bc>
 80024e8:	683b      	ldr	r3, [r7, #0]
 80024ea:	2b00      	cmp	r3, #0
 80024ec:	d114      	bne.n	8002518 <PCD_EP_OutXfrComplete_int+0x1b0>
 80024ee:	6879      	ldr	r1, [r7, #4]
 80024f0:	683a      	ldr	r2, [r7, #0]
 80024f2:	4613      	mov	r3, r2
 80024f4:	00db      	lsls	r3, r3, #3
 80024f6:	4413      	add	r3, r2
 80024f8:	009b      	lsls	r3, r3, #2
 80024fa:	440b      	add	r3, r1
 80024fc:	f503 7325 	add.w	r3, r3, #660	; 0x294
 8002500:	681b      	ldr	r3, [r3, #0]
 8002502:	2b00      	cmp	r3, #0
 8002504:	d108      	bne.n	8002518 <PCD_EP_OutXfrComplete_int+0x1b0>
 8002506:	687b      	ldr	r3, [r7, #4]
 8002508:	6818      	ldr	r0, [r3, #0]
 800250a:	687b      	ldr	r3, [r7, #4]
 800250c:	f203 43c4 	addw	r3, r3, #1220	; 0x4c4
 8002510:	461a      	mov	r2, r3
 8002512:	2100      	movs	r1, #0
 8002514:	f002 fc08 	bl	8004d28 <USB_EP0_OutStart>
 8002518:	683b      	ldr	r3, [r7, #0]
 800251a:	b2db      	uxtb	r3, r3
 800251c:	4619      	mov	r1, r3
 800251e:	6878      	ldr	r0, [r7, #4]
 8002520:	f004 fec8 	bl	80072b4 <HAL_PCD_DataOutStageCallback>
 8002524:	2300      	movs	r3, #0
 8002526:	4618      	mov	r0, r3
 8002528:	3720      	adds	r7, #32
 800252a:	46bd      	mov	sp, r7
 800252c:	bd80      	pop	{r7, pc}
 800252e:	bf00      	nop
 8002530:	4f54300a 	.word	0x4f54300a
 8002534:	4f54310a 	.word	0x4f54310a

08002538 <PCD_EP_OutSetupPacket_int>:
 8002538:	b580      	push	{r7, lr}
 800253a:	b086      	sub	sp, #24
 800253c:	af00      	add	r7, sp, #0
 800253e:	6078      	str	r0, [r7, #4]
 8002540:	6039      	str	r1, [r7, #0]
 8002542:	687b      	ldr	r3, [r7, #4]
 8002544:	681b      	ldr	r3, [r3, #0]
 8002546:	617b      	str	r3, [r7, #20]
 8002548:	697b      	ldr	r3, [r7, #20]
 800254a:	613b      	str	r3, [r7, #16]
 800254c:	697b      	ldr	r3, [r7, #20]
 800254e:	333c      	adds	r3, #60	; 0x3c
 8002550:	3304      	adds	r3, #4
 8002552:	681b      	ldr	r3, [r3, #0]
 8002554:	60fb      	str	r3, [r7, #12]
 8002556:	683b      	ldr	r3, [r7, #0]
 8002558:	015a      	lsls	r2, r3, #5
 800255a:	693b      	ldr	r3, [r7, #16]
 800255c:	4413      	add	r3, r2
 800255e:	f503 6330 	add.w	r3, r3, #2816	; 0xb00
 8002562:	689b      	ldr	r3, [r3, #8]
 8002564:	60bb      	str	r3, [r7, #8]
 8002566:	68fb      	ldr	r3, [r7, #12]
 8002568:	4a15      	ldr	r2, [pc, #84]	; (80025c0 <PCD_EP_OutSetupPacket_int+0x88>)
 800256a:	4293      	cmp	r3, r2
 800256c:	d90e      	bls.n	800258c <PCD_EP_OutSetupPacket_int+0x54>
 800256e:	68bb      	ldr	r3, [r7, #8]
 8002570:	f403 4300 	and.w	r3, r3, #32768	; 0x8000
 8002574:	2b00      	cmp	r3, #0
 8002576:	d009      	beq.n	800258c <PCD_EP_OutSetupPacket_int+0x54>
 8002578:	683b      	ldr	r3, [r7, #0]
 800257a:	015a      	lsls	r2, r3, #5
 800257c:	693b      	ldr	r3, [r7, #16]
 800257e:	4413      	add	r3, r2
 8002580:	f503 6330 	add.w	r3, r3, #2816	; 0xb00
 8002584:	461a      	mov	r2, r3
 8002586:	f44f 4300 	mov.w	r3, #32768	; 0x8000
 800258a:	6093      	str	r3, [r2, #8]
 800258c:	6878      	ldr	r0, [r7, #4]
 800258e:	f004 fe7f 	bl	8007290 <HAL_PCD_SetupStageCallback>
 8002592:	68fb      	ldr	r3, [r7, #12]
 8002594:	4a0a      	ldr	r2, [pc, #40]	; (80025c0 <PCD_EP_OutSetupPacket_int+0x88>)
 8002596:	4293      	cmp	r3, r2
 8002598:	d90c      	bls.n	80025b4 <PCD_EP_OutSetupPacket_int+0x7c>
 800259a:	687b      	ldr	r3, [r7, #4]
 800259c:	691b      	ldr	r3, [r3, #16]
 800259e:	2b01      	cmp	r3, #1
 80025a0:	d108      	bne.n	80025b4 <PCD_EP_OutSetupPacket_int+0x7c>
 80025a2:	687b      	ldr	r3, [r7, #4]
 80025a4:	6818      	ldr	r0, [r3, #0]
 80025a6:	687b      	ldr	r3, [r7, #4]
 80025a8:	f203 43c4 	addw	r3, r3, #1220	; 0x4c4
 80025ac:	461a      	mov	r2, r3
 80025ae:	2101      	movs	r1, #1
 80025b0:	f002 fbba 	bl	8004d28 <USB_EP0_OutStart>
 80025b4:	2300      	movs	r3, #0
 80025b6:	4618      	mov	r0, r3
 80025b8:	3718      	adds	r7, #24
 80025ba:	46bd      	mov	sp, r7
 80025bc:	bd80      	pop	{r7, pc}
 80025be:	bf00      	nop
 80025c0:	4f54300a 	.word	0x4f54300a

080025c4 <HAL_PCDEx_SetTxFiFo>:
 80025c4:	b480      	push	{r7}
 80025c6:	b085      	sub	sp, #20
 80025c8:	af00      	add	r7, sp, #0
 80025ca:	6078      	str	r0, [r7, #4]
 80025cc:	460b      	mov	r3, r1
 80025ce:	70fb      	strb	r3, [r7, #3]
 80025d0:	4613      	mov	r3, r2
 80025d2:	803b      	strh	r3, [r7, #0]
 80025d4:	687b      	ldr	r3, [r7, #4]
 80025d6:	681b      	ldr	r3, [r3, #0]
 80025d8:	6a5b      	ldr	r3, [r3, #36]	; 0x24
 80025da:	60bb      	str	r3, [r7, #8]
 80025dc:	78fb      	ldrb	r3, [r7, #3]
 80025de:	2b00      	cmp	r3, #0
 80025e0:	d107      	bne.n	80025f2 <HAL_PCDEx_SetTxFiFo+0x2e>
 80025e2:	883b      	ldrh	r3, [r7, #0]
 80025e4:	0419      	lsls	r1, r3, #16
 80025e6:	687b      	ldr	r3, [r7, #4]
 80025e8:	681b      	ldr	r3, [r3, #0]
 80025ea:	68ba      	ldr	r2, [r7, #8]
 80025ec:	430a      	orrs	r2, r1
 80025ee:	629a      	str	r2, [r3, #40]	; 0x28
 80025f0:	e028      	b.n	8002644 <HAL_PCDEx_SetTxFiFo+0x80>
 80025f2:	687b      	ldr	r3, [r7, #4]
 80025f4:	681b      	ldr	r3, [r3, #0]
 80025f6:	6a9b      	ldr	r3, [r3, #40]	; 0x28
 80025f8:	0c1b      	lsrs	r3, r3, #16
 80025fa:	68ba      	ldr	r2, [r7, #8]
 80025fc:	4413      	add	r3, r2
 80025fe:	60bb      	str	r3, [r7, #8]
 8002600:	2300      	movs	r3, #0
 8002602:	73fb      	strb	r3, [r7, #15]
 8002604:	e00d      	b.n	8002622 <HAL_PCDEx_SetTxFiFo+0x5e>
 8002606:	687b      	ldr	r3, [r7, #4]
 8002608:	681a      	ldr	r2, [r3, #0]
 800260a:	7bfb      	ldrb	r3, [r7, #15]
 800260c:	3340      	adds	r3, #64	; 0x40
 800260e:	009b      	lsls	r3, r3, #2
 8002610:	4413      	add	r3, r2
 8002612:	685b      	ldr	r3, [r3, #4]
 8002614:	0c1b      	lsrs	r3, r3, #16
 8002616:	68ba      	ldr	r2, [r7, #8]
 8002618:	4413      	add	r3, r2
 800261a:	60bb      	str	r3, [r7, #8]
 800261c:	7bfb      	ldrb	r3, [r7, #15]
 800261e:	3301      	adds	r3, #1
 8002620:	73fb      	strb	r3, [r7, #15]
 8002622:	7bfa      	ldrb	r2, [r7, #15]
 8002624:	78fb      	ldrb	r3, [r7, #3]
 8002626:	3b01      	subs	r3, #1
 8002628:	429a      	cmp	r2, r3
 800262a:	d3ec      	bcc.n	8002606 <HAL_PCDEx_SetTxFiFo+0x42>
 800262c:	883b      	ldrh	r3, [r7, #0]
 800262e:	0418      	lsls	r0, r3, #16
 8002630:	687b      	ldr	r3, [r7, #4]
 8002632:	6819      	ldr	r1, [r3, #0]
 8002634:	78fb      	ldrb	r3, [r7, #3]
 8002636:	3b01      	subs	r3, #1
 8002638:	68ba      	ldr	r2, [r7, #8]
 800263a:	4302      	orrs	r2, r0
 800263c:	3340      	adds	r3, #64	; 0x40
 800263e:	009b      	lsls	r3, r3, #2
 8002640:	440b      	add	r3, r1
 8002642:	605a      	str	r2, [r3, #4]
 8002644:	2300      	movs	r3, #0
 8002646:	4618      	mov	r0, r3
 8002648:	3714      	adds	r7, #20
 800264a:	46bd      	mov	sp, r7
 800264c:	f85d 7b04 	ldr.w	r7, [sp], #4
 8002650:	4770      	bx	lr

08002652 <HAL_PCDEx_SetRxFiFo>:
 8002652:	b480      	push	{r7}
 8002654:	b083      	sub	sp, #12
 8002656:	af00      	add	r7, sp, #0
 8002658:	6078      	str	r0, [r7, #4]
 800265a:	460b      	mov	r3, r1
 800265c:	807b      	strh	r3, [r7, #2]
 800265e:	687b      	ldr	r3, [r7, #4]
 8002660:	681b      	ldr	r3, [r3, #0]
 8002662:	887a      	ldrh	r2, [r7, #2]
 8002664:	625a      	str	r2, [r3, #36]	; 0x24
 8002666:	2300      	movs	r3, #0
 8002668:	4618      	mov	r0, r3
 800266a:	370c      	adds	r7, #12
 800266c:	46bd      	mov	sp, r7
 800266e:	f85d 7b04 	ldr.w	r7, [sp], #4
 8002672:	4770      	bx	lr

08002674 <HAL_PCDEx_LPM_Callback>:
 8002674:	b480      	push	{r7}
 8002676:	b083      	sub	sp, #12
 8002678:	af00      	add	r7, sp, #0
 800267a:	6078      	str	r0, [r7, #4]
 800267c:	460b      	mov	r3, r1
 800267e:	70fb      	strb	r3, [r7, #3]
 8002680:	bf00      	nop
 8002682:	370c      	adds	r7, #12
 8002684:	46bd      	mov	sp, r7
 8002686:	f85d 7b04 	ldr.w	r7, [sp], #4
 800268a:	4770      	bx	lr

0800268c <HAL_RCC_OscConfig>:
 800268c:	b580      	push	{r7, lr}
 800268e:	b086      	sub	sp, #24
 8002690:	af00      	add	r7, sp, #0
 8002692:	6078      	str	r0, [r7, #4]
 8002694:	687b      	ldr	r3, [r7, #4]
 8002696:	2b00      	cmp	r3, #0
 8002698:	d101      	bne.n	800269e <HAL_RCC_OscConfig+0x12>
 800269a:	2301      	movs	r3, #1
 800269c:	e267      	b.n	8002b6e <HAL_RCC_OscConfig+0x4e2>
 800269e:	687b      	ldr	r3, [r7, #4]
 80026a0:	681b      	ldr	r3, [r3, #0]
 80026a2:	f003 0301 	and.w	r3, r3, #1
 80026a6:	2b00      	cmp	r3, #0
 80026a8:	d075      	beq.n	8002796 <HAL_RCC_OscConfig+0x10a>
 80026aa:	4b88      	ldr	r3, [pc, #544]	; (80028cc <HAL_RCC_OscConfig+0x240>)
 80026ac:	689b      	ldr	r3, [r3, #8]
 80026ae:	f003 030c 	and.w	r3, r3, #12
 80026b2:	2b04      	cmp	r3, #4
 80026b4:	d00c      	beq.n	80026d0 <HAL_RCC_OscConfig+0x44>
 80026b6:	4b85      	ldr	r3, [pc, #532]	; (80028cc <HAL_RCC_OscConfig+0x240>)
 80026b8:	689b      	ldr	r3, [r3, #8]
 80026ba:	f003 030c 	and.w	r3, r3, #12
 80026be:	2b08      	cmp	r3, #8
 80026c0:	d112      	bne.n	80026e8 <HAL_RCC_OscConfig+0x5c>
 80026c2:	4b82      	ldr	r3, [pc, #520]	; (80028cc <HAL_RCC_OscConfig+0x240>)
 80026c4:	685b      	ldr	r3, [r3, #4]
 80026c6:	f403 0380 	and.w	r3, r3, #4194304	; 0x400000
 80026ca:	f5b3 0f80 	cmp.w	r3, #4194304	; 0x400000
 80026ce:	d10b      	bne.n	80026e8 <HAL_RCC_OscConfig+0x5c>
 80026d0:	4b7e      	ldr	r3, [pc, #504]	; (80028cc <HAL_RCC_OscConfig+0x240>)
 80026d2:	681b      	ldr	r3, [r3, #0]
 80026d4:	f403 3300 	and.w	r3, r3, #131072	; 0x20000
 80026d8:	2b00      	cmp	r3, #0
 80026da:	d05b      	beq.n	8002794 <HAL_RCC_OscConfig+0x108>
 80026dc:	687b      	ldr	r3, [r7, #4]
 80026de:	685b      	ldr	r3, [r3, #4]
 80026e0:	2b00      	cmp	r3, #0
 80026e2:	d157      	bne.n	8002794 <HAL_RCC_OscConfig+0x108>
 80026e4:	2301      	movs	r3, #1
 80026e6:	e242      	b.n	8002b6e <HAL_RCC_OscConfig+0x4e2>
 80026e8:	687b      	ldr	r3, [r7, #4]
 80026ea:	685b      	ldr	r3, [r3, #4]
 80026ec:	f5b3 3f80 	cmp.w	r3, #65536	; 0x10000
 80026f0:	d106      	bne.n	8002700 <HAL_RCC_OscConfig+0x74>
 80026f2:	4b76      	ldr	r3, [pc, #472]	; (80028cc <HAL_RCC_OscConfig+0x240>)
 80026f4:	681b      	ldr	r3, [r3, #0]
 80026f6:	4a75      	ldr	r2, [pc, #468]	; (80028cc <HAL_RCC_OscConfig+0x240>)
 80026f8:	f443 3380 	orr.w	r3, r3, #65536	; 0x10000
 80026fc:	6013      	str	r3, [r2, #0]
 80026fe:	e01d      	b.n	800273c <HAL_RCC_OscConfig+0xb0>
 8002700:	687b      	ldr	r3, [r7, #4]
 8002702:	685b      	ldr	r3, [r3, #4]
 8002704:	f5b3 2fa0 	cmp.w	r3, #327680	; 0x50000
 8002708:	d10c      	bne.n	8002724 <HAL_RCC_OscConfig+0x98>
 800270a:	4b70      	ldr	r3, [pc, #448]	; (80028cc <HAL_RCC_OscConfig+0x240>)
 800270c:	681b      	ldr	r3, [r3, #0]
 800270e:	4a6f      	ldr	r2, [pc, #444]	; (80028cc <HAL_RCC_OscConfig+0x240>)
 8002710:	f443 2380 	orr.w	r3, r3, #262144	; 0x40000
 8002714:	6013      	str	r3, [r2, #0]
 8002716:	4b6d      	ldr	r3, [pc, #436]	; (80028cc <HAL_RCC_OscConfig+0x240>)
 8002718:	681b      	ldr	r3, [r3, #0]
 800271a:	4a6c      	ldr	r2, [pc, #432]	; (80028cc <HAL_RCC_OscConfig+0x240>)
 800271c:	f443 3380 	orr.w	r3, r3, #65536	; 0x10000
 8002720:	6013      	str	r3, [r2, #0]
 8002722:	e00b      	b.n	800273c <HAL_RCC_OscConfig+0xb0>
 8002724:	4b69      	ldr	r3, [pc, #420]	; (80028cc <HAL_RCC_OscConfig+0x240>)
 8002726:	681b      	ldr	r3, [r3, #0]
 8002728:	4a68      	ldr	r2, [pc, #416]	; (80028cc <HAL_RCC_OscConfig+0x240>)
 800272a:	f423 3380 	bic.w	r3, r3, #65536	; 0x10000
 800272e:	6013      	str	r3, [r2, #0]
 8002730:	4b66      	ldr	r3, [pc, #408]	; (80028cc <HAL_RCC_OscConfig+0x240>)
 8002732:	681b      	ldr	r3, [r3, #0]
 8002734:	4a65      	ldr	r2, [pc, #404]	; (80028cc <HAL_RCC_OscConfig+0x240>)
 8002736:	f423 2380 	bic.w	r3, r3, #262144	; 0x40000
 800273a:	6013      	str	r3, [r2, #0]
 800273c:	687b      	ldr	r3, [r7, #4]
 800273e:	685b      	ldr	r3, [r3, #4]
 8002740:	2b00      	cmp	r3, #0
 8002742:	d013      	beq.n	800276c <HAL_RCC_OscConfig+0xe0>
 8002744:	f7fe f9fc 	bl	8000b40 <HAL_GetTick>
 8002748:	6138      	str	r0, [r7, #16]
 800274a:	e008      	b.n	800275e <HAL_RCC_OscConfig+0xd2>
 800274c:	f7fe f9f8 	bl	8000b40 <HAL_GetTick>
 8002750:	4602      	mov	r2, r0
 8002752:	693b      	ldr	r3, [r7, #16]
 8002754:	1ad3      	subs	r3, r2, r3
 8002756:	2b64      	cmp	r3, #100	; 0x64
 8002758:	d901      	bls.n	800275e <HAL_RCC_OscConfig+0xd2>
 800275a:	2303      	movs	r3, #3
 800275c:	e207      	b.n	8002b6e <HAL_RCC_OscConfig+0x4e2>
 800275e:	4b5b      	ldr	r3, [pc, #364]	; (80028cc <HAL_RCC_OscConfig+0x240>)
 8002760:	681b      	ldr	r3, [r3, #0]
 8002762:	f403 3300 	and.w	r3, r3, #131072	; 0x20000
 8002766:	2b00      	cmp	r3, #0
 8002768:	d0f0      	beq.n	800274c <HAL_RCC_OscConfig+0xc0>
 800276a:	e014      	b.n	8002796 <HAL_RCC_OscConfig+0x10a>
 800276c:	f7fe f9e8 	bl	8000b40 <HAL_GetTick>
 8002770:	6138      	str	r0, [r7, #16]
 8002772:	e008      	b.n	8002786 <HAL_RCC_OscConfig+0xfa>
 8002774:	f7fe f9e4 	bl	8000b40 <HAL_GetTick>
 8002778:	4602      	mov	r2, r0
 800277a:	693b      	ldr	r3, [r7, #16]
 800277c:	1ad3      	subs	r3, r2, r3
 800277e:	2b64      	cmp	r3, #100	; 0x64
 8002780:	d901      	bls.n	8002786 <HAL_RCC_OscConfig+0xfa>
 8002782:	2303      	movs	r3, #3
 8002784:	e1f3      	b.n	8002b6e <HAL_RCC_OscConfig+0x4e2>
 8002786:	4b51      	ldr	r3, [pc, #324]	; (80028cc <HAL_RCC_OscConfig+0x240>)
 8002788:	681b      	ldr	r3, [r3, #0]
 800278a:	f403 3300 	and.w	r3, r3, #131072	; 0x20000
 800278e:	2b00      	cmp	r3, #0
 8002790:	d1f0      	bne.n	8002774 <HAL_RCC_OscConfig+0xe8>
 8002792:	e000      	b.n	8002796 <HAL_RCC_OscConfig+0x10a>
 8002794:	bf00      	nop
 8002796:	687b      	ldr	r3, [r7, #4]
 8002798:	681b      	ldr	r3, [r3, #0]
 800279a:	f003 0302 	and.w	r3, r3, #2
 800279e:	2b00      	cmp	r3, #0
 80027a0:	d063      	beq.n	800286a <HAL_RCC_OscConfig+0x1de>
 80027a2:	4b4a      	ldr	r3, [pc, #296]	; (80028cc <HAL_RCC_OscConfig+0x240>)
 80027a4:	689b      	ldr	r3, [r3, #8]
 80027a6:	f003 030c 	and.w	r3, r3, #12
 80027aa:	2b00      	cmp	r3, #0
 80027ac:	d00b      	beq.n	80027c6 <HAL_RCC_OscConfig+0x13a>
 80027ae:	4b47      	ldr	r3, [pc, #284]	; (80028cc <HAL_RCC_OscConfig+0x240>)
 80027b0:	689b      	ldr	r3, [r3, #8]
 80027b2:	f003 030c 	and.w	r3, r3, #12
 80027b6:	2b08      	cmp	r3, #8
 80027b8:	d11c      	bne.n	80027f4 <HAL_RCC_OscConfig+0x168>
 80027ba:	4b44      	ldr	r3, [pc, #272]	; (80028cc <HAL_RCC_OscConfig+0x240>)
 80027bc:	685b      	ldr	r3, [r3, #4]
 80027be:	f403 0380 	and.w	r3, r3, #4194304	; 0x400000
 80027c2:	2b00      	cmp	r3, #0
 80027c4:	d116      	bne.n	80027f4 <HAL_RCC_OscConfig+0x168>
 80027c6:	4b41      	ldr	r3, [pc, #260]	; (80028cc <HAL_RCC_OscConfig+0x240>)
 80027c8:	681b      	ldr	r3, [r3, #0]
 80027ca:	f003 0302 	and.w	r3, r3, #2
 80027ce:	2b00      	cmp	r3, #0
 80027d0:	d005      	beq.n	80027de <HAL_RCC_OscConfig+0x152>
 80027d2:	687b      	ldr	r3, [r7, #4]
 80027d4:	68db      	ldr	r3, [r3, #12]
 80027d6:	2b01      	cmp	r3, #1
 80027d8:	d001      	beq.n	80027de <HAL_RCC_OscConfig+0x152>
 80027da:	2301      	movs	r3, #1
 80027dc:	e1c7      	b.n	8002b6e <HAL_RCC_OscConfig+0x4e2>
 80027de:	4b3b      	ldr	r3, [pc, #236]	; (80028cc <HAL_RCC_OscConfig+0x240>)
 80027e0:	681b      	ldr	r3, [r3, #0]
 80027e2:	f023 02f8 	bic.w	r2, r3, #248	; 0xf8
 80027e6:	687b      	ldr	r3, [r7, #4]
 80027e8:	691b      	ldr	r3, [r3, #16]
 80027ea:	00db      	lsls	r3, r3, #3
 80027ec:	4937      	ldr	r1, [pc, #220]	; (80028cc <HAL_RCC_OscConfig+0x240>)
 80027ee:	4313      	orrs	r3, r2
 80027f0:	600b      	str	r3, [r1, #0]
 80027f2:	e03a      	b.n	800286a <HAL_RCC_OscConfig+0x1de>
 80027f4:	687b      	ldr	r3, [r7, #4]
 80027f6:	68db      	ldr	r3, [r3, #12]
 80027f8:	2b00      	cmp	r3, #0
 80027fa:	d020      	beq.n	800283e <HAL_RCC_OscConfig+0x1b2>
 80027fc:	4b34      	ldr	r3, [pc, #208]	; (80028d0 <HAL_RCC_OscConfig+0x244>)
 80027fe:	2201      	movs	r2, #1
 8002800:	601a      	str	r2, [r3, #0]
 8002802:	f7fe f99d 	bl	8000b40 <HAL_GetTick>
 8002806:	6138      	str	r0, [r7, #16]
 8002808:	e008      	b.n	800281c <HAL_RCC_OscConfig+0x190>
 800280a:	f7fe f999 	bl	8000b40 <HAL_GetTick>
 800280e:	4602      	mov	r2, r0
 8002810:	693b      	ldr	r3, [r7, #16]
 8002812:	1ad3      	subs	r3, r2, r3
 8002814:	2b02      	cmp	r3, #2
 8002816:	d901      	bls.n	800281c <HAL_RCC_OscConfig+0x190>
 8002818:	2303      	movs	r3, #3
 800281a:	e1a8      	b.n	8002b6e <HAL_RCC_OscConfig+0x4e2>
 800281c:	4b2b      	ldr	r3, [pc, #172]	; (80028cc <HAL_RCC_OscConfig+0x240>)
 800281e:	681b      	ldr	r3, [r3, #0]
 8002820:	f003 0302 	and.w	r3, r3, #2
 8002824:	2b00      	cmp	r3, #0
 8002826:	d0f0      	beq.n	800280a <HAL_RCC_OscConfig+0x17e>
 8002828:	4b28      	ldr	r3, [pc, #160]	; (80028cc <HAL_RCC_OscConfig+0x240>)
 800282a:	681b      	ldr	r3, [r3, #0]
 800282c:	f023 02f8 	bic.w	r2, r3, #248	; 0xf8
 8002830:	687b      	ldr	r3, [r7, #4]
 8002832:	691b      	ldr	r3, [r3, #16]
 8002834:	00db      	lsls	r3, r3, #3
 8002836:	4925      	ldr	r1, [pc, #148]	; (80028cc <HAL_RCC_OscConfig+0x240>)
 8002838:	4313      	orrs	r3, r2
 800283a:	600b      	str	r3, [r1, #0]
 800283c:	e015      	b.n	800286a <HAL_RCC_OscConfig+0x1de>
 800283e:	4b24      	ldr	r3, [pc, #144]	; (80028d0 <HAL_RCC_OscConfig+0x244>)
 8002840:	2200      	movs	r2, #0
 8002842:	601a      	str	r2, [r3, #0]
 8002844:	f7fe f97c 	bl	8000b40 <HAL_GetTick>
 8002848:	6138      	str	r0, [r7, #16]
 800284a:	e008      	b.n	800285e <HAL_RCC_OscConfig+0x1d2>
 800284c:	f7fe f978 	bl	8000b40 <HAL_GetTick>
 8002850:	4602      	mov	r2, r0
 8002852:	693b      	ldr	r3, [r7, #16]
 8002854:	1ad3      	subs	r3, r2, r3
 8002856:	2b02      	cmp	r3, #2
 8002858:	d901      	bls.n	800285e <HAL_RCC_OscConfig+0x1d2>
 800285a:	2303      	movs	r3, #3
 800285c:	e187      	b.n	8002b6e <HAL_RCC_OscConfig+0x4e2>
 800285e:	4b1b      	ldr	r3, [pc, #108]	; (80028cc <HAL_RCC_OscConfig+0x240>)
 8002860:	681b      	ldr	r3, [r3, #0]
 8002862:	f003 0302 	and.w	r3, r3, #2
 8002866:	2b00      	cmp	r3, #0
 8002868:	d1f0      	bne.n	800284c <HAL_RCC_OscConfig+0x1c0>
 800286a:	687b      	ldr	r3, [r7, #4]
 800286c:	681b      	ldr	r3, [r3, #0]
 800286e:	f003 0308 	and.w	r3, r3, #8
 8002872:	2b00      	cmp	r3, #0
 8002874:	d036      	beq.n	80028e4 <HAL_RCC_OscConfig+0x258>
 8002876:	687b      	ldr	r3, [r7, #4]
 8002878:	695b      	ldr	r3, [r3, #20]
 800287a:	2b00      	cmp	r3, #0
 800287c:	d016      	beq.n	80028ac <HAL_RCC_OscConfig+0x220>
 800287e:	4b15      	ldr	r3, [pc, #84]	; (80028d4 <HAL_RCC_OscConfig+0x248>)
 8002880:	2201      	movs	r2, #1
 8002882:	601a      	str	r2, [r3, #0]
 8002884:	f7fe f95c 	bl	8000b40 <HAL_GetTick>
 8002888:	6138      	str	r0, [r7, #16]
 800288a:	e008      	b.n	800289e <HAL_RCC_OscConfig+0x212>
 800288c:	f7fe f958 	bl	8000b40 <HAL_GetTick>
 8002890:	4602      	mov	r2, r0
 8002892:	693b      	ldr	r3, [r7, #16]
 8002894:	1ad3      	subs	r3, r2, r3
 8002896:	2b02      	cmp	r3, #2
 8002898:	d901      	bls.n	800289e <HAL_RCC_OscConfig+0x212>
 800289a:	2303      	movs	r3, #3
 800289c:	e167      	b.n	8002b6e <HAL_RCC_OscConfig+0x4e2>
 800289e:	4b0b      	ldr	r3, [pc, #44]	; (80028cc <HAL_RCC_OscConfig+0x240>)
 80028a0:	6f5b      	ldr	r3, [r3, #116]	; 0x74
 80028a2:	f003 0302 	and.w	r3, r3, #2
 80028a6:	2b00      	cmp	r3, #0
 80028a8:	d0f0      	beq.n	800288c <HAL_RCC_OscConfig+0x200>
 80028aa:	e01b      	b.n	80028e4 <HAL_RCC_OscConfig+0x258>
 80028ac:	4b09      	ldr	r3, [pc, #36]	; (80028d4 <HAL_RCC_OscConfig+0x248>)
 80028ae:	2200      	movs	r2, #0
 80028b0:	601a      	str	r2, [r3, #0]
 80028b2:	f7fe f945 	bl	8000b40 <HAL_GetTick>
 80028b6:	6138      	str	r0, [r7, #16]
 80028b8:	e00e      	b.n	80028d8 <HAL_RCC_OscConfig+0x24c>
 80028ba:	f7fe f941 	bl	8000b40 <HAL_GetTick>
 80028be:	4602      	mov	r2, r0
 80028c0:	693b      	ldr	r3, [r7, #16]
 80028c2:	1ad3      	subs	r3, r2, r3
 80028c4:	2b02      	cmp	r3, #2
 80028c6:	d907      	bls.n	80028d8 <HAL_RCC_OscConfig+0x24c>
 80028c8:	2303      	movs	r3, #3
 80028ca:	e150      	b.n	8002b6e <HAL_RCC_OscConfig+0x4e2>
 80028cc:	40023800 	.word	0x40023800
 80028d0:	42470000 	.word	0x42470000
 80028d4:	42470e80 	.word	0x42470e80
 80028d8:	4b88      	ldr	r3, [pc, #544]	; (8002afc <HAL_RCC_OscConfig+0x470>)
 80028da:	6f5b      	ldr	r3, [r3, #116]	; 0x74
 80028dc:	f003 0302 	and.w	r3, r3, #2
 80028e0:	2b00      	cmp	r3, #0
 80028e2:	d1ea      	bne.n	80028ba <HAL_RCC_OscConfig+0x22e>
 80028e4:	687b      	ldr	r3, [r7, #4]
 80028e6:	681b      	ldr	r3, [r3, #0]
 80028e8:	f003 0304 	and.w	r3, r3, #4
 80028ec:	2b00      	cmp	r3, #0
 80028ee:	f000 8097 	beq.w	8002a20 <HAL_RCC_OscConfig+0x394>
 80028f2:	2300      	movs	r3, #0
 80028f4:	75fb      	strb	r3, [r7, #23]
 80028f6:	4b81      	ldr	r3, [pc, #516]	; (8002afc <HAL_RCC_OscConfig+0x470>)
 80028f8:	6c1b      	ldr	r3, [r3, #64]	; 0x40
 80028fa:	f003 5380 	and.w	r3, r3, #268435456	; 0x10000000
 80028fe:	2b00      	cmp	r3, #0
 8002900:	d10f      	bne.n	8002922 <HAL_RCC_OscConfig+0x296>
 8002902:	2300      	movs	r3, #0
 8002904:	60bb      	str	r3, [r7, #8]
 8002906:	4b7d      	ldr	r3, [pc, #500]	; (8002afc <HAL_RCC_OscConfig+0x470>)
 8002908:	6c1b      	ldr	r3, [r3, #64]	; 0x40
 800290a:	4a7c      	ldr	r2, [pc, #496]	; (8002afc <HAL_RCC_OscConfig+0x470>)
 800290c:	f043 5380 	orr.w	r3, r3, #268435456	; 0x10000000
 8002910:	6413      	str	r3, [r2, #64]	; 0x40
 8002912:	4b7a      	ldr	r3, [pc, #488]	; (8002afc <HAL_RCC_OscConfig+0x470>)
 8002914:	6c1b      	ldr	r3, [r3, #64]	; 0x40
 8002916:	f003 5380 	and.w	r3, r3, #268435456	; 0x10000000
 800291a:	60bb      	str	r3, [r7, #8]
 800291c:	68bb      	ldr	r3, [r7, #8]
 800291e:	2301      	movs	r3, #1
 8002920:	75fb      	strb	r3, [r7, #23]
 8002922:	4b77      	ldr	r3, [pc, #476]	; (8002b00 <HAL_RCC_OscConfig+0x474>)
 8002924:	681b      	ldr	r3, [r3, #0]
 8002926:	f403 7380 	and.w	r3, r3, #256	; 0x100
 800292a:	2b00      	cmp	r3, #0
 800292c:	d118      	bne.n	8002960 <HAL_RCC_OscConfig+0x2d4>
 800292e:	4b74      	ldr	r3, [pc, #464]	; (8002b00 <HAL_RCC_OscConfig+0x474>)
 8002930:	681b      	ldr	r3, [r3, #0]
 8002932:	4a73      	ldr	r2, [pc, #460]	; (8002b00 <HAL_RCC_OscConfig+0x474>)
 8002934:	f443 7380 	orr.w	r3, r3, #256	; 0x100
 8002938:	6013      	str	r3, [r2, #0]
 800293a:	f7fe f901 	bl	8000b40 <HAL_GetTick>
 800293e:	6138      	str	r0, [r7, #16]
 8002940:	e008      	b.n	8002954 <HAL_RCC_OscConfig+0x2c8>
 8002942:	f7fe f8fd 	bl	8000b40 <HAL_GetTick>
 8002946:	4602      	mov	r2, r0
 8002948:	693b      	ldr	r3, [r7, #16]
 800294a:	1ad3      	subs	r3, r2, r3
 800294c:	2b02      	cmp	r3, #2
 800294e:	d901      	bls.n	8002954 <HAL_RCC_OscConfig+0x2c8>
 8002950:	2303      	movs	r3, #3
 8002952:	e10c      	b.n	8002b6e <HAL_RCC_OscConfig+0x4e2>
 8002954:	4b6a      	ldr	r3, [pc, #424]	; (8002b00 <HAL_RCC_OscConfig+0x474>)
 8002956:	681b      	ldr	r3, [r3, #0]
 8002958:	f403 7380 	and.w	r3, r3, #256	; 0x100
 800295c:	2b00      	cmp	r3, #0
 800295e:	d0f0      	beq.n	8002942 <HAL_RCC_OscConfig+0x2b6>
 8002960:	687b      	ldr	r3, [r7, #4]
 8002962:	689b      	ldr	r3, [r3, #8]
 8002964:	2b01      	cmp	r3, #1
 8002966:	d106      	bne.n	8002976 <HAL_RCC_OscConfig+0x2ea>
 8002968:	4b64      	ldr	r3, [pc, #400]	; (8002afc <HAL_RCC_OscConfig+0x470>)
 800296a:	6f1b      	ldr	r3, [r3, #112]	; 0x70
 800296c:	4a63      	ldr	r2, [pc, #396]	; (8002afc <HAL_RCC_OscConfig+0x470>)
 800296e:	f043 0301 	orr.w	r3, r3, #1
 8002972:	6713      	str	r3, [r2, #112]	; 0x70
 8002974:	e01c      	b.n	80029b0 <HAL_RCC_OscConfig+0x324>
 8002976:	687b      	ldr	r3, [r7, #4]
 8002978:	689b      	ldr	r3, [r3, #8]
 800297a:	2b05      	cmp	r3, #5
 800297c:	d10c      	bne.n	8002998 <HAL_RCC_OscConfig+0x30c>
 800297e:	4b5f      	ldr	r3, [pc, #380]	; (8002afc <HAL_RCC_OscConfig+0x470>)
 8002980:	6f1b      	ldr	r3, [r3, #112]	; 0x70
 8002982:	4a5e      	ldr	r2, [pc, #376]	; (8002afc <HAL_RCC_OscConfig+0x470>)
 8002984:	f043 0304 	orr.w	r3, r3, #4
 8002988:	6713      	str	r3, [r2, #112]	; 0x70
 800298a:	4b5c      	ldr	r3, [pc, #368]	; (8002afc <HAL_RCC_OscConfig+0x470>)
 800298c:	6f1b      	ldr	r3, [r3, #112]	; 0x70
 800298e:	4a5b      	ldr	r2, [pc, #364]	; (8002afc <HAL_RCC_OscConfig+0x470>)
 8002990:	f043 0301 	orr.w	r3, r3, #1
 8002994:	6713      	str	r3, [r2, #112]	; 0x70
 8002996:	e00b      	b.n	80029b0 <HAL_RCC_OscConfig+0x324>
 8002998:	4b58      	ldr	r3, [pc, #352]	; (8002afc <HAL_RCC_OscConfig+0x470>)
 800299a:	6f1b      	ldr	r3, [r3, #112]	; 0x70
 800299c:	4a57      	ldr	r2, [pc, #348]	; (8002afc <HAL_RCC_OscConfig+0x470>)
 800299e:	f023 0301 	bic.w	r3, r3, #1
 80029a2:	6713      	str	r3, [r2, #112]	; 0x70
 80029a4:	4b55      	ldr	r3, [pc, #340]	; (8002afc <HAL_RCC_OscConfig+0x470>)
 80029a6:	6f1b      	ldr	r3, [r3, #112]	; 0x70
 80029a8:	4a54      	ldr	r2, [pc, #336]	; (8002afc <HAL_RCC_OscConfig+0x470>)
 80029aa:	f023 0304 	bic.w	r3, r3, #4
 80029ae:	6713      	str	r3, [r2, #112]	; 0x70
 80029b0:	687b      	ldr	r3, [r7, #4]
 80029b2:	689b      	ldr	r3, [r3, #8]
 80029b4:	2b00      	cmp	r3, #0
 80029b6:	d015      	beq.n	80029e4 <HAL_RCC_OscConfig+0x358>
 80029b8:	f7fe f8c2 	bl	8000b40 <HAL_GetTick>
 80029bc:	6138      	str	r0, [r7, #16]
 80029be:	e00a      	b.n	80029d6 <HAL_RCC_OscConfig+0x34a>
 80029c0:	f7fe f8be 	bl	8000b40 <HAL_GetTick>
 80029c4:	4602      	mov	r2, r0
 80029c6:	693b      	ldr	r3, [r7, #16]
 80029c8:	1ad3      	subs	r3, r2, r3
 80029ca:	f241 3288 	movw	r2, #5000	; 0x1388
 80029ce:	4293      	cmp	r3, r2
 80029d0:	d901      	bls.n	80029d6 <HAL_RCC_OscConfig+0x34a>
 80029d2:	2303      	movs	r3, #3
 80029d4:	e0cb      	b.n	8002b6e <HAL_RCC_OscConfig+0x4e2>
 80029d6:	4b49      	ldr	r3, [pc, #292]	; (8002afc <HAL_RCC_OscConfig+0x470>)
 80029d8:	6f1b      	ldr	r3, [r3, #112]	; 0x70
 80029da:	f003 0302 	and.w	r3, r3, #2
 80029de:	2b00      	cmp	r3, #0
 80029e0:	d0ee      	beq.n	80029c0 <HAL_RCC_OscConfig+0x334>
 80029e2:	e014      	b.n	8002a0e <HAL_RCC_OscConfig+0x382>
 80029e4:	f7fe f8ac 	bl	8000b40 <HAL_GetTick>
 80029e8:	6138      	str	r0, [r7, #16]
 80029ea:	e00a      	b.n	8002a02 <HAL_RCC_OscConfig+0x376>
 80029ec:	f7fe f8a8 	bl	8000b40 <HAL_GetTick>
 80029f0:	4602      	mov	r2, r0
 80029f2:	693b      	ldr	r3, [r7, #16]
 80029f4:	1ad3      	subs	r3, r2, r3
 80029f6:	f241 3288 	movw	r2, #5000	; 0x1388
 80029fa:	4293      	cmp	r3, r2
 80029fc:	d901      	bls.n	8002a02 <HAL_RCC_OscConfig+0x376>
 80029fe:	2303      	movs	r3, #3
 8002a00:	e0b5      	b.n	8002b6e <HAL_RCC_OscConfig+0x4e2>
 8002a02:	4b3e      	ldr	r3, [pc, #248]	; (8002afc <HAL_RCC_OscConfig+0x470>)
 8002a04:	6f1b      	ldr	r3, [r3, #112]	; 0x70
 8002a06:	f003 0302 	and.w	r3, r3, #2
 8002a0a:	2b00      	cmp	r3, #0
 8002a0c:	d1ee      	bne.n	80029ec <HAL_RCC_OscConfig+0x360>
 8002a0e:	7dfb      	ldrb	r3, [r7, #23]
 8002a10:	2b01      	cmp	r3, #1
 8002a12:	d105      	bne.n	8002a20 <HAL_RCC_OscConfig+0x394>
 8002a14:	4b39      	ldr	r3, [pc, #228]	; (8002afc <HAL_RCC_OscConfig+0x470>)
 8002a16:	6c1b      	ldr	r3, [r3, #64]	; 0x40
 8002a18:	4a38      	ldr	r2, [pc, #224]	; (8002afc <HAL_RCC_OscConfig+0x470>)
 8002a1a:	f023 5380 	bic.w	r3, r3, #268435456	; 0x10000000
 8002a1e:	6413      	str	r3, [r2, #64]	; 0x40
 8002a20:	687b      	ldr	r3, [r7, #4]
 8002a22:	699b      	ldr	r3, [r3, #24]
 8002a24:	2b00      	cmp	r3, #0
 8002a26:	f000 80a1 	beq.w	8002b6c <HAL_RCC_OscConfig+0x4e0>
 8002a2a:	4b34      	ldr	r3, [pc, #208]	; (8002afc <HAL_RCC_OscConfig+0x470>)
 8002a2c:	689b      	ldr	r3, [r3, #8]
 8002a2e:	f003 030c 	and.w	r3, r3, #12
 8002a32:	2b08      	cmp	r3, #8
 8002a34:	d05c      	beq.n	8002af0 <HAL_RCC_OscConfig+0x464>
 8002a36:	687b      	ldr	r3, [r7, #4]
 8002a38:	699b      	ldr	r3, [r3, #24]
 8002a3a:	2b02      	cmp	r3, #2
 8002a3c:	d141      	bne.n	8002ac2 <HAL_RCC_OscConfig+0x436>
 8002a3e:	4b31      	ldr	r3, [pc, #196]	; (8002b04 <HAL_RCC_OscConfig+0x478>)
 8002a40:	2200      	movs	r2, #0
 8002a42:	601a      	str	r2, [r3, #0]
 8002a44:	f7fe f87c 	bl	8000b40 <HAL_GetTick>
 8002a48:	6138      	str	r0, [r7, #16]
 8002a4a:	e008      	b.n	8002a5e <HAL_RCC_OscConfig+0x3d2>
 8002a4c:	f7fe f878 	bl	8000b40 <HAL_GetTick>
 8002a50:	4602      	mov	r2, r0
 8002a52:	693b      	ldr	r3, [r7, #16]
 8002a54:	1ad3      	subs	r3, r2, r3
 8002a56:	2b02      	cmp	r3, #2
 8002a58:	d901      	bls.n	8002a5e <HAL_RCC_OscConfig+0x3d2>
 8002a5a:	2303      	movs	r3, #3
 8002a5c:	e087      	b.n	8002b6e <HAL_RCC_OscConfig+0x4e2>
 8002a5e:	4b27      	ldr	r3, [pc, #156]	; (8002afc <HAL_RCC_OscConfig+0x470>)
 8002a60:	681b      	ldr	r3, [r3, #0]
 8002a62:	f003 7300 	and.w	r3, r3, #33554432	; 0x2000000
 8002a66:	2b00      	cmp	r3, #0
 8002a68:	d1f0      	bne.n	8002a4c <HAL_RCC_OscConfig+0x3c0>
 8002a6a:	687b      	ldr	r3, [r7, #4]
 8002a6c:	69da      	ldr	r2, [r3, #28]
 8002a6e:	687b      	ldr	r3, [r7, #4]
 8002a70:	6a1b      	ldr	r3, [r3, #32]
 8002a72:	431a      	orrs	r2, r3
 8002a74:	687b      	ldr	r3, [r7, #4]
 8002a76:	6a5b      	ldr	r3, [r3, #36]	; 0x24
 8002a78:	019b      	lsls	r3, r3, #6
 8002a7a:	431a      	orrs	r2, r3
 8002a7c:	687b      	ldr	r3, [r7, #4]
 8002a7e:	6a9b      	ldr	r3, [r3, #40]	; 0x28
 8002a80:	085b      	lsrs	r3, r3, #1
 8002a82:	3b01      	subs	r3, #1
 8002a84:	041b      	lsls	r3, r3, #16
 8002a86:	431a      	orrs	r2, r3
 8002a88:	687b      	ldr	r3, [r7, #4]
 8002a8a:	6adb      	ldr	r3, [r3, #44]	; 0x2c
 8002a8c:	061b      	lsls	r3, r3, #24
 8002a8e:	491b      	ldr	r1, [pc, #108]	; (8002afc <HAL_RCC_OscConfig+0x470>)
 8002a90:	4313      	orrs	r3, r2
 8002a92:	604b      	str	r3, [r1, #4]
 8002a94:	4b1b      	ldr	r3, [pc, #108]	; (8002b04 <HAL_RCC_OscConfig+0x478>)
 8002a96:	2201      	movs	r2, #1
 8002a98:	601a      	str	r2, [r3, #0]
 8002a9a:	f7fe f851 	bl	8000b40 <HAL_GetTick>
 8002a9e:	6138      	str	r0, [r7, #16]
 8002aa0:	e008      	b.n	8002ab4 <HAL_RCC_OscConfig+0x428>
 8002aa2:	f7fe f84d 	bl	8000b40 <HAL_GetTick>
 8002aa6:	4602      	mov	r2, r0
 8002aa8:	693b      	ldr	r3, [r7, #16]
 8002aaa:	1ad3      	subs	r3, r2, r3
 8002aac:	2b02      	cmp	r3, #2
 8002aae:	d901      	bls.n	8002ab4 <HAL_RCC_OscConfig+0x428>
 8002ab0:	2303      	movs	r3, #3
 8002ab2:	e05c      	b.n	8002b6e <HAL_RCC_OscConfig+0x4e2>
 8002ab4:	4b11      	ldr	r3, [pc, #68]	; (8002afc <HAL_RCC_OscConfig+0x470>)
 8002ab6:	681b      	ldr	r3, [r3, #0]
 8002ab8:	f003 7300 	and.w	r3, r3, #33554432	; 0x2000000
 8002abc:	2b00      	cmp	r3, #0
 8002abe:	d0f0      	beq.n	8002aa2 <HAL_RCC_OscConfig+0x416>
 8002ac0:	e054      	b.n	8002b6c <HAL_RCC_OscConfig+0x4e0>
 8002ac2:	4b10      	ldr	r3, [pc, #64]	; (8002b04 <HAL_RCC_OscConfig+0x478>)
 8002ac4:	2200      	movs	r2, #0
 8002ac6:	601a      	str	r2, [r3, #0]
 8002ac8:	f7fe f83a 	bl	8000b40 <HAL_GetTick>
 8002acc:	6138      	str	r0, [r7, #16]
 8002ace:	e008      	b.n	8002ae2 <HAL_RCC_OscConfig+0x456>
 8002ad0:	f7fe f836 	bl	8000b40 <HAL_GetTick>
 8002ad4:	4602      	mov	r2, r0
 8002ad6:	693b      	ldr	r3, [r7, #16]
 8002ad8:	1ad3      	subs	r3, r2, r3
 8002ada:	2b02      	cmp	r3, #2
 8002adc:	d901      	bls.n	8002ae2 <HAL_RCC_OscConfig+0x456>
 8002ade:	2303      	movs	r3, #3
 8002ae0:	e045      	b.n	8002b6e <HAL_RCC_OscConfig+0x4e2>
 8002ae2:	4b06      	ldr	r3, [pc, #24]	; (8002afc <HAL_RCC_OscConfig+0x470>)
 8002ae4:	681b      	ldr	r3, [r3, #0]
 8002ae6:	f003 7300 	and.w	r3, r3, #33554432	; 0x2000000
 8002aea:	2b00      	cmp	r3, #0
 8002aec:	d1f0      	bne.n	8002ad0 <HAL_RCC_OscConfig+0x444>
 8002aee:	e03d      	b.n	8002b6c <HAL_RCC_OscConfig+0x4e0>
 8002af0:	687b      	ldr	r3, [r7, #4]
 8002af2:	699b      	ldr	r3, [r3, #24]
 8002af4:	2b01      	cmp	r3, #1
 8002af6:	d107      	bne.n	8002b08 <HAL_RCC_OscConfig+0x47c>
 8002af8:	2301      	movs	r3, #1
 8002afa:	e038      	b.n	8002b6e <HAL_RCC_OscConfig+0x4e2>
 8002afc:	40023800 	.word	0x40023800
 8002b00:	40007000 	.word	0x40007000
 8002b04:	42470060 	.word	0x42470060
 8002b08:	4b1b      	ldr	r3, [pc, #108]	; (8002b78 <HAL_RCC_OscConfig+0x4ec>)
 8002b0a:	685b      	ldr	r3, [r3, #4]
 8002b0c:	60fb      	str	r3, [r7, #12]
 8002b0e:	687b      	ldr	r3, [r7, #4]
 8002b10:	699b      	ldr	r3, [r3, #24]
 8002b12:	2b01      	cmp	r3, #1
 8002b14:	d028      	beq.n	8002b68 <HAL_RCC_OscConfig+0x4dc>
 8002b16:	68fb      	ldr	r3, [r7, #12]
 8002b18:	f403 0280 	and.w	r2, r3, #4194304	; 0x400000
 8002b1c:	687b      	ldr	r3, [r7, #4]
 8002b1e:	69db      	ldr	r3, [r3, #28]
 8002b20:	429a      	cmp	r2, r3
 8002b22:	d121      	bne.n	8002b68 <HAL_RCC_OscConfig+0x4dc>
 8002b24:	68fb      	ldr	r3, [r7, #12]
 8002b26:	f003 023f 	and.w	r2, r3, #63	; 0x3f
 8002b2a:	687b      	ldr	r3, [r7, #4]
 8002b2c:	6a1b      	ldr	r3, [r3, #32]
 8002b2e:	429a      	cmp	r2, r3
 8002b30:	d11a      	bne.n	8002b68 <HAL_RCC_OscConfig+0x4dc>
 8002b32:	68fa      	ldr	r2, [r7, #12]
 8002b34:	f647 73c0 	movw	r3, #32704	; 0x7fc0
 8002b38:	4013      	ands	r3, r2
 8002b3a:	687a      	ldr	r2, [r7, #4]
 8002b3c:	6a52      	ldr	r2, [r2, #36]	; 0x24
 8002b3e:	0192      	lsls	r2, r2, #6
 8002b40:	4293      	cmp	r3, r2
 8002b42:	d111      	bne.n	8002b68 <HAL_RCC_OscConfig+0x4dc>
 8002b44:	68fb      	ldr	r3, [r7, #12]
 8002b46:	f403 3240 	and.w	r2, r3, #196608	; 0x30000
 8002b4a:	687b      	ldr	r3, [r7, #4]
 8002b4c:	6a9b      	ldr	r3, [r3, #40]	; 0x28
 8002b4e:	085b      	lsrs	r3, r3, #1
 8002b50:	3b01      	subs	r3, #1
 8002b52:	041b      	lsls	r3, r3, #16
 8002b54:	429a      	cmp	r2, r3
 8002b56:	d107      	bne.n	8002b68 <HAL_RCC_OscConfig+0x4dc>
 8002b58:	68fb      	ldr	r3, [r7, #12]
 8002b5a:	f003 6270 	and.w	r2, r3, #251658240	; 0xf000000
 8002b5e:	687b      	ldr	r3, [r7, #4]
 8002b60:	6adb      	ldr	r3, [r3, #44]	; 0x2c
 8002b62:	061b      	lsls	r3, r3, #24
 8002b64:	429a      	cmp	r2, r3
 8002b66:	d001      	beq.n	8002b6c <HAL_RCC_OscConfig+0x4e0>
 8002b68:	2301      	movs	r3, #1
 8002b6a:	e000      	b.n	8002b6e <HAL_RCC_OscConfig+0x4e2>
 8002b6c:	2300      	movs	r3, #0
 8002b6e:	4618      	mov	r0, r3
 8002b70:	3718      	adds	r7, #24
 8002b72:	46bd      	mov	sp, r7
 8002b74:	bd80      	pop	{r7, pc}
 8002b76:	bf00      	nop
 8002b78:	40023800 	.word	0x40023800

08002b7c <HAL_RCC_ClockConfig>:
 8002b7c:	b580      	push	{r7, lr}
 8002b7e:	b084      	sub	sp, #16
 8002b80:	af00      	add	r7, sp, #0
 8002b82:	6078      	str	r0, [r7, #4]
 8002b84:	6039      	str	r1, [r7, #0]
 8002b86:	687b      	ldr	r3, [r7, #4]
 8002b88:	2b00      	cmp	r3, #0
 8002b8a:	d101      	bne.n	8002b90 <HAL_RCC_ClockConfig+0x14>
 8002b8c:	2301      	movs	r3, #1
 8002b8e:	e0cc      	b.n	8002d2a <HAL_RCC_ClockConfig+0x1ae>
 8002b90:	4b68      	ldr	r3, [pc, #416]	; (8002d34 <HAL_RCC_ClockConfig+0x1b8>)
 8002b92:	681b      	ldr	r3, [r3, #0]
 8002b94:	f003 0307 	and.w	r3, r3, #7
 8002b98:	683a      	ldr	r2, [r7, #0]
 8002b9a:	429a      	cmp	r2, r3
 8002b9c:	d90c      	bls.n	8002bb8 <HAL_RCC_ClockConfig+0x3c>
 8002b9e:	4b65      	ldr	r3, [pc, #404]	; (8002d34 <HAL_RCC_ClockConfig+0x1b8>)
 8002ba0:	683a      	ldr	r2, [r7, #0]
 8002ba2:	b2d2      	uxtb	r2, r2
 8002ba4:	701a      	strb	r2, [r3, #0]
 8002ba6:	4b63      	ldr	r3, [pc, #396]	; (8002d34 <HAL_RCC_ClockConfig+0x1b8>)
 8002ba8:	681b      	ldr	r3, [r3, #0]
 8002baa:	f003 0307 	and.w	r3, r3, #7
 8002bae:	683a      	ldr	r2, [r7, #0]
 8002bb0:	429a      	cmp	r2, r3
 8002bb2:	d001      	beq.n	8002bb8 <HAL_RCC_ClockConfig+0x3c>
 8002bb4:	2301      	movs	r3, #1
 8002bb6:	e0b8      	b.n	8002d2a <HAL_RCC_ClockConfig+0x1ae>
 8002bb8:	687b      	ldr	r3, [r7, #4]
 8002bba:	681b      	ldr	r3, [r3, #0]
 8002bbc:	f003 0302 	and.w	r3, r3, #2
 8002bc0:	2b00      	cmp	r3, #0
 8002bc2:	d020      	beq.n	8002c06 <HAL_RCC_ClockConfig+0x8a>
 8002bc4:	687b      	ldr	r3, [r7, #4]
 8002bc6:	681b      	ldr	r3, [r3, #0]
 8002bc8:	f003 0304 	and.w	r3, r3, #4
 8002bcc:	2b00      	cmp	r3, #0
 8002bce:	d005      	beq.n	8002bdc <HAL_RCC_ClockConfig+0x60>
 8002bd0:	4b59      	ldr	r3, [pc, #356]	; (8002d38 <HAL_RCC_ClockConfig+0x1bc>)
 8002bd2:	689b      	ldr	r3, [r3, #8]
 8002bd4:	4a58      	ldr	r2, [pc, #352]	; (8002d38 <HAL_RCC_ClockConfig+0x1bc>)
 8002bd6:	f443 53e0 	orr.w	r3, r3, #7168	; 0x1c00
 8002bda:	6093      	str	r3, [r2, #8]
 8002bdc:	687b      	ldr	r3, [r7, #4]
 8002bde:	681b      	ldr	r3, [r3, #0]
 8002be0:	f003 0308 	and.w	r3, r3, #8
 8002be4:	2b00      	cmp	r3, #0
 8002be6:	d005      	beq.n	8002bf4 <HAL_RCC_ClockConfig+0x78>
 8002be8:	4b53      	ldr	r3, [pc, #332]	; (8002d38 <HAL_RCC_ClockConfig+0x1bc>)
 8002bea:	689b      	ldr	r3, [r3, #8]
 8002bec:	4a52      	ldr	r2, [pc, #328]	; (8002d38 <HAL_RCC_ClockConfig+0x1bc>)
 8002bee:	f443 4360 	orr.w	r3, r3, #57344	; 0xe000
 8002bf2:	6093      	str	r3, [r2, #8]
 8002bf4:	4b50      	ldr	r3, [pc, #320]	; (8002d38 <HAL_RCC_ClockConfig+0x1bc>)
 8002bf6:	689b      	ldr	r3, [r3, #8]
 8002bf8:	f023 02f0 	bic.w	r2, r3, #240	; 0xf0
 8002bfc:	687b      	ldr	r3, [r7, #4]
 8002bfe:	689b      	ldr	r3, [r3, #8]
 8002c00:	494d      	ldr	r1, [pc, #308]	; (8002d38 <HAL_RCC_ClockConfig+0x1bc>)
 8002c02:	4313      	orrs	r3, r2
 8002c04:	608b      	str	r3, [r1, #8]
 8002c06:	687b      	ldr	r3, [r7, #4]
 8002c08:	681b      	ldr	r3, [r3, #0]
 8002c0a:	f003 0301 	and.w	r3, r3, #1
 8002c0e:	2b00      	cmp	r3, #0
 8002c10:	d044      	beq.n	8002c9c <HAL_RCC_ClockConfig+0x120>
 8002c12:	687b      	ldr	r3, [r7, #4]
 8002c14:	685b      	ldr	r3, [r3, #4]
 8002c16:	2b01      	cmp	r3, #1
 8002c18:	d107      	bne.n	8002c2a <HAL_RCC_ClockConfig+0xae>
 8002c1a:	4b47      	ldr	r3, [pc, #284]	; (8002d38 <HAL_RCC_ClockConfig+0x1bc>)
 8002c1c:	681b      	ldr	r3, [r3, #0]
 8002c1e:	f403 3300 	and.w	r3, r3, #131072	; 0x20000
 8002c22:	2b00      	cmp	r3, #0
 8002c24:	d119      	bne.n	8002c5a <HAL_RCC_ClockConfig+0xde>
 8002c26:	2301      	movs	r3, #1
 8002c28:	e07f      	b.n	8002d2a <HAL_RCC_ClockConfig+0x1ae>
 8002c2a:	687b      	ldr	r3, [r7, #4]
 8002c2c:	685b      	ldr	r3, [r3, #4]
 8002c2e:	2b02      	cmp	r3, #2
 8002c30:	d003      	beq.n	8002c3a <HAL_RCC_ClockConfig+0xbe>
 8002c32:	687b      	ldr	r3, [r7, #4]
 8002c34:	685b      	ldr	r3, [r3, #4]
 8002c36:	2b03      	cmp	r3, #3
 8002c38:	d107      	bne.n	8002c4a <HAL_RCC_ClockConfig+0xce>
 8002c3a:	4b3f      	ldr	r3, [pc, #252]	; (8002d38 <HAL_RCC_ClockConfig+0x1bc>)
 8002c3c:	681b      	ldr	r3, [r3, #0]
 8002c3e:	f003 7300 	and.w	r3, r3, #33554432	; 0x2000000
 8002c42:	2b00      	cmp	r3, #0
 8002c44:	d109      	bne.n	8002c5a <HAL_RCC_ClockConfig+0xde>
 8002c46:	2301      	movs	r3, #1
 8002c48:	e06f      	b.n	8002d2a <HAL_RCC_ClockConfig+0x1ae>
 8002c4a:	4b3b      	ldr	r3, [pc, #236]	; (8002d38 <HAL_RCC_ClockConfig+0x1bc>)
 8002c4c:	681b      	ldr	r3, [r3, #0]
 8002c4e:	f003 0302 	and.w	r3, r3, #2
 8002c52:	2b00      	cmp	r3, #0
 8002c54:	d101      	bne.n	8002c5a <HAL_RCC_ClockConfig+0xde>
 8002c56:	2301      	movs	r3, #1
 8002c58:	e067      	b.n	8002d2a <HAL_RCC_ClockConfig+0x1ae>
 8002c5a:	4b37      	ldr	r3, [pc, #220]	; (8002d38 <HAL_RCC_ClockConfig+0x1bc>)
 8002c5c:	689b      	ldr	r3, [r3, #8]
 8002c5e:	f023 0203 	bic.w	r2, r3, #3
 8002c62:	687b      	ldr	r3, [r7, #4]
 8002c64:	685b      	ldr	r3, [r3, #4]
 8002c66:	4934      	ldr	r1, [pc, #208]	; (8002d38 <HAL_RCC_ClockConfig+0x1bc>)
 8002c68:	4313      	orrs	r3, r2
 8002c6a:	608b      	str	r3, [r1, #8]
 8002c6c:	f7fd ff68 	bl	8000b40 <HAL_GetTick>
 8002c70:	60f8      	str	r0, [r7, #12]
 8002c72:	e00a      	b.n	8002c8a <HAL_RCC_ClockConfig+0x10e>
 8002c74:	f7fd ff64 	bl	8000b40 <HAL_GetTick>
 8002c78:	4602      	mov	r2, r0
 8002c7a:	68fb      	ldr	r3, [r7, #12]
 8002c7c:	1ad3      	subs	r3, r2, r3
 8002c7e:	f241 3288 	movw	r2, #5000	; 0x1388
 8002c82:	4293      	cmp	r3, r2
 8002c84:	d901      	bls.n	8002c8a <HAL_RCC_ClockConfig+0x10e>
 8002c86:	2303      	movs	r3, #3
 8002c88:	e04f      	b.n	8002d2a <HAL_RCC_ClockConfig+0x1ae>
 8002c8a:	4b2b      	ldr	r3, [pc, #172]	; (8002d38 <HAL_RCC_ClockConfig+0x1bc>)
 8002c8c:	689b      	ldr	r3, [r3, #8]
 8002c8e:	f003 020c 	and.w	r2, r3, #12
 8002c92:	687b      	ldr	r3, [r7, #4]
 8002c94:	685b      	ldr	r3, [r3, #4]
 8002c96:	009b      	lsls	r3, r3, #2
 8002c98:	429a      	cmp	r2, r3
 8002c9a:	d1eb      	bne.n	8002c74 <HAL_RCC_ClockConfig+0xf8>
 8002c9c:	4b25      	ldr	r3, [pc, #148]	; (8002d34 <HAL_RCC_ClockConfig+0x1b8>)
 8002c9e:	681b      	ldr	r3, [r3, #0]
 8002ca0:	f003 0307 	and.w	r3, r3, #7
 8002ca4:	683a      	ldr	r2, [r7, #0]
 8002ca6:	429a      	cmp	r2, r3
 8002ca8:	d20c      	bcs.n	8002cc4 <HAL_RCC_ClockConfig+0x148>
 8002caa:	4b22      	ldr	r3, [pc, #136]	; (8002d34 <HAL_RCC_ClockConfig+0x1b8>)
 8002cac:	683a      	ldr	r2, [r7, #0]
 8002cae:	b2d2      	uxtb	r2, r2
 8002cb0:	701a      	strb	r2, [r3, #0]
 8002cb2:	4b20      	ldr	r3, [pc, #128]	; (8002d34 <HAL_RCC_ClockConfig+0x1b8>)
 8002cb4:	681b      	ldr	r3, [r3, #0]
 8002cb6:	f003 0307 	and.w	r3, r3, #7
 8002cba:	683a      	ldr	r2, [r7, #0]
 8002cbc:	429a      	cmp	r2, r3
 8002cbe:	d001      	beq.n	8002cc4 <HAL_RCC_ClockConfig+0x148>
 8002cc0:	2301      	movs	r3, #1
 8002cc2:	e032      	b.n	8002d2a <HAL_RCC_ClockConfig+0x1ae>
 8002cc4:	687b      	ldr	r3, [r7, #4]
 8002cc6:	681b      	ldr	r3, [r3, #0]
 8002cc8:	f003 0304 	and.w	r3, r3, #4
 8002ccc:	2b00      	cmp	r3, #0
 8002cce:	d008      	beq.n	8002ce2 <HAL_RCC_ClockConfig+0x166>
 8002cd0:	4b19      	ldr	r3, [pc, #100]	; (8002d38 <HAL_RCC_ClockConfig+0x1bc>)
 8002cd2:	689b      	ldr	r3, [r3, #8]
 8002cd4:	f423 52e0 	bic.w	r2, r3, #7168	; 0x1c00
 8002cd8:	687b      	ldr	r3, [r7, #4]
 8002cda:	68db      	ldr	r3, [r3, #12]
 8002cdc:	4916      	ldr	r1, [pc, #88]	; (8002d38 <HAL_RCC_ClockConfig+0x1bc>)
 8002cde:	4313      	orrs	r3, r2
 8002ce0:	608b      	str	r3, [r1, #8]
 8002ce2:	687b      	ldr	r3, [r7, #4]
 8002ce4:	681b      	ldr	r3, [r3, #0]
 8002ce6:	f003 0308 	and.w	r3, r3, #8
 8002cea:	2b00      	cmp	r3, #0
 8002cec:	d009      	beq.n	8002d02 <HAL_RCC_ClockConfig+0x186>
 8002cee:	4b12      	ldr	r3, [pc, #72]	; (8002d38 <HAL_RCC_ClockConfig+0x1bc>)
 8002cf0:	689b      	ldr	r3, [r3, #8]
 8002cf2:	f423 4260 	bic.w	r2, r3, #57344	; 0xe000
 8002cf6:	687b      	ldr	r3, [r7, #4]
 8002cf8:	691b      	ldr	r3, [r3, #16]
 8002cfa:	00db      	lsls	r3, r3, #3
 8002cfc:	490e      	ldr	r1, [pc, #56]	; (8002d38 <HAL_RCC_ClockConfig+0x1bc>)
 8002cfe:	4313      	orrs	r3, r2
 8002d00:	608b      	str	r3, [r1, #8]
 8002d02:	f000 f821 	bl	8002d48 <HAL_RCC_GetSysClockFreq>
 8002d06:	4602      	mov	r2, r0
 8002d08:	4b0b      	ldr	r3, [pc, #44]	; (8002d38 <HAL_RCC_ClockConfig+0x1bc>)
 8002d0a:	689b      	ldr	r3, [r3, #8]
 8002d0c:	091b      	lsrs	r3, r3, #4
 8002d0e:	f003 030f 	and.w	r3, r3, #15
 8002d12:	490a      	ldr	r1, [pc, #40]	; (8002d3c <HAL_RCC_ClockConfig+0x1c0>)
 8002d14:	5ccb      	ldrb	r3, [r1, r3]
 8002d16:	fa22 f303 	lsr.w	r3, r2, r3
 8002d1a:	4a09      	ldr	r2, [pc, #36]	; (8002d40 <HAL_RCC_ClockConfig+0x1c4>)
 8002d1c:	6013      	str	r3, [r2, #0]
 8002d1e:	4b09      	ldr	r3, [pc, #36]	; (8002d44 <HAL_RCC_ClockConfig+0x1c8>)
 8002d20:	681b      	ldr	r3, [r3, #0]
 8002d22:	4618      	mov	r0, r3
 8002d24:	f7fd fec8 	bl	8000ab8 <HAL_InitTick>
 8002d28:	2300      	movs	r3, #0
 8002d2a:	4618      	mov	r0, r3
 8002d2c:	3710      	adds	r7, #16
 8002d2e:	46bd      	mov	sp, r7
 8002d30:	bd80      	pop	{r7, pc}
 8002d32:	bf00      	nop
 8002d34:	40023c00 	.word	0x40023c00
 8002d38:	40023800 	.word	0x40023800
 8002d3c:	08007918 	.word	0x08007918
 8002d40:	20000048 	.word	0x20000048
 8002d44:	2000004c 	.word	0x2000004c

08002d48 <HAL_RCC_GetSysClockFreq>:
 8002d48:	e92d 4fb0 	stmdb	sp!, {r4, r5, r7, r8, r9, sl, fp, lr}
 8002d4c:	b094      	sub	sp, #80	; 0x50
 8002d4e:	af00      	add	r7, sp, #0
 8002d50:	2300      	movs	r3, #0
 8002d52:	647b      	str	r3, [r7, #68]	; 0x44
 8002d54:	2300      	movs	r3, #0
 8002d56:	64fb      	str	r3, [r7, #76]	; 0x4c
 8002d58:	2300      	movs	r3, #0
 8002d5a:	643b      	str	r3, [r7, #64]	; 0x40
 8002d5c:	2300      	movs	r3, #0
 8002d5e:	64bb      	str	r3, [r7, #72]	; 0x48
 8002d60:	4b79      	ldr	r3, [pc, #484]	; (8002f48 <HAL_RCC_GetSysClockFreq+0x200>)
 8002d62:	689b      	ldr	r3, [r3, #8]
 8002d64:	f003 030c 	and.w	r3, r3, #12
 8002d68:	2b08      	cmp	r3, #8
 8002d6a:	d00d      	beq.n	8002d88 <HAL_RCC_GetSysClockFreq+0x40>
 8002d6c:	2b08      	cmp	r3, #8
 8002d6e:	f200 80e1 	bhi.w	8002f34 <HAL_RCC_GetSysClockFreq+0x1ec>
 8002d72:	2b00      	cmp	r3, #0
 8002d74:	d002      	beq.n	8002d7c <HAL_RCC_GetSysClockFreq+0x34>
 8002d76:	2b04      	cmp	r3, #4
 8002d78:	d003      	beq.n	8002d82 <HAL_RCC_GetSysClockFreq+0x3a>
 8002d7a:	e0db      	b.n	8002f34 <HAL_RCC_GetSysClockFreq+0x1ec>
 8002d7c:	4b73      	ldr	r3, [pc, #460]	; (8002f4c <HAL_RCC_GetSysClockFreq+0x204>)
 8002d7e:	64bb      	str	r3, [r7, #72]	; 0x48
 8002d80:	e0db      	b.n	8002f3a <HAL_RCC_GetSysClockFreq+0x1f2>
 8002d82:	4b73      	ldr	r3, [pc, #460]	; (8002f50 <HAL_RCC_GetSysClockFreq+0x208>)
 8002d84:	64bb      	str	r3, [r7, #72]	; 0x48
 8002d86:	e0d8      	b.n	8002f3a <HAL_RCC_GetSysClockFreq+0x1f2>
 8002d88:	4b6f      	ldr	r3, [pc, #444]	; (8002f48 <HAL_RCC_GetSysClockFreq+0x200>)
 8002d8a:	685b      	ldr	r3, [r3, #4]
 8002d8c:	f003 033f 	and.w	r3, r3, #63	; 0x3f
 8002d90:	647b      	str	r3, [r7, #68]	; 0x44
 8002d92:	4b6d      	ldr	r3, [pc, #436]	; (8002f48 <HAL_RCC_GetSysClockFreq+0x200>)
 8002d94:	685b      	ldr	r3, [r3, #4]
 8002d96:	f403 0380 	and.w	r3, r3, #4194304	; 0x400000
 8002d9a:	2b00      	cmp	r3, #0
 8002d9c:	d063      	beq.n	8002e66 <HAL_RCC_GetSysClockFreq+0x11e>
 8002d9e:	4b6a      	ldr	r3, [pc, #424]	; (8002f48 <HAL_RCC_GetSysClockFreq+0x200>)
 8002da0:	685b      	ldr	r3, [r3, #4]
 8002da2:	099b      	lsrs	r3, r3, #6
 8002da4:	2200      	movs	r2, #0
 8002da6:	63bb      	str	r3, [r7, #56]	; 0x38
 8002da8:	63fa      	str	r2, [r7, #60]	; 0x3c
 8002daa:	6bbb      	ldr	r3, [r7, #56]	; 0x38
 8002dac:	f3c3 0308 	ubfx	r3, r3, #0, #9
 8002db0:	633b      	str	r3, [r7, #48]	; 0x30
 8002db2:	2300      	movs	r3, #0
 8002db4:	637b      	str	r3, [r7, #52]	; 0x34
 8002db6:	e9d7 450c 	ldrd	r4, r5, [r7, #48]	; 0x30
 8002dba:	4622      	mov	r2, r4
 8002dbc:	462b      	mov	r3, r5
 8002dbe:	f04f 0000 	mov.w	r0, #0
 8002dc2:	f04f 0100 	mov.w	r1, #0
 8002dc6:	0159      	lsls	r1, r3, #5
 8002dc8:	ea41 61d2 	orr.w	r1, r1, r2, lsr #27
 8002dcc:	0150      	lsls	r0, r2, #5
 8002dce:	4602      	mov	r2, r0
 8002dd0:	460b      	mov	r3, r1
 8002dd2:	4621      	mov	r1, r4
 8002dd4:	1a51      	subs	r1, r2, r1
 8002dd6:	6139      	str	r1, [r7, #16]
 8002dd8:	4629      	mov	r1, r5
 8002dda:	eb63 0301 	sbc.w	r3, r3, r1
 8002dde:	617b      	str	r3, [r7, #20]
 8002de0:	f04f 0200 	mov.w	r2, #0
 8002de4:	f04f 0300 	mov.w	r3, #0
 8002de8:	e9d7 ab04 	ldrd	sl, fp, [r7, #16]
 8002dec:	4659      	mov	r1, fp
 8002dee:	018b      	lsls	r3, r1, #6
 8002df0:	4651      	mov	r1, sl
 8002df2:	ea43 6391 	orr.w	r3, r3, r1, lsr #26
 8002df6:	4651      	mov	r1, sl
 8002df8:	018a      	lsls	r2, r1, #6
 8002dfa:	4651      	mov	r1, sl
 8002dfc:	ebb2 0801 	subs.w	r8, r2, r1
 8002e00:	4659      	mov	r1, fp
 8002e02:	eb63 0901 	sbc.w	r9, r3, r1
 8002e06:	f04f 0200 	mov.w	r2, #0
 8002e0a:	f04f 0300 	mov.w	r3, #0
 8002e0e:	ea4f 03c9 	mov.w	r3, r9, lsl #3
 8002e12:	ea43 7358 	orr.w	r3, r3, r8, lsr #29
 8002e16:	ea4f 02c8 	mov.w	r2, r8, lsl #3
 8002e1a:	4690      	mov	r8, r2
 8002e1c:	4699      	mov	r9, r3
 8002e1e:	4623      	mov	r3, r4
 8002e20:	eb18 0303 	adds.w	r3, r8, r3
 8002e24:	60bb      	str	r3, [r7, #8]
 8002e26:	462b      	mov	r3, r5
 8002e28:	eb49 0303 	adc.w	r3, r9, r3
 8002e2c:	60fb      	str	r3, [r7, #12]
 8002e2e:	f04f 0200 	mov.w	r2, #0
 8002e32:	f04f 0300 	mov.w	r3, #0
 8002e36:	e9d7 4502 	ldrd	r4, r5, [r7, #8]
 8002e3a:	4629      	mov	r1, r5
 8002e3c:	024b      	lsls	r3, r1, #9
 8002e3e:	4621      	mov	r1, r4
 8002e40:	ea43 53d1 	orr.w	r3, r3, r1, lsr #23
 8002e44:	4621      	mov	r1, r4
 8002e46:	024a      	lsls	r2, r1, #9
 8002e48:	4610      	mov	r0, r2
 8002e4a:	4619      	mov	r1, r3
 8002e4c:	6c7b      	ldr	r3, [r7, #68]	; 0x44
 8002e4e:	2200      	movs	r2, #0
 8002e50:	62bb      	str	r3, [r7, #40]	; 0x28
 8002e52:	62fa      	str	r2, [r7, #44]	; 0x2c
 8002e54:	e9d7 230a 	ldrd	r2, r3, [r7, #40]	; 0x28
 8002e58:	f7fd f9c8 	bl	80001ec <__aeabi_uldivmod>
 8002e5c:	4602      	mov	r2, r0
 8002e5e:	460b      	mov	r3, r1
 8002e60:	4613      	mov	r3, r2
 8002e62:	64fb      	str	r3, [r7, #76]	; 0x4c
 8002e64:	e058      	b.n	8002f18 <HAL_RCC_GetSysClockFreq+0x1d0>
 8002e66:	4b38      	ldr	r3, [pc, #224]	; (8002f48 <HAL_RCC_GetSysClockFreq+0x200>)
 8002e68:	685b      	ldr	r3, [r3, #4]
 8002e6a:	099b      	lsrs	r3, r3, #6
 8002e6c:	2200      	movs	r2, #0
 8002e6e:	4618      	mov	r0, r3
 8002e70:	4611      	mov	r1, r2
 8002e72:	f3c0 0308 	ubfx	r3, r0, #0, #9
 8002e76:	623b      	str	r3, [r7, #32]
 8002e78:	2300      	movs	r3, #0
 8002e7a:	627b      	str	r3, [r7, #36]	; 0x24
 8002e7c:	e9d7 8908 	ldrd	r8, r9, [r7, #32]
 8002e80:	4642      	mov	r2, r8
 8002e82:	464b      	mov	r3, r9
 8002e84:	f04f 0000 	mov.w	r0, #0
 8002e88:	f04f 0100 	mov.w	r1, #0
 8002e8c:	0159      	lsls	r1, r3, #5
 8002e8e:	ea41 61d2 	orr.w	r1, r1, r2, lsr #27
 8002e92:	0150      	lsls	r0, r2, #5
 8002e94:	4602      	mov	r2, r0
 8002e96:	460b      	mov	r3, r1
 8002e98:	4641      	mov	r1, r8
 8002e9a:	ebb2 0a01 	subs.w	sl, r2, r1
 8002e9e:	4649      	mov	r1, r9
 8002ea0:	eb63 0b01 	sbc.w	fp, r3, r1
 8002ea4:	f04f 0200 	mov.w	r2, #0
 8002ea8:	f04f 0300 	mov.w	r3, #0
 8002eac:	ea4f 138b 	mov.w	r3, fp, lsl #6
 8002eb0:	ea43 639a 	orr.w	r3, r3, sl, lsr #26
 8002eb4:	ea4f 128a 	mov.w	r2, sl, lsl #6
 8002eb8:	ebb2 040a 	subs.w	r4, r2, sl
 8002ebc:	eb63 050b 	sbc.w	r5, r3, fp
 8002ec0:	f04f 0200 	mov.w	r2, #0
 8002ec4:	f04f 0300 	mov.w	r3, #0
 8002ec8:	00eb      	lsls	r3, r5, #3
 8002eca:	ea43 7354 	orr.w	r3, r3, r4, lsr #29
 8002ece:	00e2      	lsls	r2, r4, #3
 8002ed0:	4614      	mov	r4, r2
 8002ed2:	461d      	mov	r5, r3
 8002ed4:	4643      	mov	r3, r8
 8002ed6:	18e3      	adds	r3, r4, r3
 8002ed8:	603b      	str	r3, [r7, #0]
 8002eda:	464b      	mov	r3, r9
 8002edc:	eb45 0303 	adc.w	r3, r5, r3
 8002ee0:	607b      	str	r3, [r7, #4]
 8002ee2:	f04f 0200 	mov.w	r2, #0
 8002ee6:	f04f 0300 	mov.w	r3, #0
 8002eea:	e9d7 4500 	ldrd	r4, r5, [r7]
 8002eee:	4629      	mov	r1, r5
 8002ef0:	028b      	lsls	r3, r1, #10
 8002ef2:	4621      	mov	r1, r4
 8002ef4:	ea43 5391 	orr.w	r3, r3, r1, lsr #22
 8002ef8:	4621      	mov	r1, r4
 8002efa:	028a      	lsls	r2, r1, #10
 8002efc:	4610      	mov	r0, r2
 8002efe:	4619      	mov	r1, r3
 8002f00:	6c7b      	ldr	r3, [r7, #68]	; 0x44
 8002f02:	2200      	movs	r2, #0
 8002f04:	61bb      	str	r3, [r7, #24]
 8002f06:	61fa      	str	r2, [r7, #28]
 8002f08:	e9d7 2306 	ldrd	r2, r3, [r7, #24]
 8002f0c:	f7fd f96e 	bl	80001ec <__aeabi_uldivmod>
 8002f10:	4602      	mov	r2, r0
 8002f12:	460b      	mov	r3, r1
 8002f14:	4613      	mov	r3, r2
 8002f16:	64fb      	str	r3, [r7, #76]	; 0x4c
 8002f18:	4b0b      	ldr	r3, [pc, #44]	; (8002f48 <HAL_RCC_GetSysClockFreq+0x200>)
 8002f1a:	685b      	ldr	r3, [r3, #4]
 8002f1c:	0c1b      	lsrs	r3, r3, #16
 8002f1e:	f003 0303 	and.w	r3, r3, #3
 8002f22:	3301      	adds	r3, #1
 8002f24:	005b      	lsls	r3, r3, #1
 8002f26:	643b      	str	r3, [r7, #64]	; 0x40
 8002f28:	6cfa      	ldr	r2, [r7, #76]	; 0x4c
 8002f2a:	6c3b      	ldr	r3, [r7, #64]	; 0x40
 8002f2c:	fbb2 f3f3 	udiv	r3, r2, r3
 8002f30:	64bb      	str	r3, [r7, #72]	; 0x48
 8002f32:	e002      	b.n	8002f3a <HAL_RCC_GetSysClockFreq+0x1f2>
 8002f34:	4b05      	ldr	r3, [pc, #20]	; (8002f4c <HAL_RCC_GetSysClockFreq+0x204>)
 8002f36:	64bb      	str	r3, [r7, #72]	; 0x48
 8002f38:	bf00      	nop
 8002f3a:	6cbb      	ldr	r3, [r7, #72]	; 0x48
 8002f3c:	4618      	mov	r0, r3
 8002f3e:	3750      	adds	r7, #80	; 0x50
 8002f40:	46bd      	mov	sp, r7
 8002f42:	e8bd 8fb0 	ldmia.w	sp!, {r4, r5, r7, r8, r9, sl, fp, pc}
 8002f46:	bf00      	nop
 8002f48:	40023800 	.word	0x40023800
 8002f4c:	00f42400 	.word	0x00f42400
 8002f50:	007a1200 	.word	0x007a1200

08002f54 <HAL_RCC_GetHCLKFreq>:
 8002f54:	b480      	push	{r7}
 8002f56:	af00      	add	r7, sp, #0
 8002f58:	4b03      	ldr	r3, [pc, #12]	; (8002f68 <HAL_RCC_GetHCLKFreq+0x14>)
 8002f5a:	681b      	ldr	r3, [r3, #0]
 8002f5c:	4618      	mov	r0, r3
 8002f5e:	46bd      	mov	sp, r7
 8002f60:	f85d 7b04 	ldr.w	r7, [sp], #4
 8002f64:	4770      	bx	lr
 8002f66:	bf00      	nop
 8002f68:	20000048 	.word	0x20000048

08002f6c <HAL_TIM_Base_Init>:
 8002f6c:	b580      	push	{r7, lr}
 8002f6e:	b082      	sub	sp, #8
 8002f70:	af00      	add	r7, sp, #0
 8002f72:	6078      	str	r0, [r7, #4]
 8002f74:	687b      	ldr	r3, [r7, #4]
 8002f76:	2b00      	cmp	r3, #0
 8002f78:	d101      	bne.n	8002f7e <HAL_TIM_Base_Init+0x12>
 8002f7a:	2301      	movs	r3, #1
 8002f7c:	e041      	b.n	8003002 <HAL_TIM_Base_Init+0x96>
 8002f7e:	687b      	ldr	r3, [r7, #4]
 8002f80:	f893 303d 	ldrb.w	r3, [r3, #61]	; 0x3d
 8002f84:	b2db      	uxtb	r3, r3
 8002f86:	2b00      	cmp	r3, #0
 8002f88:	d106      	bne.n	8002f98 <HAL_TIM_Base_Init+0x2c>
 8002f8a:	687b      	ldr	r3, [r7, #4]
 8002f8c:	2200      	movs	r2, #0
 8002f8e:	f883 203c 	strb.w	r2, [r3, #60]	; 0x3c
 8002f92:	6878      	ldr	r0, [r7, #4]
 8002f94:	f7fd fcbe 	bl	8000914 <HAL_TIM_Base_MspInit>
 8002f98:	687b      	ldr	r3, [r7, #4]
 8002f9a:	2202      	movs	r2, #2
 8002f9c:	f883 203d 	strb.w	r2, [r3, #61]	; 0x3d
 8002fa0:	687b      	ldr	r3, [r7, #4]
 8002fa2:	681a      	ldr	r2, [r3, #0]
 8002fa4:	687b      	ldr	r3, [r7, #4]
 8002fa6:	3304      	adds	r3, #4
 8002fa8:	4619      	mov	r1, r3
 8002faa:	4610      	mov	r0, r2
 8002fac:	f000 f9d0 	bl	8003350 <TIM_Base_SetConfig>
 8002fb0:	687b      	ldr	r3, [r7, #4]
 8002fb2:	2201      	movs	r2, #1
 8002fb4:	f883 2046 	strb.w	r2, [r3, #70]	; 0x46
 8002fb8:	687b      	ldr	r3, [r7, #4]
 8002fba:	2201      	movs	r2, #1
 8002fbc:	f883 203e 	strb.w	r2, [r3, #62]	; 0x3e
 8002fc0:	687b      	ldr	r3, [r7, #4]
 8002fc2:	2201      	movs	r2, #1
 8002fc4:	f883 203f 	strb.w	r2, [r3, #63]	; 0x3f
 8002fc8:	687b      	ldr	r3, [r7, #4]
 8002fca:	2201      	movs	r2, #1
 8002fcc:	f883 2040 	strb.w	r2, [r3, #64]	; 0x40
 8002fd0:	687b      	ldr	r3, [r7, #4]
 8002fd2:	2201      	movs	r2, #1
 8002fd4:	f883 2041 	strb.w	r2, [r3, #65]	; 0x41
 8002fd8:	687b      	ldr	r3, [r7, #4]
 8002fda:	2201      	movs	r2, #1
 8002fdc:	f883 2042 	strb.w	r2, [r3, #66]	; 0x42
 8002fe0:	687b      	ldr	r3, [r7, #4]
 8002fe2:	2201      	movs	r2, #1
 8002fe4:	f883 2043 	strb.w	r2, [r3, #67]	; 0x43
 8002fe8:	687b      	ldr	r3, [r7, #4]
 8002fea:	2201      	movs	r2, #1
 8002fec:	f883 2044 	strb.w	r2, [r3, #68]	; 0x44
 8002ff0:	687b      	ldr	r3, [r7, #4]
 8002ff2:	2201      	movs	r2, #1
 8002ff4:	f883 2045 	strb.w	r2, [r3, #69]	; 0x45
 8002ff8:	687b      	ldr	r3, [r7, #4]
 8002ffa:	2201      	movs	r2, #1
 8002ffc:	f883 203d 	strb.w	r2, [r3, #61]	; 0x3d
 8003000:	2300      	movs	r3, #0
 8003002:	4618      	mov	r0, r3
 8003004:	3708      	adds	r7, #8
 8003006:	46bd      	mov	sp, r7
 8003008:	bd80      	pop	{r7, pc}
	...

0800300c <HAL_TIM_Base_Start>:
 800300c:	b480      	push	{r7}
 800300e:	b085      	sub	sp, #20
 8003010:	af00      	add	r7, sp, #0
 8003012:	6078      	str	r0, [r7, #4]
 8003014:	687b      	ldr	r3, [r7, #4]
 8003016:	f893 303d 	ldrb.w	r3, [r3, #61]	; 0x3d
 800301a:	b2db      	uxtb	r3, r3
 800301c:	2b01      	cmp	r3, #1
 800301e:	d001      	beq.n	8003024 <HAL_TIM_Base_Start+0x18>
 8003020:	2301      	movs	r3, #1
 8003022:	e046      	b.n	80030b2 <HAL_TIM_Base_Start+0xa6>
 8003024:	687b      	ldr	r3, [r7, #4]
 8003026:	2202      	movs	r2, #2
 8003028:	f883 203d 	strb.w	r2, [r3, #61]	; 0x3d
 800302c:	687b      	ldr	r3, [r7, #4]
 800302e:	681b      	ldr	r3, [r3, #0]
 8003030:	4a23      	ldr	r2, [pc, #140]	; (80030c0 <HAL_TIM_Base_Start+0xb4>)
 8003032:	4293      	cmp	r3, r2
 8003034:	d022      	beq.n	800307c <HAL_TIM_Base_Start+0x70>
 8003036:	687b      	ldr	r3, [r7, #4]
 8003038:	681b      	ldr	r3, [r3, #0]
 800303a:	f1b3 4f80 	cmp.w	r3, #1073741824	; 0x40000000
 800303e:	d01d      	beq.n	800307c <HAL_TIM_Base_Start+0x70>
 8003040:	687b      	ldr	r3, [r7, #4]
 8003042:	681b      	ldr	r3, [r3, #0]
 8003044:	4a1f      	ldr	r2, [pc, #124]	; (80030c4 <HAL_TIM_Base_Start+0xb8>)
 8003046:	4293      	cmp	r3, r2
 8003048:	d018      	beq.n	800307c <HAL_TIM_Base_Start+0x70>
 800304a:	687b      	ldr	r3, [r7, #4]
 800304c:	681b      	ldr	r3, [r3, #0]
 800304e:	4a1e      	ldr	r2, [pc, #120]	; (80030c8 <HAL_TIM_Base_Start+0xbc>)
 8003050:	4293      	cmp	r3, r2
 8003052:	d013      	beq.n	800307c <HAL_TIM_Base_Start+0x70>
 8003054:	687b      	ldr	r3, [r7, #4]
 8003056:	681b      	ldr	r3, [r3, #0]
 8003058:	4a1c      	ldr	r2, [pc, #112]	; (80030cc <HAL_TIM_Base_Start+0xc0>)
 800305a:	4293      	cmp	r3, r2
 800305c:	d00e      	beq.n	800307c <HAL_TIM_Base_Start+0x70>
 800305e:	687b      	ldr	r3, [r7, #4]
 8003060:	681b      	ldr	r3, [r3, #0]
 8003062:	4a1b      	ldr	r2, [pc, #108]	; (80030d0 <HAL_TIM_Base_Start+0xc4>)
 8003064:	4293      	cmp	r3, r2
 8003066:	d009      	beq.n	800307c <HAL_TIM_Base_Start+0x70>
 8003068:	687b      	ldr	r3, [r7, #4]
 800306a:	681b      	ldr	r3, [r3, #0]
 800306c:	4a19      	ldr	r2, [pc, #100]	; (80030d4 <HAL_TIM_Base_Start+0xc8>)
 800306e:	4293      	cmp	r3, r2
 8003070:	d004      	beq.n	800307c <HAL_TIM_Base_Start+0x70>
 8003072:	687b      	ldr	r3, [r7, #4]
 8003074:	681b      	ldr	r3, [r3, #0]
 8003076:	4a18      	ldr	r2, [pc, #96]	; (80030d8 <HAL_TIM_Base_Start+0xcc>)
 8003078:	4293      	cmp	r3, r2
 800307a:	d111      	bne.n	80030a0 <HAL_TIM_Base_Start+0x94>
 800307c:	687b      	ldr	r3, [r7, #4]
 800307e:	681b      	ldr	r3, [r3, #0]
 8003080:	689b      	ldr	r3, [r3, #8]
 8003082:	f003 0307 	and.w	r3, r3, #7
 8003086:	60fb      	str	r3, [r7, #12]
 8003088:	68fb      	ldr	r3, [r7, #12]
 800308a:	2b06      	cmp	r3, #6
 800308c:	d010      	beq.n	80030b0 <HAL_TIM_Base_Start+0xa4>
 800308e:	687b      	ldr	r3, [r7, #4]
 8003090:	681b      	ldr	r3, [r3, #0]
 8003092:	681a      	ldr	r2, [r3, #0]
 8003094:	687b      	ldr	r3, [r7, #4]
 8003096:	681b      	ldr	r3, [r3, #0]
 8003098:	f042 0201 	orr.w	r2, r2, #1
 800309c:	601a      	str	r2, [r3, #0]
 800309e:	e007      	b.n	80030b0 <HAL_TIM_Base_Start+0xa4>
 80030a0:	687b      	ldr	r3, [r7, #4]
 80030a2:	681b      	ldr	r3, [r3, #0]
 80030a4:	681a      	ldr	r2, [r3, #0]
 80030a6:	687b      	ldr	r3, [r7, #4]
 80030a8:	681b      	ldr	r3, [r3, #0]
 80030aa:	f042 0201 	orr.w	r2, r2, #1
 80030ae:	601a      	str	r2, [r3, #0]
 80030b0:	2300      	movs	r3, #0
 80030b2:	4618      	mov	r0, r3
 80030b4:	3714      	adds	r7, #20
 80030b6:	46bd      	mov	sp, r7
 80030b8:	f85d 7b04 	ldr.w	r7, [sp], #4
 80030bc:	4770      	bx	lr
 80030be:	bf00      	nop
 80030c0:	40010000 	.word	0x40010000
 80030c4:	40000400 	.word	0x40000400
 80030c8:	40000800 	.word	0x40000800
 80030cc:	40000c00 	.word	0x40000c00
 80030d0:	40010400 	.word	0x40010400
 80030d4:	40014000 	.word	0x40014000
 80030d8:	40001800 	.word	0x40001800

080030dc <HAL_TIM_IRQHandler>:
 80030dc:	b580      	push	{r7, lr}
 80030de:	b082      	sub	sp, #8
 80030e0:	af00      	add	r7, sp, #0
 80030e2:	6078      	str	r0, [r7, #4]
 80030e4:	687b      	ldr	r3, [r7, #4]
 80030e6:	681b      	ldr	r3, [r3, #0]
 80030e8:	691b      	ldr	r3, [r3, #16]
 80030ea:	f003 0302 	and.w	r3, r3, #2
 80030ee:	2b02      	cmp	r3, #2
 80030f0:	d122      	bne.n	8003138 <HAL_TIM_IRQHandler+0x5c>
 80030f2:	687b      	ldr	r3, [r7, #4]
 80030f4:	681b      	ldr	r3, [r3, #0]
 80030f6:	68db      	ldr	r3, [r3, #12]
 80030f8:	f003 0302 	and.w	r3, r3, #2
 80030fc:	2b02      	cmp	r3, #2
 80030fe:	d11b      	bne.n	8003138 <HAL_TIM_IRQHandler+0x5c>
 8003100:	687b      	ldr	r3, [r7, #4]
 8003102:	681b      	ldr	r3, [r3, #0]
 8003104:	f06f 0202 	mvn.w	r2, #2
 8003108:	611a      	str	r2, [r3, #16]
 800310a:	687b      	ldr	r3, [r7, #4]
 800310c:	2201      	movs	r2, #1
 800310e:	771a      	strb	r2, [r3, #28]
 8003110:	687b      	ldr	r3, [r7, #4]
 8003112:	681b      	ldr	r3, [r3, #0]
 8003114:	699b      	ldr	r3, [r3, #24]
 8003116:	f003 0303 	and.w	r3, r3, #3
 800311a:	2b00      	cmp	r3, #0
 800311c:	d003      	beq.n	8003126 <HAL_TIM_IRQHandler+0x4a>
 800311e:	6878      	ldr	r0, [r7, #4]
 8003120:	f000 f8f8 	bl	8003314 <HAL_TIM_IC_CaptureCallback>
 8003124:	e005      	b.n	8003132 <HAL_TIM_IRQHandler+0x56>
 8003126:	6878      	ldr	r0, [r7, #4]
 8003128:	f000 f8ea 	bl	8003300 <HAL_TIM_OC_DelayElapsedCallback>
 800312c:	6878      	ldr	r0, [r7, #4]
 800312e:	f000 f8fb 	bl	8003328 <HAL_TIM_PWM_PulseFinishedCallback>
 8003132:	687b      	ldr	r3, [r7, #4]
 8003134:	2200      	movs	r2, #0
 8003136:	771a      	strb	r2, [r3, #28]
 8003138:	687b      	ldr	r3, [r7, #4]
 800313a:	681b      	ldr	r3, [r3, #0]
 800313c:	691b      	ldr	r3, [r3, #16]
 800313e:	f003 0304 	and.w	r3, r3, #4
 8003142:	2b04      	cmp	r3, #4
 8003144:	d122      	bne.n	800318c <HAL_TIM_IRQHandler+0xb0>
 8003146:	687b      	ldr	r3, [r7, #4]
 8003148:	681b      	ldr	r3, [r3, #0]
 800314a:	68db      	ldr	r3, [r3, #12]
 800314c:	f003 0304 	and.w	r3, r3, #4
 8003150:	2b04      	cmp	r3, #4
 8003152:	d11b      	bne.n	800318c <HAL_TIM_IRQHandler+0xb0>
 8003154:	687b      	ldr	r3, [r7, #4]
 8003156:	681b      	ldr	r3, [r3, #0]
 8003158:	f06f 0204 	mvn.w	r2, #4
 800315c:	611a      	str	r2, [r3, #16]
 800315e:	687b      	ldr	r3, [r7, #4]
 8003160:	2202      	movs	r2, #2
 8003162:	771a      	strb	r2, [r3, #28]
 8003164:	687b      	ldr	r3, [r7, #4]
 8003166:	681b      	ldr	r3, [r3, #0]
 8003168:	699b      	ldr	r3, [r3, #24]
 800316a:	f403 7340 	and.w	r3, r3, #768	; 0x300
 800316e:	2b00      	cmp	r3, #0
 8003170:	d003      	beq.n	800317a <HAL_TIM_IRQHandler+0x9e>
 8003172:	6878      	ldr	r0, [r7, #4]
 8003174:	f000 f8ce 	bl	8003314 <HAL_TIM_IC_CaptureCallback>
 8003178:	e005      	b.n	8003186 <HAL_TIM_IRQHandler+0xaa>
 800317a:	6878      	ldr	r0, [r7, #4]
 800317c:	f000 f8c0 	bl	8003300 <HAL_TIM_OC_DelayElapsedCallback>
 8003180:	6878      	ldr	r0, [r7, #4]
 8003182:	f000 f8d1 	bl	8003328 <HAL_TIM_PWM_PulseFinishedCallback>
 8003186:	687b      	ldr	r3, [r7, #4]
 8003188:	2200      	movs	r2, #0
 800318a:	771a      	strb	r2, [r3, #28]
 800318c:	687b      	ldr	r3, [r7, #4]
 800318e:	681b      	ldr	r3, [r3, #0]
 8003190:	691b      	ldr	r3, [r3, #16]
 8003192:	f003 0308 	and.w	r3, r3, #8
 8003196:	2b08      	cmp	r3, #8
 8003198:	d122      	bne.n	80031e0 <HAL_TIM_IRQHandler+0x104>
 800319a:	687b      	ldr	r3, [r7, #4]
 800319c:	681b      	ldr	r3, [r3, #0]
 800319e:	68db      	ldr	r3, [r3, #12]
 80031a0:	f003 0308 	and.w	r3, r3, #8
 80031a4:	2b08      	cmp	r3, #8
 80031a6:	d11b      	bne.n	80031e0 <HAL_TIM_IRQHandler+0x104>
 80031a8:	687b      	ldr	r3, [r7, #4]
 80031aa:	681b      	ldr	r3, [r3, #0]
 80031ac:	f06f 0208 	mvn.w	r2, #8
 80031b0:	611a      	str	r2, [r3, #16]
 80031b2:	687b      	ldr	r3, [r7, #4]
 80031b4:	2204      	movs	r2, #4
 80031b6:	771a      	strb	r2, [r3, #28]
 80031b8:	687b      	ldr	r3, [r7, #4]
 80031ba:	681b      	ldr	r3, [r3, #0]
 80031bc:	69db      	ldr	r3, [r3, #28]
 80031be:	f003 0303 	and.w	r3, r3, #3
 80031c2:	2b00      	cmp	r3, #0
 80031c4:	d003      	beq.n	80031ce <HAL_TIM_IRQHandler+0xf2>
 80031c6:	6878      	ldr	r0, [r7, #4]
 80031c8:	f000 f8a4 	bl	8003314 <HAL_TIM_IC_CaptureCallback>
 80031cc:	e005      	b.n	80031da <HAL_TIM_IRQHandler+0xfe>
 80031ce:	6878      	ldr	r0, [r7, #4]
 80031d0:	f000 f896 	bl	8003300 <HAL_TIM_OC_DelayElapsedCallback>
 80031d4:	6878      	ldr	r0, [r7, #4]
 80031d6:	f000 f8a7 	bl	8003328 <HAL_TIM_PWM_PulseFinishedCallback>
 80031da:	687b      	ldr	r3, [r7, #4]
 80031dc:	2200      	movs	r2, #0
 80031de:	771a      	strb	r2, [r3, #28]
 80031e0:	687b      	ldr	r3, [r7, #4]
 80031e2:	681b      	ldr	r3, [r3, #0]
 80031e4:	691b      	ldr	r3, [r3, #16]
 80031e6:	f003 0310 	and.w	r3, r3, #16
 80031ea:	2b10      	cmp	r3, #16
 80031ec:	d122      	bne.n	8003234 <HAL_TIM_IRQHandler+0x158>
 80031ee:	687b      	ldr	r3, [r7, #4]
 80031f0:	681b      	ldr	r3, [r3, #0]
 80031f2:	68db      	ldr	r3, [r3, #12]
 80031f4:	f003 0310 	and.w	r3, r3, #16
 80031f8:	2b10      	cmp	r3, #16
 80031fa:	d11b      	bne.n	8003234 <HAL_TIM_IRQHandler+0x158>
 80031fc:	687b      	ldr	r3, [r7, #4]
 80031fe:	681b      	ldr	r3, [r3, #0]
 8003200:	f06f 0210 	mvn.w	r2, #16
 8003204:	611a      	str	r2, [r3, #16]
 8003206:	687b      	ldr	r3, [r7, #4]
 8003208:	2208      	movs	r2, #8
 800320a:	771a      	strb	r2, [r3, #28]
 800320c:	687b      	ldr	r3, [r7, #4]
 800320e:	681b      	ldr	r3, [r3, #0]
 8003210:	69db      	ldr	r3, [r3, #28]
 8003212:	f403 7340 	and.w	r3, r3, #768	; 0x300
 8003216:	2b00      	cmp	r3, #0
 8003218:	d003      	beq.n	8003222 <HAL_TIM_IRQHandler+0x146>
 800321a:	6878      	ldr	r0, [r7, #4]
 800321c:	f000 f87a 	bl	8003314 <HAL_TIM_IC_CaptureCallback>
 8003220:	e005      	b.n	800322e <HAL_TIM_IRQHandler+0x152>
 8003222:	6878      	ldr	r0, [r7, #4]
 8003224:	f000 f86c 	bl	8003300 <HAL_TIM_OC_DelayElapsedCallback>
 8003228:	6878      	ldr	r0, [r7, #4]
 800322a:	f000 f87d 	bl	8003328 <HAL_TIM_PWM_PulseFinishedCallback>
 800322e:	687b      	ldr	r3, [r7, #4]
 8003230:	2200      	movs	r2, #0
 8003232:	771a      	strb	r2, [r3, #28]
 8003234:	687b      	ldr	r3, [r7, #4]
 8003236:	681b      	ldr	r3, [r3, #0]
 8003238:	691b      	ldr	r3, [r3, #16]
 800323a:	f003 0301 	and.w	r3, r3, #1
 800323e:	2b01      	cmp	r3, #1
 8003240:	d10e      	bne.n	8003260 <HAL_TIM_IRQHandler+0x184>
 8003242:	687b      	ldr	r3, [r7, #4]
 8003244:	681b      	ldr	r3, [r3, #0]
 8003246:	68db      	ldr	r3, [r3, #12]
 8003248:	f003 0301 	and.w	r3, r3, #1
 800324c:	2b01      	cmp	r3, #1
 800324e:	d107      	bne.n	8003260 <HAL_TIM_IRQHandler+0x184>
 8003250:	687b      	ldr	r3, [r7, #4]
 8003252:	681b      	ldr	r3, [r3, #0]
 8003254:	f06f 0201 	mvn.w	r2, #1
 8003258:	611a      	str	r2, [r3, #16]
 800325a:	6878      	ldr	r0, [r7, #4]
 800325c:	f000 f846 	bl	80032ec <HAL_TIM_PeriodElapsedCallback>
 8003260:	687b      	ldr	r3, [r7, #4]
 8003262:	681b      	ldr	r3, [r3, #0]
 8003264:	691b      	ldr	r3, [r3, #16]
 8003266:	f003 0380 	and.w	r3, r3, #128	; 0x80
 800326a:	2b80      	cmp	r3, #128	; 0x80
 800326c:	d10e      	bne.n	800328c <HAL_TIM_IRQHandler+0x1b0>
 800326e:	687b      	ldr	r3, [r7, #4]
 8003270:	681b      	ldr	r3, [r3, #0]
 8003272:	68db      	ldr	r3, [r3, #12]
 8003274:	f003 0380 	and.w	r3, r3, #128	; 0x80
 8003278:	2b80      	cmp	r3, #128	; 0x80
 800327a:	d107      	bne.n	800328c <HAL_TIM_IRQHandler+0x1b0>
 800327c:	687b      	ldr	r3, [r7, #4]
 800327e:	681b      	ldr	r3, [r3, #0]
 8003280:	f06f 0280 	mvn.w	r2, #128	; 0x80
 8003284:	611a      	str	r2, [r3, #16]
 8003286:	6878      	ldr	r0, [r7, #4]
 8003288:	f000 f988 	bl	800359c <HAL_TIMEx_BreakCallback>
 800328c:	687b      	ldr	r3, [r7, #4]
 800328e:	681b      	ldr	r3, [r3, #0]
 8003290:	691b      	ldr	r3, [r3, #16]
 8003292:	f003 0340 	and.w	r3, r3, #64	; 0x40
 8003296:	2b40      	cmp	r3, #64	; 0x40
 8003298:	d10e      	bne.n	80032b8 <HAL_TIM_IRQHandler+0x1dc>
 800329a:	687b      	ldr	r3, [r7, #4]
 800329c:	681b      	ldr	r3, [r3, #0]
 800329e:	68db      	ldr	r3, [r3, #12]
 80032a0:	f003 0340 	and.w	r3, r3, #64	; 0x40
 80032a4:	2b40      	cmp	r3, #64	; 0x40
 80032a6:	d107      	bne.n	80032b8 <HAL_TIM_IRQHandler+0x1dc>
 80032a8:	687b      	ldr	r3, [r7, #4]
 80032aa:	681b      	ldr	r3, [r3, #0]
 80032ac:	f06f 0240 	mvn.w	r2, #64	; 0x40
 80032b0:	611a      	str	r2, [r3, #16]
 80032b2:	6878      	ldr	r0, [r7, #4]
 80032b4:	f000 f842 	bl	800333c <HAL_TIM_TriggerCallback>
 80032b8:	687b      	ldr	r3, [r7, #4]
 80032ba:	681b      	ldr	r3, [r3, #0]
 80032bc:	691b      	ldr	r3, [r3, #16]
 80032be:	f003 0320 	and.w	r3, r3, #32
 80032c2:	2b20      	cmp	r3, #32
 80032c4:	d10e      	bne.n	80032e4 <HAL_TIM_IRQHandler+0x208>
 80032c6:	687b      	ldr	r3, [r7, #4]
 80032c8:	681b      	ldr	r3, [r3, #0]
 80032ca:	68db      	ldr	r3, [r3, #12]
 80032cc:	f003 0320 	and.w	r3, r3, #32
 80032d0:	2b20      	cmp	r3, #32
 80032d2:	d107      	bne.n	80032e4 <HAL_TIM_IRQHandler+0x208>
 80032d4:	687b      	ldr	r3, [r7, #4]
 80032d6:	681b      	ldr	r3, [r3, #0]
 80032d8:	f06f 0220 	mvn.w	r2, #32
 80032dc:	611a      	str	r2, [r3, #16]
 80032de:	6878      	ldr	r0, [r7, #4]
 80032e0:	f000 f952 	bl	8003588 <HAL_TIMEx_CommutCallback>
 80032e4:	bf00      	nop
 80032e6:	3708      	adds	r7, #8
 80032e8:	46bd      	mov	sp, r7
 80032ea:	bd80      	pop	{r7, pc}

080032ec <HAL_TIM_PeriodElapsedCallback>:
 80032ec:	b480      	push	{r7}
 80032ee:	b083      	sub	sp, #12
 80032f0:	af00      	add	r7, sp, #0
 80032f2:	6078      	str	r0, [r7, #4]
 80032f4:	bf00      	nop
 80032f6:	370c      	adds	r7, #12
 80032f8:	46bd      	mov	sp, r7
 80032fa:	f85d 7b04 	ldr.w	r7, [sp], #4
 80032fe:	4770      	bx	lr

08003300 <HAL_TIM_OC_DelayElapsedCallback>:
 8003300:	b480      	push	{r7}
 8003302:	b083      	sub	sp, #12
 8003304:	af00      	add	r7, sp, #0
 8003306:	6078      	str	r0, [r7, #4]
 8003308:	bf00      	nop
 800330a:	370c      	adds	r7, #12
 800330c:	46bd      	mov	sp, r7
 800330e:	f85d 7b04 	ldr.w	r7, [sp], #4
 8003312:	4770      	bx	lr

08003314 <HAL_TIM_IC_CaptureCallback>:
 8003314:	b480      	push	{r7}
 8003316:	b083      	sub	sp, #12
 8003318:	af00      	add	r7, sp, #0
 800331a:	6078      	str	r0, [r7, #4]
 800331c:	bf00      	nop
 800331e:	370c      	adds	r7, #12
 8003320:	46bd      	mov	sp, r7
 8003322:	f85d 7b04 	ldr.w	r7, [sp], #4
 8003326:	4770      	bx	lr

08003328 <HAL_TIM_PWM_PulseFinishedCallback>:
 8003328:	b480      	push	{r7}
 800332a:	b083      	sub	sp, #12
 800332c:	af00      	add	r7, sp, #0
 800332e:	6078      	str	r0, [r7, #4]
 8003330:	bf00      	nop
 8003332:	370c      	adds	r7, #12
 8003334:	46bd      	mov	sp, r7
 8003336:	f85d 7b04 	ldr.w	r7, [sp], #4
 800333a:	4770      	bx	lr

0800333c <HAL_TIM_TriggerCallback>:
 800333c:	b480      	push	{r7}
 800333e:	b083      	sub	sp, #12
 8003340:	af00      	add	r7, sp, #0
 8003342:	6078      	str	r0, [r7, #4]
 8003344:	bf00      	nop
 8003346:	370c      	adds	r7, #12
 8003348:	46bd      	mov	sp, r7
 800334a:	f85d 7b04 	ldr.w	r7, [sp], #4
 800334e:	4770      	bx	lr

08003350 <TIM_Base_SetConfig>:
 8003350:	b480      	push	{r7}
 8003352:	b085      	sub	sp, #20
 8003354:	af00      	add	r7, sp, #0
 8003356:	6078      	str	r0, [r7, #4]
 8003358:	6039      	str	r1, [r7, #0]
 800335a:	687b      	ldr	r3, [r7, #4]
 800335c:	681b      	ldr	r3, [r3, #0]
 800335e:	60fb      	str	r3, [r7, #12]
 8003360:	687b      	ldr	r3, [r7, #4]
 8003362:	4a40      	ldr	r2, [pc, #256]	; (8003464 <TIM_Base_SetConfig+0x114>)
 8003364:	4293      	cmp	r3, r2
 8003366:	d013      	beq.n	8003390 <TIM_Base_SetConfig+0x40>
 8003368:	687b      	ldr	r3, [r7, #4]
 800336a:	f1b3 4f80 	cmp.w	r3, #1073741824	; 0x40000000
 800336e:	d00f      	beq.n	8003390 <TIM_Base_SetConfig+0x40>
 8003370:	687b      	ldr	r3, [r7, #4]
 8003372:	4a3d      	ldr	r2, [pc, #244]	; (8003468 <TIM_Base_SetConfig+0x118>)
 8003374:	4293      	cmp	r3, r2
 8003376:	d00b      	beq.n	8003390 <TIM_Base_SetConfig+0x40>
 8003378:	687b      	ldr	r3, [r7, #4]
 800337a:	4a3c      	ldr	r2, [pc, #240]	; (800346c <TIM_Base_SetConfig+0x11c>)
 800337c:	4293      	cmp	r3, r2
 800337e:	d007      	beq.n	8003390 <TIM_Base_SetConfig+0x40>
 8003380:	687b      	ldr	r3, [r7, #4]
 8003382:	4a3b      	ldr	r2, [pc, #236]	; (8003470 <TIM_Base_SetConfig+0x120>)
 8003384:	4293      	cmp	r3, r2
 8003386:	d003      	beq.n	8003390 <TIM_Base_SetConfig+0x40>
 8003388:	687b      	ldr	r3, [r7, #4]
 800338a:	4a3a      	ldr	r2, [pc, #232]	; (8003474 <TIM_Base_SetConfig+0x124>)
 800338c:	4293      	cmp	r3, r2
 800338e:	d108      	bne.n	80033a2 <TIM_Base_SetConfig+0x52>
 8003390:	68fb      	ldr	r3, [r7, #12]
 8003392:	f023 0370 	bic.w	r3, r3, #112	; 0x70
 8003396:	60fb      	str	r3, [r7, #12]
 8003398:	683b      	ldr	r3, [r7, #0]
 800339a:	685b      	ldr	r3, [r3, #4]
 800339c:	68fa      	ldr	r2, [r7, #12]
 800339e:	4313      	orrs	r3, r2
 80033a0:	60fb      	str	r3, [r7, #12]
 80033a2:	687b      	ldr	r3, [r7, #4]
 80033a4:	4a2f      	ldr	r2, [pc, #188]	; (8003464 <TIM_Base_SetConfig+0x114>)
 80033a6:	4293      	cmp	r3, r2
 80033a8:	d02b      	beq.n	8003402 <TIM_Base_SetConfig+0xb2>
 80033aa:	687b      	ldr	r3, [r7, #4]
 80033ac:	f1b3 4f80 	cmp.w	r3, #1073741824	; 0x40000000
 80033b0:	d027      	beq.n	8003402 <TIM_Base_SetConfig+0xb2>
 80033b2:	687b      	ldr	r3, [r7, #4]
 80033b4:	4a2c      	ldr	r2, [pc, #176]	; (8003468 <TIM_Base_SetConfig+0x118>)
 80033b6:	4293      	cmp	r3, r2
 80033b8:	d023      	beq.n	8003402 <TIM_Base_SetConfig+0xb2>
 80033ba:	687b      	ldr	r3, [r7, #4]
 80033bc:	4a2b      	ldr	r2, [pc, #172]	; (800346c <TIM_Base_SetConfig+0x11c>)
 80033be:	4293      	cmp	r3, r2
 80033c0:	d01f      	beq.n	8003402 <TIM_Base_SetConfig+0xb2>
 80033c2:	687b      	ldr	r3, [r7, #4]
 80033c4:	4a2a      	ldr	r2, [pc, #168]	; (8003470 <TIM_Base_SetConfig+0x120>)
 80033c6:	4293      	cmp	r3, r2
 80033c8:	d01b      	beq.n	8003402 <TIM_Base_SetConfig+0xb2>
 80033ca:	687b      	ldr	r3, [r7, #4]
 80033cc:	4a29      	ldr	r2, [pc, #164]	; (8003474 <TIM_Base_SetConfig+0x124>)
 80033ce:	4293      	cmp	r3, r2
 80033d0:	d017      	beq.n	8003402 <TIM_Base_SetConfig+0xb2>
 80033d2:	687b      	ldr	r3, [r7, #4]
 80033d4:	4a28      	ldr	r2, [pc, #160]	; (8003478 <TIM_Base_SetConfig+0x128>)
 80033d6:	4293      	cmp	r3, r2
 80033d8:	d013      	beq.n	8003402 <TIM_Base_SetConfig+0xb2>
 80033da:	687b      	ldr	r3, [r7, #4]
 80033dc:	4a27      	ldr	r2, [pc, #156]	; (800347c <TIM_Base_SetConfig+0x12c>)
 80033de:	4293      	cmp	r3, r2
 80033e0:	d00f      	beq.n	8003402 <TIM_Base_SetConfig+0xb2>
 80033e2:	687b      	ldr	r3, [r7, #4]
 80033e4:	4a26      	ldr	r2, [pc, #152]	; (8003480 <TIM_Base_SetConfig+0x130>)
 80033e6:	4293      	cmp	r3, r2
 80033e8:	d00b      	beq.n	8003402 <TIM_Base_SetConfig+0xb2>
 80033ea:	687b      	ldr	r3, [r7, #4]
 80033ec:	4a25      	ldr	r2, [pc, #148]	; (8003484 <TIM_Base_SetConfig+0x134>)
 80033ee:	4293      	cmp	r3, r2
 80033f0:	d007      	beq.n	8003402 <TIM_Base_SetConfig+0xb2>
 80033f2:	687b      	ldr	r3, [r7, #4]
 80033f4:	4a24      	ldr	r2, [pc, #144]	; (8003488 <TIM_Base_SetConfig+0x138>)
 80033f6:	4293      	cmp	r3, r2
 80033f8:	d003      	beq.n	8003402 <TIM_Base_SetConfig+0xb2>
 80033fa:	687b      	ldr	r3, [r7, #4]
 80033fc:	4a23      	ldr	r2, [pc, #140]	; (800348c <TIM_Base_SetConfig+0x13c>)
 80033fe:	4293      	cmp	r3, r2
 8003400:	d108      	bne.n	8003414 <TIM_Base_SetConfig+0xc4>
 8003402:	68fb      	ldr	r3, [r7, #12]
 8003404:	f423 7340 	bic.w	r3, r3, #768	; 0x300
 8003408:	60fb      	str	r3, [r7, #12]
 800340a:	683b      	ldr	r3, [r7, #0]
 800340c:	68db      	ldr	r3, [r3, #12]
 800340e:	68fa      	ldr	r2, [r7, #12]
 8003410:	4313      	orrs	r3, r2
 8003412:	60fb      	str	r3, [r7, #12]
 8003414:	68fb      	ldr	r3, [r7, #12]
 8003416:	f023 0280 	bic.w	r2, r3, #128	; 0x80
 800341a:	683b      	ldr	r3, [r7, #0]
 800341c:	695b      	ldr	r3, [r3, #20]
 800341e:	4313      	orrs	r3, r2
 8003420:	60fb      	str	r3, [r7, #12]
 8003422:	687b      	ldr	r3, [r7, #4]
 8003424:	68fa      	ldr	r2, [r7, #12]
 8003426:	601a      	str	r2, [r3, #0]
 8003428:	683b      	ldr	r3, [r7, #0]
 800342a:	689a      	ldr	r2, [r3, #8]
 800342c:	687b      	ldr	r3, [r7, #4]
 800342e:	62da      	str	r2, [r3, #44]	; 0x2c
 8003430:	683b      	ldr	r3, [r7, #0]
 8003432:	681a      	ldr	r2, [r3, #0]
 8003434:	687b      	ldr	r3, [r7, #4]
 8003436:	629a      	str	r2, [r3, #40]	; 0x28
 8003438:	687b      	ldr	r3, [r7, #4]
 800343a:	4a0a      	ldr	r2, [pc, #40]	; (8003464 <TIM_Base_SetConfig+0x114>)
 800343c:	4293      	cmp	r3, r2
 800343e:	d003      	beq.n	8003448 <TIM_Base_SetConfig+0xf8>
 8003440:	687b      	ldr	r3, [r7, #4]
 8003442:	4a0c      	ldr	r2, [pc, #48]	; (8003474 <TIM_Base_SetConfig+0x124>)
 8003444:	4293      	cmp	r3, r2
 8003446:	d103      	bne.n	8003450 <TIM_Base_SetConfig+0x100>
 8003448:	683b      	ldr	r3, [r7, #0]
 800344a:	691a      	ldr	r2, [r3, #16]
 800344c:	687b      	ldr	r3, [r7, #4]
 800344e:	631a      	str	r2, [r3, #48]	; 0x30
 8003450:	687b      	ldr	r3, [r7, #4]
 8003452:	2201      	movs	r2, #1
 8003454:	615a      	str	r2, [r3, #20]
 8003456:	bf00      	nop
 8003458:	3714      	adds	r7, #20
 800345a:	46bd      	mov	sp, r7
 800345c:	f85d 7b04 	ldr.w	r7, [sp], #4
 8003460:	4770      	bx	lr
 8003462:	bf00      	nop
 8003464:	40010000 	.word	0x40010000
 8003468:	40000400 	.word	0x40000400
 800346c:	40000800 	.word	0x40000800
 8003470:	40000c00 	.word	0x40000c00
 8003474:	40010400 	.word	0x40010400
 8003478:	40014000 	.word	0x40014000
 800347c:	40014400 	.word	0x40014400
 8003480:	40014800 	.word	0x40014800
 8003484:	40001800 	.word	0x40001800
 8003488:	40001c00 	.word	0x40001c00
 800348c:	40002000 	.word	0x40002000

08003490 <HAL_TIMEx_MasterConfigSynchronization>:
 8003490:	b480      	push	{r7}
 8003492:	b085      	sub	sp, #20
 8003494:	af00      	add	r7, sp, #0
 8003496:	6078      	str	r0, [r7, #4]
 8003498:	6039      	str	r1, [r7, #0]
 800349a:	687b      	ldr	r3, [r7, #4]
 800349c:	f893 303c 	ldrb.w	r3, [r3, #60]	; 0x3c
 80034a0:	2b01      	cmp	r3, #1
 80034a2:	d101      	bne.n	80034a8 <HAL_TIMEx_MasterConfigSynchronization+0x18>
 80034a4:	2302      	movs	r3, #2
 80034a6:	e05a      	b.n	800355e <HAL_TIMEx_MasterConfigSynchronization+0xce>
 80034a8:	687b      	ldr	r3, [r7, #4]
 80034aa:	2201      	movs	r2, #1
 80034ac:	f883 203c 	strb.w	r2, [r3, #60]	; 0x3c
 80034b0:	687b      	ldr	r3, [r7, #4]
 80034b2:	2202      	movs	r2, #2
 80034b4:	f883 203d 	strb.w	r2, [r3, #61]	; 0x3d
 80034b8:	687b      	ldr	r3, [r7, #4]
 80034ba:	681b      	ldr	r3, [r3, #0]
 80034bc:	685b      	ldr	r3, [r3, #4]
 80034be:	60fb      	str	r3, [r7, #12]
 80034c0:	687b      	ldr	r3, [r7, #4]
 80034c2:	681b      	ldr	r3, [r3, #0]
 80034c4:	689b      	ldr	r3, [r3, #8]
 80034c6:	60bb      	str	r3, [r7, #8]
 80034c8:	68fb      	ldr	r3, [r7, #12]
 80034ca:	f023 0370 	bic.w	r3, r3, #112	; 0x70
 80034ce:	60fb      	str	r3, [r7, #12]
 80034d0:	683b      	ldr	r3, [r7, #0]
 80034d2:	681b      	ldr	r3, [r3, #0]
 80034d4:	68fa      	ldr	r2, [r7, #12]
 80034d6:	4313      	orrs	r3, r2
 80034d8:	60fb      	str	r3, [r7, #12]
 80034da:	687b      	ldr	r3, [r7, #4]
 80034dc:	681b      	ldr	r3, [r3, #0]
 80034de:	68fa      	ldr	r2, [r7, #12]
 80034e0:	605a      	str	r2, [r3, #4]
 80034e2:	687b      	ldr	r3, [r7, #4]
 80034e4:	681b      	ldr	r3, [r3, #0]
 80034e6:	4a21      	ldr	r2, [pc, #132]	; (800356c <HAL_TIMEx_MasterConfigSynchronization+0xdc>)
 80034e8:	4293      	cmp	r3, r2
 80034ea:	d022      	beq.n	8003532 <HAL_TIMEx_MasterConfigSynchronization+0xa2>
 80034ec:	687b      	ldr	r3, [r7, #4]
 80034ee:	681b      	ldr	r3, [r3, #0]
 80034f0:	f1b3 4f80 	cmp.w	r3, #1073741824	; 0x40000000
 80034f4:	d01d      	beq.n	8003532 <HAL_TIMEx_MasterConfigSynchronization+0xa2>
 80034f6:	687b      	ldr	r3, [r7, #4]
 80034f8:	681b      	ldr	r3, [r3, #0]
 80034fa:	4a1d      	ldr	r2, [pc, #116]	; (8003570 <HAL_TIMEx_MasterConfigSynchronization+0xe0>)
 80034fc:	4293      	cmp	r3, r2
 80034fe:	d018      	beq.n	8003532 <HAL_TIMEx_MasterConfigSynchronization+0xa2>
 8003500:	687b      	ldr	r3, [r7, #4]
 8003502:	681b      	ldr	r3, [r3, #0]
 8003504:	4a1b      	ldr	r2, [pc, #108]	; (8003574 <HAL_TIMEx_MasterConfigSynchronization+0xe4>)
 8003506:	4293      	cmp	r3, r2
 8003508:	d013      	beq.n	8003532 <HAL_TIMEx_MasterConfigSynchronization+0xa2>
 800350a:	687b      	ldr	r3, [r7, #4]
 800350c:	681b      	ldr	r3, [r3, #0]
 800350e:	4a1a      	ldr	r2, [pc, #104]	; (8003578 <HAL_TIMEx_MasterConfigSynchronization+0xe8>)
 8003510:	4293      	cmp	r3, r2
 8003512:	d00e      	beq.n	8003532 <HAL_TIMEx_MasterConfigSynchronization+0xa2>
 8003514:	687b      	ldr	r3, [r7, #4]
 8003516:	681b      	ldr	r3, [r3, #0]
 8003518:	4a18      	ldr	r2, [pc, #96]	; (800357c <HAL_TIMEx_MasterConfigSynchronization+0xec>)
 800351a:	4293      	cmp	r3, r2
 800351c:	d009      	beq.n	8003532 <HAL_TIMEx_MasterConfigSynchronization+0xa2>
 800351e:	687b      	ldr	r3, [r7, #4]
 8003520:	681b      	ldr	r3, [r3, #0]
 8003522:	4a17      	ldr	r2, [pc, #92]	; (8003580 <HAL_TIMEx_MasterConfigSynchronization+0xf0>)
 8003524:	4293      	cmp	r3, r2
 8003526:	d004      	beq.n	8003532 <HAL_TIMEx_MasterConfigSynchronization+0xa2>
 8003528:	687b      	ldr	r3, [r7, #4]
 800352a:	681b      	ldr	r3, [r3, #0]
 800352c:	4a15      	ldr	r2, [pc, #84]	; (8003584 <HAL_TIMEx_MasterConfigSynchronization+0xf4>)
 800352e:	4293      	cmp	r3, r2
 8003530:	d10c      	bne.n	800354c <HAL_TIMEx_MasterConfigSynchronization+0xbc>
 8003532:	68bb      	ldr	r3, [r7, #8]
 8003534:	f023 0380 	bic.w	r3, r3, #128	; 0x80
 8003538:	60bb      	str	r3, [r7, #8]
 800353a:	683b      	ldr	r3, [r7, #0]
 800353c:	685b      	ldr	r3, [r3, #4]
 800353e:	68ba      	ldr	r2, [r7, #8]
 8003540:	4313      	orrs	r3, r2
 8003542:	60bb      	str	r3, [r7, #8]
 8003544:	687b      	ldr	r3, [r7, #4]
 8003546:	681b      	ldr	r3, [r3, #0]
 8003548:	68ba      	ldr	r2, [r7, #8]
 800354a:	609a      	str	r2, [r3, #8]
 800354c:	687b      	ldr	r3, [r7, #4]
 800354e:	2201      	movs	r2, #1
 8003550:	f883 203d 	strb.w	r2, [r3, #61]	; 0x3d
 8003554:	687b      	ldr	r3, [r7, #4]
 8003556:	2200      	movs	r2, #0
 8003558:	f883 203c 	strb.w	r2, [r3, #60]	; 0x3c
 800355c:	2300      	movs	r3, #0
 800355e:	4618      	mov	r0, r3
 8003560:	3714      	adds	r7, #20
 8003562:	46bd      	mov	sp, r7
 8003564:	f85d 7b04 	ldr.w	r7, [sp], #4
 8003568:	4770      	bx	lr
 800356a:	bf00      	nop
 800356c:	40010000 	.word	0x40010000
 8003570:	40000400 	.word	0x40000400
 8003574:	40000800 	.word	0x40000800
 8003578:	40000c00 	.word	0x40000c00
 800357c:	40010400 	.word	0x40010400
 8003580:	40014000 	.word	0x40014000
 8003584:	40001800 	.word	0x40001800

08003588 <HAL_TIMEx_CommutCallback>:
 8003588:	b480      	push	{r7}
 800358a:	b083      	sub	sp, #12
 800358c:	af00      	add	r7, sp, #0
 800358e:	6078      	str	r0, [r7, #4]
 8003590:	bf00      	nop
 8003592:	370c      	adds	r7, #12
 8003594:	46bd      	mov	sp, r7
 8003596:	f85d 7b04 	ldr.w	r7, [sp], #4
 800359a:	4770      	bx	lr

0800359c <HAL_TIMEx_BreakCallback>:
 800359c:	b480      	push	{r7}
 800359e:	b083      	sub	sp, #12
 80035a0:	af00      	add	r7, sp, #0
 80035a2:	6078      	str	r0, [r7, #4]
 80035a4:	bf00      	nop
 80035a6:	370c      	adds	r7, #12
 80035a8:	46bd      	mov	sp, r7
 80035aa:	f85d 7b04 	ldr.w	r7, [sp], #4
 80035ae:	4770      	bx	lr

080035b0 <USB_CoreInit>:
 80035b0:	b084      	sub	sp, #16
 80035b2:	b580      	push	{r7, lr}
 80035b4:	b084      	sub	sp, #16
 80035b6:	af00      	add	r7, sp, #0
 80035b8:	6078      	str	r0, [r7, #4]
 80035ba:	f107 001c 	add.w	r0, r7, #28
 80035be:	e880 000e 	stmia.w	r0, {r1, r2, r3}
 80035c2:	6b3b      	ldr	r3, [r7, #48]	; 0x30
 80035c4:	2b01      	cmp	r3, #1
 80035c6:	d122      	bne.n	800360e <USB_CoreInit+0x5e>
 80035c8:	687b      	ldr	r3, [r7, #4]
 80035ca:	6b9b      	ldr	r3, [r3, #56]	; 0x38
 80035cc:	f423 3280 	bic.w	r2, r3, #65536	; 0x10000
 80035d0:	687b      	ldr	r3, [r7, #4]
 80035d2:	639a      	str	r2, [r3, #56]	; 0x38
 80035d4:	687b      	ldr	r3, [r7, #4]
 80035d6:	68db      	ldr	r3, [r3, #12]
 80035d8:	f423 0384 	bic.w	r3, r3, #4325376	; 0x420000
 80035dc:	f023 0340 	bic.w	r3, r3, #64	; 0x40
 80035e0:	687a      	ldr	r2, [r7, #4]
 80035e2:	60d3      	str	r3, [r2, #12]
 80035e4:	687b      	ldr	r3, [r7, #4]
 80035e6:	68db      	ldr	r3, [r3, #12]
 80035e8:	f423 1240 	bic.w	r2, r3, #3145728	; 0x300000
 80035ec:	687b      	ldr	r3, [r7, #4]
 80035ee:	60da      	str	r2, [r3, #12]
 80035f0:	6cfb      	ldr	r3, [r7, #76]	; 0x4c
 80035f2:	2b01      	cmp	r3, #1
 80035f4:	d105      	bne.n	8003602 <USB_CoreInit+0x52>
 80035f6:	687b      	ldr	r3, [r7, #4]
 80035f8:	68db      	ldr	r3, [r3, #12]
 80035fa:	f443 1280 	orr.w	r2, r3, #1048576	; 0x100000
 80035fe:	687b      	ldr	r3, [r7, #4]
 8003600:	60da      	str	r2, [r3, #12]
 8003602:	6878      	ldr	r0, [r7, #4]
 8003604:	f001 fbee 	bl	8004de4 <USB_CoreReset>
 8003608:	4603      	mov	r3, r0
 800360a:	73fb      	strb	r3, [r7, #15]
 800360c:	e01a      	b.n	8003644 <USB_CoreInit+0x94>
 800360e:	687b      	ldr	r3, [r7, #4]
 8003610:	68db      	ldr	r3, [r3, #12]
 8003612:	f043 0240 	orr.w	r2, r3, #64	; 0x40
 8003616:	687b      	ldr	r3, [r7, #4]
 8003618:	60da      	str	r2, [r3, #12]
 800361a:	6878      	ldr	r0, [r7, #4]
 800361c:	f001 fbe2 	bl	8004de4 <USB_CoreReset>
 8003620:	4603      	mov	r3, r0
 8003622:	73fb      	strb	r3, [r7, #15]
 8003624:	6c3b      	ldr	r3, [r7, #64]	; 0x40
 8003626:	2b00      	cmp	r3, #0
 8003628:	d106      	bne.n	8003638 <USB_CoreInit+0x88>
 800362a:	687b      	ldr	r3, [r7, #4]
 800362c:	6b9b      	ldr	r3, [r3, #56]	; 0x38
 800362e:	f443 3280 	orr.w	r2, r3, #65536	; 0x10000
 8003632:	687b      	ldr	r3, [r7, #4]
 8003634:	639a      	str	r2, [r3, #56]	; 0x38
 8003636:	e005      	b.n	8003644 <USB_CoreInit+0x94>
 8003638:	687b      	ldr	r3, [r7, #4]
 800363a:	6b9b      	ldr	r3, [r3, #56]	; 0x38
 800363c:	f423 3280 	bic.w	r2, r3, #65536	; 0x10000
 8003640:	687b      	ldr	r3, [r7, #4]
 8003642:	639a      	str	r2, [r3, #56]	; 0x38
 8003644:	6abb      	ldr	r3, [r7, #40]	; 0x28
 8003646:	2b01      	cmp	r3, #1
 8003648:	d10b      	bne.n	8003662 <USB_CoreInit+0xb2>
 800364a:	687b      	ldr	r3, [r7, #4]
 800364c:	689b      	ldr	r3, [r3, #8]
 800364e:	f043 0206 	orr.w	r2, r3, #6
 8003652:	687b      	ldr	r3, [r7, #4]
 8003654:	609a      	str	r2, [r3, #8]
 8003656:	687b      	ldr	r3, [r7, #4]
 8003658:	689b      	ldr	r3, [r3, #8]
 800365a:	f043 0220 	orr.w	r2, r3, #32
 800365e:	687b      	ldr	r3, [r7, #4]
 8003660:	609a      	str	r2, [r3, #8]
 8003662:	7bfb      	ldrb	r3, [r7, #15]
 8003664:	4618      	mov	r0, r3
 8003666:	3710      	adds	r7, #16
 8003668:	46bd      	mov	sp, r7
 800366a:	e8bd 4080 	ldmia.w	sp!, {r7, lr}
 800366e:	b004      	add	sp, #16
 8003670:	4770      	bx	lr
	...

08003674 <USB_SetTurnaroundTime>:
 8003674:	b480      	push	{r7}
 8003676:	b087      	sub	sp, #28
 8003678:	af00      	add	r7, sp, #0
 800367a:	60f8      	str	r0, [r7, #12]
 800367c:	60b9      	str	r1, [r7, #8]
 800367e:	4613      	mov	r3, r2
 8003680:	71fb      	strb	r3, [r7, #7]
 8003682:	79fb      	ldrb	r3, [r7, #7]
 8003684:	2b02      	cmp	r3, #2
 8003686:	d165      	bne.n	8003754 <USB_SetTurnaroundTime+0xe0>
 8003688:	68bb      	ldr	r3, [r7, #8]
 800368a:	4a41      	ldr	r2, [pc, #260]	; (8003790 <USB_SetTurnaroundTime+0x11c>)
 800368c:	4293      	cmp	r3, r2
 800368e:	d906      	bls.n	800369e <USB_SetTurnaroundTime+0x2a>
 8003690:	68bb      	ldr	r3, [r7, #8]
 8003692:	4a40      	ldr	r2, [pc, #256]	; (8003794 <USB_SetTurnaroundTime+0x120>)
 8003694:	4293      	cmp	r3, r2
 8003696:	d202      	bcs.n	800369e <USB_SetTurnaroundTime+0x2a>
 8003698:	230f      	movs	r3, #15
 800369a:	617b      	str	r3, [r7, #20]
 800369c:	e062      	b.n	8003764 <USB_SetTurnaroundTime+0xf0>
 800369e:	68bb      	ldr	r3, [r7, #8]
 80036a0:	4a3c      	ldr	r2, [pc, #240]	; (8003794 <USB_SetTurnaroundTime+0x120>)
 80036a2:	4293      	cmp	r3, r2
 80036a4:	d306      	bcc.n	80036b4 <USB_SetTurnaroundTime+0x40>
 80036a6:	68bb      	ldr	r3, [r7, #8]
 80036a8:	4a3b      	ldr	r2, [pc, #236]	; (8003798 <USB_SetTurnaroundTime+0x124>)
 80036aa:	4293      	cmp	r3, r2
 80036ac:	d202      	bcs.n	80036b4 <USB_SetTurnaroundTime+0x40>
 80036ae:	230e      	movs	r3, #14
 80036b0:	617b      	str	r3, [r7, #20]
 80036b2:	e057      	b.n	8003764 <USB_SetTurnaroundTime+0xf0>
 80036b4:	68bb      	ldr	r3, [r7, #8]
 80036b6:	4a38      	ldr	r2, [pc, #224]	; (8003798 <USB_SetTurnaroundTime+0x124>)
 80036b8:	4293      	cmp	r3, r2
 80036ba:	d306      	bcc.n	80036ca <USB_SetTurnaroundTime+0x56>
 80036bc:	68bb      	ldr	r3, [r7, #8]
 80036be:	4a37      	ldr	r2, [pc, #220]	; (800379c <USB_SetTurnaroundTime+0x128>)
 80036c0:	4293      	cmp	r3, r2
 80036c2:	d202      	bcs.n	80036ca <USB_SetTurnaroundTime+0x56>
 80036c4:	230d      	movs	r3, #13
 80036c6:	617b      	str	r3, [r7, #20]
 80036c8:	e04c      	b.n	8003764 <USB_SetTurnaroundTime+0xf0>
 80036ca:	68bb      	ldr	r3, [r7, #8]
 80036cc:	4a33      	ldr	r2, [pc, #204]	; (800379c <USB_SetTurnaroundTime+0x128>)
 80036ce:	4293      	cmp	r3, r2
 80036d0:	d306      	bcc.n	80036e0 <USB_SetTurnaroundTime+0x6c>
 80036d2:	68bb      	ldr	r3, [r7, #8]
 80036d4:	4a32      	ldr	r2, [pc, #200]	; (80037a0 <USB_SetTurnaroundTime+0x12c>)
 80036d6:	4293      	cmp	r3, r2
 80036d8:	d802      	bhi.n	80036e0 <USB_SetTurnaroundTime+0x6c>
 80036da:	230c      	movs	r3, #12
 80036dc:	617b      	str	r3, [r7, #20]
 80036de:	e041      	b.n	8003764 <USB_SetTurnaroundTime+0xf0>
 80036e0:	68bb      	ldr	r3, [r7, #8]
 80036e2:	4a2f      	ldr	r2, [pc, #188]	; (80037a0 <USB_SetTurnaroundTime+0x12c>)
 80036e4:	4293      	cmp	r3, r2
 80036e6:	d906      	bls.n	80036f6 <USB_SetTurnaroundTime+0x82>
 80036e8:	68bb      	ldr	r3, [r7, #8]
 80036ea:	4a2e      	ldr	r2, [pc, #184]	; (80037a4 <USB_SetTurnaroundTime+0x130>)
 80036ec:	4293      	cmp	r3, r2
 80036ee:	d802      	bhi.n	80036f6 <USB_SetTurnaroundTime+0x82>
 80036f0:	230b      	movs	r3, #11
 80036f2:	617b      	str	r3, [r7, #20]
 80036f4:	e036      	b.n	8003764 <USB_SetTurnaroundTime+0xf0>
 80036f6:	68bb      	ldr	r3, [r7, #8]
 80036f8:	4a2a      	ldr	r2, [pc, #168]	; (80037a4 <USB_SetTurnaroundTime+0x130>)
 80036fa:	4293      	cmp	r3, r2
 80036fc:	d906      	bls.n	800370c <USB_SetTurnaroundTime+0x98>
 80036fe:	68bb      	ldr	r3, [r7, #8]
 8003700:	4a29      	ldr	r2, [pc, #164]	; (80037a8 <USB_SetTurnaroundTime+0x134>)
 8003702:	4293      	cmp	r3, r2
 8003704:	d802      	bhi.n	800370c <USB_SetTurnaroundTime+0x98>
 8003706:	230a      	movs	r3, #10
 8003708:	617b      	str	r3, [r7, #20]
 800370a:	e02b      	b.n	8003764 <USB_SetTurnaroundTime+0xf0>
 800370c:	68bb      	ldr	r3, [r7, #8]
 800370e:	4a26      	ldr	r2, [pc, #152]	; (80037a8 <USB_SetTurnaroundTime+0x134>)
 8003710:	4293      	cmp	r3, r2
 8003712:	d906      	bls.n	8003722 <USB_SetTurnaroundTime+0xae>
 8003714:	68bb      	ldr	r3, [r7, #8]
 8003716:	4a25      	ldr	r2, [pc, #148]	; (80037ac <USB_SetTurnaroundTime+0x138>)
 8003718:	4293      	cmp	r3, r2
 800371a:	d202      	bcs.n	8003722 <USB_SetTurnaroundTime+0xae>
 800371c:	2309      	movs	r3, #9
 800371e:	617b      	str	r3, [r7, #20]
 8003720:	e020      	b.n	8003764 <USB_SetTurnaroundTime+0xf0>
 8003722:	68bb      	ldr	r3, [r7, #8]
 8003724:	4a21      	ldr	r2, [pc, #132]	; (80037ac <USB_SetTurnaroundTime+0x138>)
 8003726:	4293      	cmp	r3, r2
 8003728:	d306      	bcc.n	8003738 <USB_SetTurnaroundTime+0xc4>
 800372a:	68bb      	ldr	r3, [r7, #8]
 800372c:	4a20      	ldr	r2, [pc, #128]	; (80037b0 <USB_SetTurnaroundTime+0x13c>)
 800372e:	4293      	cmp	r3, r2
 8003730:	d802      	bhi.n	8003738 <USB_SetTurnaroundTime+0xc4>
 8003732:	2308      	movs	r3, #8
 8003734:	617b      	str	r3, [r7, #20]
 8003736:	e015      	b.n	8003764 <USB_SetTurnaroundTime+0xf0>
 8003738:	68bb      	ldr	r3, [r7, #8]
 800373a:	4a1d      	ldr	r2, [pc, #116]	; (80037b0 <USB_SetTurnaroundTime+0x13c>)
 800373c:	4293      	cmp	r3, r2
 800373e:	d906      	bls.n	800374e <USB_SetTurnaroundTime+0xda>
 8003740:	68bb      	ldr	r3, [r7, #8]
 8003742:	4a1c      	ldr	r2, [pc, #112]	; (80037b4 <USB_SetTurnaroundTime+0x140>)
 8003744:	4293      	cmp	r3, r2
 8003746:	d202      	bcs.n	800374e <USB_SetTurnaroundTime+0xda>
 8003748:	2307      	movs	r3, #7
 800374a:	617b      	str	r3, [r7, #20]
 800374c:	e00a      	b.n	8003764 <USB_SetTurnaroundTime+0xf0>
 800374e:	2306      	movs	r3, #6
 8003750:	617b      	str	r3, [r7, #20]
 8003752:	e007      	b.n	8003764 <USB_SetTurnaroundTime+0xf0>
 8003754:	79fb      	ldrb	r3, [r7, #7]
 8003756:	2b00      	cmp	r3, #0
 8003758:	d102      	bne.n	8003760 <USB_SetTurnaroundTime+0xec>
 800375a:	2309      	movs	r3, #9
 800375c:	617b      	str	r3, [r7, #20]
 800375e:	e001      	b.n	8003764 <USB_SetTurnaroundTime+0xf0>
 8003760:	2309      	movs	r3, #9
 8003762:	617b      	str	r3, [r7, #20]
 8003764:	68fb      	ldr	r3, [r7, #12]
 8003766:	68db      	ldr	r3, [r3, #12]
 8003768:	f423 5270 	bic.w	r2, r3, #15360	; 0x3c00
 800376c:	68fb      	ldr	r3, [r7, #12]
 800376e:	60da      	str	r2, [r3, #12]
 8003770:	68fb      	ldr	r3, [r7, #12]
 8003772:	68da      	ldr	r2, [r3, #12]
 8003774:	697b      	ldr	r3, [r7, #20]
 8003776:	029b      	lsls	r3, r3, #10
 8003778:	f403 5370 	and.w	r3, r3, #15360	; 0x3c00
 800377c:	431a      	orrs	r2, r3
 800377e:	68fb      	ldr	r3, [r7, #12]
 8003780:	60da      	str	r2, [r3, #12]
 8003782:	2300      	movs	r3, #0
 8003784:	4618      	mov	r0, r3
 8003786:	371c      	adds	r7, #28
 8003788:	46bd      	mov	sp, r7
 800378a:	f85d 7b04 	ldr.w	r7, [sp], #4
 800378e:	4770      	bx	lr
 8003790:	00d8acbf 	.word	0x00d8acbf
 8003794:	00e4e1c0 	.word	0x00e4e1c0
 8003798:	00f42400 	.word	0x00f42400
 800379c:	01067380 	.word	0x01067380
 80037a0:	011a499f 	.word	0x011a499f
 80037a4:	01312cff 	.word	0x01312cff
 80037a8:	014ca43f 	.word	0x014ca43f
 80037ac:	016e3600 	.word	0x016e3600
 80037b0:	01a6ab1f 	.word	0x01a6ab1f
 80037b4:	01e84800 	.word	0x01e84800

080037b8 <USB_EnableGlobalInt>:
 80037b8:	b480      	push	{r7}
 80037ba:	b083      	sub	sp, #12
 80037bc:	af00      	add	r7, sp, #0
 80037be:	6078      	str	r0, [r7, #4]
 80037c0:	687b      	ldr	r3, [r7, #4]
 80037c2:	689b      	ldr	r3, [r3, #8]
 80037c4:	f043 0201 	orr.w	r2, r3, #1
 80037c8:	687b      	ldr	r3, [r7, #4]
 80037ca:	609a      	str	r2, [r3, #8]
 80037cc:	2300      	movs	r3, #0
 80037ce:	4618      	mov	r0, r3
 80037d0:	370c      	adds	r7, #12
 80037d2:	46bd      	mov	sp, r7
 80037d4:	f85d 7b04 	ldr.w	r7, [sp], #4
 80037d8:	4770      	bx	lr

080037da <USB_DisableGlobalInt>:
 80037da:	b480      	push	{r7}
 80037dc:	b083      	sub	sp, #12
 80037de:	af00      	add	r7, sp, #0
 80037e0:	6078      	str	r0, [r7, #4]
 80037e2:	687b      	ldr	r3, [r7, #4]
 80037e4:	689b      	ldr	r3, [r3, #8]
 80037e6:	f023 0201 	bic.w	r2, r3, #1
 80037ea:	687b      	ldr	r3, [r7, #4]
 80037ec:	609a      	str	r2, [r3, #8]
 80037ee:	2300      	movs	r3, #0
 80037f0:	4618      	mov	r0, r3
 80037f2:	370c      	adds	r7, #12
 80037f4:	46bd      	mov	sp, r7
 80037f6:	f85d 7b04 	ldr.w	r7, [sp], #4
 80037fa:	4770      	bx	lr

080037fc <USB_SetCurrentMode>:
 80037fc:	b580      	push	{r7, lr}
 80037fe:	b084      	sub	sp, #16
 8003800:	af00      	add	r7, sp, #0
 8003802:	6078      	str	r0, [r7, #4]
 8003804:	460b      	mov	r3, r1
 8003806:	70fb      	strb	r3, [r7, #3]
 8003808:	2300      	movs	r3, #0
 800380a:	60fb      	str	r3, [r7, #12]
 800380c:	687b      	ldr	r3, [r7, #4]
 800380e:	68db      	ldr	r3, [r3, #12]
 8003810:	f023 42c0 	bic.w	r2, r3, #1610612736	; 0x60000000
 8003814:	687b      	ldr	r3, [r7, #4]
 8003816:	60da      	str	r2, [r3, #12]
 8003818:	78fb      	ldrb	r3, [r7, #3]
 800381a:	2b01      	cmp	r3, #1
 800381c:	d115      	bne.n	800384a <USB_SetCurrentMode+0x4e>
 800381e:	687b      	ldr	r3, [r7, #4]
 8003820:	68db      	ldr	r3, [r3, #12]
 8003822:	f043 5200 	orr.w	r2, r3, #536870912	; 0x20000000
 8003826:	687b      	ldr	r3, [r7, #4]
 8003828:	60da      	str	r2, [r3, #12]
 800382a:	2001      	movs	r0, #1
 800382c:	f7fd f994 	bl	8000b58 <HAL_Delay>
 8003830:	68fb      	ldr	r3, [r7, #12]
 8003832:	3301      	adds	r3, #1
 8003834:	60fb      	str	r3, [r7, #12]
 8003836:	6878      	ldr	r0, [r7, #4]
 8003838:	f001 fa45 	bl	8004cc6 <USB_GetMode>
 800383c:	4603      	mov	r3, r0
 800383e:	2b01      	cmp	r3, #1
 8003840:	d01e      	beq.n	8003880 <USB_SetCurrentMode+0x84>
 8003842:	68fb      	ldr	r3, [r7, #12]
 8003844:	2b31      	cmp	r3, #49	; 0x31
 8003846:	d9f0      	bls.n	800382a <USB_SetCurrentMode+0x2e>
 8003848:	e01a      	b.n	8003880 <USB_SetCurrentMode+0x84>
 800384a:	78fb      	ldrb	r3, [r7, #3]
 800384c:	2b00      	cmp	r3, #0
 800384e:	d115      	bne.n	800387c <USB_SetCurrentMode+0x80>
 8003850:	687b      	ldr	r3, [r7, #4]
 8003852:	68db      	ldr	r3, [r3, #12]
 8003854:	f043 4280 	orr.w	r2, r3, #1073741824	; 0x40000000
 8003858:	687b      	ldr	r3, [r7, #4]
 800385a:	60da      	str	r2, [r3, #12]
 800385c:	2001      	movs	r0, #1
 800385e:	f7fd f97b 	bl	8000b58 <HAL_Delay>
 8003862:	68fb      	ldr	r3, [r7, #12]
 8003864:	3301      	adds	r3, #1
 8003866:	60fb      	str	r3, [r7, #12]
 8003868:	6878      	ldr	r0, [r7, #4]
 800386a:	f001 fa2c 	bl	8004cc6 <USB_GetMode>
 800386e:	4603      	mov	r3, r0
 8003870:	2b00      	cmp	r3, #0
 8003872:	d005      	beq.n	8003880 <USB_SetCurrentMode+0x84>
 8003874:	68fb      	ldr	r3, [r7, #12]
 8003876:	2b31      	cmp	r3, #49	; 0x31
 8003878:	d9f0      	bls.n	800385c <USB_SetCurrentMode+0x60>
 800387a:	e001      	b.n	8003880 <USB_SetCurrentMode+0x84>
 800387c:	2301      	movs	r3, #1
 800387e:	e005      	b.n	800388c <USB_SetCurrentMode+0x90>
 8003880:	68fb      	ldr	r3, [r7, #12]
 8003882:	2b32      	cmp	r3, #50	; 0x32
 8003884:	d101      	bne.n	800388a <USB_SetCurrentMode+0x8e>
 8003886:	2301      	movs	r3, #1
 8003888:	e000      	b.n	800388c <USB_SetCurrentMode+0x90>
 800388a:	2300      	movs	r3, #0
 800388c:	4618      	mov	r0, r3
 800388e:	3710      	adds	r7, #16
 8003890:	46bd      	mov	sp, r7
 8003892:	bd80      	pop	{r7, pc}

08003894 <USB_DevInit>:
 8003894:	b084      	sub	sp, #16
 8003896:	b580      	push	{r7, lr}
 8003898:	b086      	sub	sp, #24
 800389a:	af00      	add	r7, sp, #0
 800389c:	6078      	str	r0, [r7, #4]
 800389e:	f107 0024 	add.w	r0, r7, #36	; 0x24
 80038a2:	e880 000e 	stmia.w	r0, {r1, r2, r3}
 80038a6:	2300      	movs	r3, #0
 80038a8:	75fb      	strb	r3, [r7, #23]
 80038aa:	687b      	ldr	r3, [r7, #4]
 80038ac:	60fb      	str	r3, [r7, #12]
 80038ae:	2300      	movs	r3, #0
 80038b0:	613b      	str	r3, [r7, #16]
 80038b2:	e009      	b.n	80038c8 <USB_DevInit+0x34>
 80038b4:	687a      	ldr	r2, [r7, #4]
 80038b6:	693b      	ldr	r3, [r7, #16]
 80038b8:	3340      	adds	r3, #64	; 0x40
 80038ba:	009b      	lsls	r3, r3, #2
 80038bc:	4413      	add	r3, r2
 80038be:	2200      	movs	r2, #0
 80038c0:	605a      	str	r2, [r3, #4]
 80038c2:	693b      	ldr	r3, [r7, #16]
 80038c4:	3301      	adds	r3, #1
 80038c6:	613b      	str	r3, [r7, #16]
 80038c8:	693b      	ldr	r3, [r7, #16]
 80038ca:	2b0e      	cmp	r3, #14
 80038cc:	d9f2      	bls.n	80038b4 <USB_DevInit+0x20>
 80038ce:	6cfb      	ldr	r3, [r7, #76]	; 0x4c
 80038d0:	2b00      	cmp	r3, #0
 80038d2:	d11c      	bne.n	800390e <USB_DevInit+0x7a>
 80038d4:	68fb      	ldr	r3, [r7, #12]
 80038d6:	f503 6300 	add.w	r3, r3, #2048	; 0x800
 80038da:	685b      	ldr	r3, [r3, #4]
 80038dc:	68fa      	ldr	r2, [r7, #12]
 80038de:	f502 6200 	add.w	r2, r2, #2048	; 0x800
 80038e2:	f043 0302 	orr.w	r3, r3, #2
 80038e6:	6053      	str	r3, [r2, #4]
 80038e8:	687b      	ldr	r3, [r7, #4]
 80038ea:	6b9b      	ldr	r3, [r3, #56]	; 0x38
 80038ec:	f443 1200 	orr.w	r2, r3, #2097152	; 0x200000
 80038f0:	687b      	ldr	r3, [r7, #4]
 80038f2:	639a      	str	r2, [r3, #56]	; 0x38
 80038f4:	687b      	ldr	r3, [r7, #4]
 80038f6:	6b9b      	ldr	r3, [r3, #56]	; 0x38
 80038f8:	f423 2200 	bic.w	r2, r3, #524288	; 0x80000
 80038fc:	687b      	ldr	r3, [r7, #4]
 80038fe:	639a      	str	r2, [r3, #56]	; 0x38
 8003900:	687b      	ldr	r3, [r7, #4]
 8003902:	6b9b      	ldr	r3, [r3, #56]	; 0x38
 8003904:	f423 2280 	bic.w	r2, r3, #262144	; 0x40000
 8003908:	687b      	ldr	r3, [r7, #4]
 800390a:	639a      	str	r2, [r3, #56]	; 0x38
 800390c:	e00b      	b.n	8003926 <USB_DevInit+0x92>
 800390e:	687b      	ldr	r3, [r7, #4]
 8003910:	6b9b      	ldr	r3, [r3, #56]	; 0x38
 8003912:	f423 1200 	bic.w	r2, r3, #2097152	; 0x200000
 8003916:	687b      	ldr	r3, [r7, #4]
 8003918:	639a      	str	r2, [r3, #56]	; 0x38
 800391a:	687b      	ldr	r3, [r7, #4]
 800391c:	6b9b      	ldr	r3, [r3, #56]	; 0x38
 800391e:	f443 2200 	orr.w	r2, r3, #524288	; 0x80000
 8003922:	687b      	ldr	r3, [r7, #4]
 8003924:	639a      	str	r2, [r3, #56]	; 0x38
 8003926:	68fb      	ldr	r3, [r7, #12]
 8003928:	f503 6360 	add.w	r3, r3, #3584	; 0xe00
 800392c:	461a      	mov	r2, r3
 800392e:	2300      	movs	r3, #0
 8003930:	6013      	str	r3, [r2, #0]
 8003932:	68fb      	ldr	r3, [r7, #12]
 8003934:	f503 6300 	add.w	r3, r3, #2048	; 0x800
 8003938:	4619      	mov	r1, r3
 800393a:	68fb      	ldr	r3, [r7, #12]
 800393c:	f503 6300 	add.w	r3, r3, #2048	; 0x800
 8003940:	461a      	mov	r2, r3
 8003942:	680b      	ldr	r3, [r1, #0]
 8003944:	6013      	str	r3, [r2, #0]
 8003946:	6bbb      	ldr	r3, [r7, #56]	; 0x38
 8003948:	2b01      	cmp	r3, #1
 800394a:	d10c      	bne.n	8003966 <USB_DevInit+0xd2>
 800394c:	6afb      	ldr	r3, [r7, #44]	; 0x2c
 800394e:	2b00      	cmp	r3, #0
 8003950:	d104      	bne.n	800395c <USB_DevInit+0xc8>
 8003952:	2100      	movs	r1, #0
 8003954:	6878      	ldr	r0, [r7, #4]
 8003956:	f000 f965 	bl	8003c24 <USB_SetDevSpeed>
 800395a:	e008      	b.n	800396e <USB_DevInit+0xda>
 800395c:	2101      	movs	r1, #1
 800395e:	6878      	ldr	r0, [r7, #4]
 8003960:	f000 f960 	bl	8003c24 <USB_SetDevSpeed>
 8003964:	e003      	b.n	800396e <USB_DevInit+0xda>
 8003966:	2103      	movs	r1, #3
 8003968:	6878      	ldr	r0, [r7, #4]
 800396a:	f000 f95b 	bl	8003c24 <USB_SetDevSpeed>
 800396e:	2110      	movs	r1, #16
 8003970:	6878      	ldr	r0, [r7, #4]
 8003972:	f000 f8f3 	bl	8003b5c <USB_FlushTxFifo>
 8003976:	4603      	mov	r3, r0
 8003978:	2b00      	cmp	r3, #0
 800397a:	d001      	beq.n	8003980 <USB_DevInit+0xec>
 800397c:	2301      	movs	r3, #1
 800397e:	75fb      	strb	r3, [r7, #23]
 8003980:	6878      	ldr	r0, [r7, #4]
 8003982:	f000 f91f 	bl	8003bc4 <USB_FlushRxFifo>
 8003986:	4603      	mov	r3, r0
 8003988:	2b00      	cmp	r3, #0
 800398a:	d001      	beq.n	8003990 <USB_DevInit+0xfc>
 800398c:	2301      	movs	r3, #1
 800398e:	75fb      	strb	r3, [r7, #23]
 8003990:	68fb      	ldr	r3, [r7, #12]
 8003992:	f503 6300 	add.w	r3, r3, #2048	; 0x800
 8003996:	461a      	mov	r2, r3
 8003998:	2300      	movs	r3, #0
 800399a:	6113      	str	r3, [r2, #16]
 800399c:	68fb      	ldr	r3, [r7, #12]
 800399e:	f503 6300 	add.w	r3, r3, #2048	; 0x800
 80039a2:	461a      	mov	r2, r3
 80039a4:	2300      	movs	r3, #0
 80039a6:	6153      	str	r3, [r2, #20]
 80039a8:	68fb      	ldr	r3, [r7, #12]
 80039aa:	f503 6300 	add.w	r3, r3, #2048	; 0x800
 80039ae:	461a      	mov	r2, r3
 80039b0:	2300      	movs	r3, #0
 80039b2:	61d3      	str	r3, [r2, #28]
 80039b4:	2300      	movs	r3, #0
 80039b6:	613b      	str	r3, [r7, #16]
 80039b8:	e043      	b.n	8003a42 <USB_DevInit+0x1ae>
 80039ba:	693b      	ldr	r3, [r7, #16]
 80039bc:	015a      	lsls	r2, r3, #5
 80039be:	68fb      	ldr	r3, [r7, #12]
 80039c0:	4413      	add	r3, r2
 80039c2:	f503 6310 	add.w	r3, r3, #2304	; 0x900
 80039c6:	681b      	ldr	r3, [r3, #0]
 80039c8:	f003 4300 	and.w	r3, r3, #2147483648	; 0x80000000
 80039cc:	f1b3 4f00 	cmp.w	r3, #2147483648	; 0x80000000
 80039d0:	d118      	bne.n	8003a04 <USB_DevInit+0x170>
 80039d2:	693b      	ldr	r3, [r7, #16]
 80039d4:	2b00      	cmp	r3, #0
 80039d6:	d10a      	bne.n	80039ee <USB_DevInit+0x15a>
 80039d8:	693b      	ldr	r3, [r7, #16]
 80039da:	015a      	lsls	r2, r3, #5
 80039dc:	68fb      	ldr	r3, [r7, #12]
 80039de:	4413      	add	r3, r2
 80039e0:	f503 6310 	add.w	r3, r3, #2304	; 0x900
 80039e4:	461a      	mov	r2, r3
 80039e6:	f04f 6300 	mov.w	r3, #134217728	; 0x8000000
 80039ea:	6013      	str	r3, [r2, #0]
 80039ec:	e013      	b.n	8003a16 <USB_DevInit+0x182>
 80039ee:	693b      	ldr	r3, [r7, #16]
 80039f0:	015a      	lsls	r2, r3, #5
 80039f2:	68fb      	ldr	r3, [r7, #12]
 80039f4:	4413      	add	r3, r2
 80039f6:	f503 6310 	add.w	r3, r3, #2304	; 0x900
 80039fa:	461a      	mov	r2, r3
 80039fc:	f04f 4390 	mov.w	r3, #1207959552	; 0x48000000
 8003a00:	6013      	str	r3, [r2, #0]
 8003a02:	e008      	b.n	8003a16 <USB_DevInit+0x182>
 8003a04:	693b      	ldr	r3, [r7, #16]
 8003a06:	015a      	lsls	r2, r3, #5
 8003a08:	68fb      	ldr	r3, [r7, #12]
 8003a0a:	4413      	add	r3, r2
 8003a0c:	f503 6310 	add.w	r3, r3, #2304	; 0x900
 8003a10:	461a      	mov	r2, r3
 8003a12:	2300      	movs	r3, #0
 8003a14:	6013      	str	r3, [r2, #0]
 8003a16:	693b      	ldr	r3, [r7, #16]
 8003a18:	015a      	lsls	r2, r3, #5
 8003a1a:	68fb      	ldr	r3, [r7, #12]
 8003a1c:	4413      	add	r3, r2
 8003a1e:	f503 6310 	add.w	r3, r3, #2304	; 0x900
 8003a22:	461a      	mov	r2, r3
 8003a24:	2300      	movs	r3, #0
 8003a26:	6113      	str	r3, [r2, #16]
 8003a28:	693b      	ldr	r3, [r7, #16]
 8003a2a:	015a      	lsls	r2, r3, #5
 8003a2c:	68fb      	ldr	r3, [r7, #12]
 8003a2e:	4413      	add	r3, r2
 8003a30:	f503 6310 	add.w	r3, r3, #2304	; 0x900
 8003a34:	461a      	mov	r2, r3
 8003a36:	f64f 337f 	movw	r3, #64383	; 0xfb7f
 8003a3a:	6093      	str	r3, [r2, #8]
 8003a3c:	693b      	ldr	r3, [r7, #16]
 8003a3e:	3301      	adds	r3, #1
 8003a40:	613b      	str	r3, [r7, #16]
 8003a42:	6a7b      	ldr	r3, [r7, #36]	; 0x24
 8003a44:	693a      	ldr	r2, [r7, #16]
 8003a46:	429a      	cmp	r2, r3
 8003a48:	d3b7      	bcc.n	80039ba <USB_DevInit+0x126>
 8003a4a:	2300      	movs	r3, #0
 8003a4c:	613b      	str	r3, [r7, #16]
 8003a4e:	e043      	b.n	8003ad8 <USB_DevInit+0x244>
 8003a50:	693b      	ldr	r3, [r7, #16]
 8003a52:	015a      	lsls	r2, r3, #5
 8003a54:	68fb      	ldr	r3, [r7, #12]
 8003a56:	4413      	add	r3, r2
 8003a58:	f503 6330 	add.w	r3, r3, #2816	; 0xb00
 8003a5c:	681b      	ldr	r3, [r3, #0]
 8003a5e:	f003 4300 	and.w	r3, r3, #2147483648	; 0x80000000
 8003a62:	f1b3 4f00 	cmp.w	r3, #2147483648	; 0x80000000
 8003a66:	d118      	bne.n	8003a9a <USB_DevInit+0x206>
 8003a68:	693b      	ldr	r3, [r7, #16]
 8003a6a:	2b00      	cmp	r3, #0
 8003a6c:	d10a      	bne.n	8003a84 <USB_DevInit+0x1f0>
 8003a6e:	693b      	ldr	r3, [r7, #16]
 8003a70:	015a      	lsls	r2, r3, #5
 8003a72:	68fb      	ldr	r3, [r7, #12]
 8003a74:	4413      	add	r3, r2
 8003a76:	f503 6330 	add.w	r3, r3, #2816	; 0xb00
 8003a7a:	461a      	mov	r2, r3
 8003a7c:	f04f 6300 	mov.w	r3, #134217728	; 0x8000000
 8003a80:	6013      	str	r3, [r2, #0]
 8003a82:	e013      	b.n	8003aac <USB_DevInit+0x218>
 8003a84:	693b      	ldr	r3, [r7, #16]
 8003a86:	015a      	lsls	r2, r3, #5
 8003a88:	68fb      	ldr	r3, [r7, #12]
 8003a8a:	4413      	add	r3, r2
 8003a8c:	f503 6330 	add.w	r3, r3, #2816	; 0xb00
 8003a90:	461a      	mov	r2, r3
 8003a92:	f04f 4390 	mov.w	r3, #1207959552	; 0x48000000
 8003a96:	6013      	str	r3, [r2, #0]
 8003a98:	e008      	b.n	8003aac <USB_DevInit+0x218>
 8003a9a:	693b      	ldr	r3, [r7, #16]
 8003a9c:	015a      	lsls	r2, r3, #5
 8003a9e:	68fb      	ldr	r3, [r7, #12]
 8003aa0:	4413      	add	r3, r2
 8003aa2:	f503 6330 	add.w	r3, r3, #2816	; 0xb00
 8003aa6:	461a      	mov	r2, r3
 8003aa8:	2300      	movs	r3, #0
 8003aaa:	6013      	str	r3, [r2, #0]
 8003aac:	693b      	ldr	r3, [r7, #16]
 8003aae:	015a      	lsls	r2, r3, #5
 8003ab0:	68fb      	ldr	r3, [r7, #12]
 8003ab2:	4413      	add	r3, r2
 8003ab4:	f503 6330 	add.w	r3, r3, #2816	; 0xb00
 8003ab8:	461a      	mov	r2, r3
 8003aba:	2300      	movs	r3, #0
 8003abc:	6113      	str	r3, [r2, #16]
 8003abe:	693b      	ldr	r3, [r7, #16]
 8003ac0:	015a      	lsls	r2, r3, #5
 8003ac2:	68fb      	ldr	r3, [r7, #12]
 8003ac4:	4413      	add	r3, r2
 8003ac6:	f503 6330 	add.w	r3, r3, #2816	; 0xb00
 8003aca:	461a      	mov	r2, r3
 8003acc:	f64f 337f 	movw	r3, #64383	; 0xfb7f
 8003ad0:	6093      	str	r3, [r2, #8]
 8003ad2:	693b      	ldr	r3, [r7, #16]
 8003ad4:	3301      	adds	r3, #1
 8003ad6:	613b      	str	r3, [r7, #16]
 8003ad8:	6a7b      	ldr	r3, [r7, #36]	; 0x24
 8003ada:	693a      	ldr	r2, [r7, #16]
 8003adc:	429a      	cmp	r2, r3
 8003ade:	d3b7      	bcc.n	8003a50 <USB_DevInit+0x1bc>
 8003ae0:	68fb      	ldr	r3, [r7, #12]
 8003ae2:	f503 6300 	add.w	r3, r3, #2048	; 0x800
 8003ae6:	691b      	ldr	r3, [r3, #16]
 8003ae8:	68fa      	ldr	r2, [r7, #12]
 8003aea:	f502 6200 	add.w	r2, r2, #2048	; 0x800
 8003aee:	f423 7380 	bic.w	r3, r3, #256	; 0x100
 8003af2:	6113      	str	r3, [r2, #16]
 8003af4:	687b      	ldr	r3, [r7, #4]
 8003af6:	2200      	movs	r2, #0
 8003af8:	619a      	str	r2, [r3, #24]
 8003afa:	687b      	ldr	r3, [r7, #4]
 8003afc:	f06f 4280 	mvn.w	r2, #1073741824	; 0x40000000
 8003b00:	615a      	str	r2, [r3, #20]
 8003b02:	6b3b      	ldr	r3, [r7, #48]	; 0x30
 8003b04:	2b00      	cmp	r3, #0
 8003b06:	d105      	bne.n	8003b14 <USB_DevInit+0x280>
 8003b08:	687b      	ldr	r3, [r7, #4]
 8003b0a:	699b      	ldr	r3, [r3, #24]
 8003b0c:	f043 0210 	orr.w	r2, r3, #16
 8003b10:	687b      	ldr	r3, [r7, #4]
 8003b12:	619a      	str	r2, [r3, #24]
 8003b14:	687b      	ldr	r3, [r7, #4]
 8003b16:	699a      	ldr	r2, [r3, #24]
 8003b18:	4b0f      	ldr	r3, [pc, #60]	; (8003b58 <USB_DevInit+0x2c4>)
 8003b1a:	4313      	orrs	r3, r2
 8003b1c:	687a      	ldr	r2, [r7, #4]
 8003b1e:	6193      	str	r3, [r2, #24]
 8003b20:	6bfb      	ldr	r3, [r7, #60]	; 0x3c
 8003b22:	2b00      	cmp	r3, #0
 8003b24:	d005      	beq.n	8003b32 <USB_DevInit+0x29e>
 8003b26:	687b      	ldr	r3, [r7, #4]
 8003b28:	699b      	ldr	r3, [r3, #24]
 8003b2a:	f043 0208 	orr.w	r2, r3, #8
 8003b2e:	687b      	ldr	r3, [r7, #4]
 8003b30:	619a      	str	r2, [r3, #24]
 8003b32:	6cfb      	ldr	r3, [r7, #76]	; 0x4c
 8003b34:	2b01      	cmp	r3, #1
 8003b36:	d107      	bne.n	8003b48 <USB_DevInit+0x2b4>
 8003b38:	687b      	ldr	r3, [r7, #4]
 8003b3a:	699b      	ldr	r3, [r3, #24]
 8003b3c:	f043 4380 	orr.w	r3, r3, #1073741824	; 0x40000000
 8003b40:	f043 0304 	orr.w	r3, r3, #4
 8003b44:	687a      	ldr	r2, [r7, #4]
 8003b46:	6193      	str	r3, [r2, #24]
 8003b48:	7dfb      	ldrb	r3, [r7, #23]
 8003b4a:	4618      	mov	r0, r3
 8003b4c:	3718      	adds	r7, #24
 8003b4e:	46bd      	mov	sp, r7
 8003b50:	e8bd 4080 	ldmia.w	sp!, {r7, lr}
 8003b54:	b004      	add	sp, #16
 8003b56:	4770      	bx	lr
 8003b58:	803c3800 	.word	0x803c3800

08003b5c <USB_FlushTxFifo>:
 8003b5c:	b480      	push	{r7}
 8003b5e:	b085      	sub	sp, #20
 8003b60:	af00      	add	r7, sp, #0
 8003b62:	6078      	str	r0, [r7, #4]
 8003b64:	6039      	str	r1, [r7, #0]
 8003b66:	2300      	movs	r3, #0
 8003b68:	60fb      	str	r3, [r7, #12]
 8003b6a:	68fb      	ldr	r3, [r7, #12]
 8003b6c:	3301      	adds	r3, #1
 8003b6e:	60fb      	str	r3, [r7, #12]
 8003b70:	68fb      	ldr	r3, [r7, #12]
 8003b72:	4a13      	ldr	r2, [pc, #76]	; (8003bc0 <USB_FlushTxFifo+0x64>)
 8003b74:	4293      	cmp	r3, r2
 8003b76:	d901      	bls.n	8003b7c <USB_FlushTxFifo+0x20>
 8003b78:	2303      	movs	r3, #3
 8003b7a:	e01b      	b.n	8003bb4 <USB_FlushTxFifo+0x58>
 8003b7c:	687b      	ldr	r3, [r7, #4]
 8003b7e:	691b      	ldr	r3, [r3, #16]
 8003b80:	2b00      	cmp	r3, #0
 8003b82:	daf2      	bge.n	8003b6a <USB_FlushTxFifo+0xe>
 8003b84:	2300      	movs	r3, #0
 8003b86:	60fb      	str	r3, [r7, #12]
 8003b88:	683b      	ldr	r3, [r7, #0]
 8003b8a:	019b      	lsls	r3, r3, #6
 8003b8c:	f043 0220 	orr.w	r2, r3, #32
 8003b90:	687b      	ldr	r3, [r7, #4]
 8003b92:	611a      	str	r2, [r3, #16]
 8003b94:	68fb      	ldr	r3, [r7, #12]
 8003b96:	3301      	adds	r3, #1
 8003b98:	60fb      	str	r3, [r7, #12]
 8003b9a:	68fb      	ldr	r3, [r7, #12]
 8003b9c:	4a08      	ldr	r2, [pc, #32]	; (8003bc0 <USB_FlushTxFifo+0x64>)
 8003b9e:	4293      	cmp	r3, r2
 8003ba0:	d901      	bls.n	8003ba6 <USB_FlushTxFifo+0x4a>
 8003ba2:	2303      	movs	r3, #3
 8003ba4:	e006      	b.n	8003bb4 <USB_FlushTxFifo+0x58>
 8003ba6:	687b      	ldr	r3, [r7, #4]
 8003ba8:	691b      	ldr	r3, [r3, #16]
 8003baa:	f003 0320 	and.w	r3, r3, #32
 8003bae:	2b20      	cmp	r3, #32
 8003bb0:	d0f0      	beq.n	8003b94 <USB_FlushTxFifo+0x38>
 8003bb2:	2300      	movs	r3, #0
 8003bb4:	4618      	mov	r0, r3
 8003bb6:	3714      	adds	r7, #20
 8003bb8:	46bd      	mov	sp, r7
 8003bba:	f85d 7b04 	ldr.w	r7, [sp], #4
 8003bbe:	4770      	bx	lr
 8003bc0:	00030d40 	.word	0x00030d40

08003bc4 <USB_FlushRxFifo>:
 8003bc4:	b480      	push	{r7}
 8003bc6:	b085      	sub	sp, #20
 8003bc8:	af00      	add	r7, sp, #0
 8003bca:	6078      	str	r0, [r7, #4]
 8003bcc:	2300      	movs	r3, #0
 8003bce:	60fb      	str	r3, [r7, #12]
 8003bd0:	68fb      	ldr	r3, [r7, #12]
 8003bd2:	3301      	adds	r3, #1
 8003bd4:	60fb      	str	r3, [r7, #12]
 8003bd6:	68fb      	ldr	r3, [r7, #12]
 8003bd8:	4a11      	ldr	r2, [pc, #68]	; (8003c20 <USB_FlushRxFifo+0x5c>)
 8003bda:	4293      	cmp	r3, r2
 8003bdc:	d901      	bls.n	8003be2 <USB_FlushRxFifo+0x1e>
 8003bde:	2303      	movs	r3, #3
 8003be0:	e018      	b.n	8003c14 <USB_FlushRxFifo+0x50>
 8003be2:	687b      	ldr	r3, [r7, #4]
 8003be4:	691b      	ldr	r3, [r3, #16]
 8003be6:	2b00      	cmp	r3, #0
 8003be8:	daf2      	bge.n	8003bd0 <USB_FlushRxFifo+0xc>
 8003bea:	2300      	movs	r3, #0
 8003bec:	60fb      	str	r3, [r7, #12]
 8003bee:	687b      	ldr	r3, [r7, #4]
 8003bf0:	2210      	movs	r2, #16
 8003bf2:	611a      	str	r2, [r3, #16]
 8003bf4:	68fb      	ldr	r3, [r7, #12]
 8003bf6:	3301      	adds	r3, #1
 8003bf8:	60fb      	str	r3, [r7, #12]
 8003bfa:	68fb      	ldr	r3, [r7, #12]
 8003bfc:	4a08      	ldr	r2, [pc, #32]	; (8003c20 <USB_FlushRxFifo+0x5c>)
 8003bfe:	4293      	cmp	r3, r2
 8003c00:	d901      	bls.n	8003c06 <USB_FlushRxFifo+0x42>
 8003c02:	2303      	movs	r3, #3
 8003c04:	e006      	b.n	8003c14 <USB_FlushRxFifo+0x50>
 8003c06:	687b      	ldr	r3, [r7, #4]
 8003c08:	691b      	ldr	r3, [r3, #16]
 8003c0a:	f003 0310 	and.w	r3, r3, #16
 8003c0e:	2b10      	cmp	r3, #16
 8003c10:	d0f0      	beq.n	8003bf4 <USB_FlushRxFifo+0x30>
 8003c12:	2300      	movs	r3, #0
 8003c14:	4618      	mov	r0, r3
 8003c16:	3714      	adds	r7, #20
 8003c18:	46bd      	mov	sp, r7
 8003c1a:	f85d 7b04 	ldr.w	r7, [sp], #4
 8003c1e:	4770      	bx	lr
 8003c20:	00030d40 	.word	0x00030d40

08003c24 <USB_SetDevSpeed>:
 8003c24:	b480      	push	{r7}
 8003c26:	b085      	sub	sp, #20
 8003c28:	af00      	add	r7, sp, #0
 8003c2a:	6078      	str	r0, [r7, #4]
 8003c2c:	460b      	mov	r3, r1
 8003c2e:	70fb      	strb	r3, [r7, #3]
 8003c30:	687b      	ldr	r3, [r7, #4]
 8003c32:	60fb      	str	r3, [r7, #12]
 8003c34:	68fb      	ldr	r3, [r7, #12]
 8003c36:	f503 6300 	add.w	r3, r3, #2048	; 0x800
 8003c3a:	681a      	ldr	r2, [r3, #0]
 8003c3c:	78fb      	ldrb	r3, [r7, #3]
 8003c3e:	68f9      	ldr	r1, [r7, #12]
 8003c40:	f501 6100 	add.w	r1, r1, #2048	; 0x800
 8003c44:	4313      	orrs	r3, r2
 8003c46:	600b      	str	r3, [r1, #0]
 8003c48:	2300      	movs	r3, #0
 8003c4a:	4618      	mov	r0, r3
 8003c4c:	3714      	adds	r7, #20
 8003c4e:	46bd      	mov	sp, r7
 8003c50:	f85d 7b04 	ldr.w	r7, [sp], #4
 8003c54:	4770      	bx	lr

08003c56 <USB_GetDevSpeed>:
 8003c56:	b480      	push	{r7}
 8003c58:	b087      	sub	sp, #28
 8003c5a:	af00      	add	r7, sp, #0
 8003c5c:	6078      	str	r0, [r7, #4]
 8003c5e:	687b      	ldr	r3, [r7, #4]
 8003c60:	613b      	str	r3, [r7, #16]
 8003c62:	693b      	ldr	r3, [r7, #16]
 8003c64:	f503 6300 	add.w	r3, r3, #2048	; 0x800
 8003c68:	689b      	ldr	r3, [r3, #8]
 8003c6a:	f003 0306 	and.w	r3, r3, #6
 8003c6e:	60fb      	str	r3, [r7, #12]
 8003c70:	68fb      	ldr	r3, [r7, #12]
 8003c72:	2b00      	cmp	r3, #0
 8003c74:	d102      	bne.n	8003c7c <USB_GetDevSpeed+0x26>
 8003c76:	2300      	movs	r3, #0
 8003c78:	75fb      	strb	r3, [r7, #23]
 8003c7a:	e00a      	b.n	8003c92 <USB_GetDevSpeed+0x3c>
 8003c7c:	68fb      	ldr	r3, [r7, #12]
 8003c7e:	2b02      	cmp	r3, #2
 8003c80:	d002      	beq.n	8003c88 <USB_GetDevSpeed+0x32>
 8003c82:	68fb      	ldr	r3, [r7, #12]
 8003c84:	2b06      	cmp	r3, #6
 8003c86:	d102      	bne.n	8003c8e <USB_GetDevSpeed+0x38>
 8003c88:	2302      	movs	r3, #2
 8003c8a:	75fb      	strb	r3, [r7, #23]
 8003c8c:	e001      	b.n	8003c92 <USB_GetDevSpeed+0x3c>
 8003c8e:	230f      	movs	r3, #15
 8003c90:	75fb      	strb	r3, [r7, #23]
 8003c92:	7dfb      	ldrb	r3, [r7, #23]
 8003c94:	4618      	mov	r0, r3
 8003c96:	371c      	adds	r7, #28
 8003c98:	46bd      	mov	sp, r7
 8003c9a:	f85d 7b04 	ldr.w	r7, [sp], #4
 8003c9e:	4770      	bx	lr

08003ca0 <USB_ActivateEndpoint>:
 8003ca0:	b480      	push	{r7}
 8003ca2:	b085      	sub	sp, #20
 8003ca4:	af00      	add	r7, sp, #0
 8003ca6:	6078      	str	r0, [r7, #4]
 8003ca8:	6039      	str	r1, [r7, #0]
 8003caa:	687b      	ldr	r3, [r7, #4]
 8003cac:	60fb      	str	r3, [r7, #12]
 8003cae:	683b      	ldr	r3, [r7, #0]
 8003cb0:	781b      	ldrb	r3, [r3, #0]
 8003cb2:	60bb      	str	r3, [r7, #8]
 8003cb4:	683b      	ldr	r3, [r7, #0]
 8003cb6:	785b      	ldrb	r3, [r3, #1]
 8003cb8:	2b01      	cmp	r3, #1
 8003cba:	d13a      	bne.n	8003d32 <USB_ActivateEndpoint+0x92>
 8003cbc:	68fb      	ldr	r3, [r7, #12]
 8003cbe:	f503 6300 	add.w	r3, r3, #2048	; 0x800
 8003cc2:	69da      	ldr	r2, [r3, #28]
 8003cc4:	683b      	ldr	r3, [r7, #0]
 8003cc6:	781b      	ldrb	r3, [r3, #0]
 8003cc8:	f003 030f 	and.w	r3, r3, #15
 8003ccc:	2101      	movs	r1, #1
 8003cce:	fa01 f303 	lsl.w	r3, r1, r3
 8003cd2:	b29b      	uxth	r3, r3
 8003cd4:	68f9      	ldr	r1, [r7, #12]
 8003cd6:	f501 6100 	add.w	r1, r1, #2048	; 0x800
 8003cda:	4313      	orrs	r3, r2
 8003cdc:	61cb      	str	r3, [r1, #28]
 8003cde:	68bb      	ldr	r3, [r7, #8]
 8003ce0:	015a      	lsls	r2, r3, #5
 8003ce2:	68fb      	ldr	r3, [r7, #12]
 8003ce4:	4413      	add	r3, r2
 8003ce6:	f503 6310 	add.w	r3, r3, #2304	; 0x900
 8003cea:	681b      	ldr	r3, [r3, #0]
 8003cec:	f403 4300 	and.w	r3, r3, #32768	; 0x8000
 8003cf0:	2b00      	cmp	r3, #0
 8003cf2:	d155      	bne.n	8003da0 <USB_ActivateEndpoint+0x100>
 8003cf4:	68bb      	ldr	r3, [r7, #8]
 8003cf6:	015a      	lsls	r2, r3, #5
 8003cf8:	68fb      	ldr	r3, [r7, #12]
 8003cfa:	4413      	add	r3, r2
 8003cfc:	f503 6310 	add.w	r3, r3, #2304	; 0x900
 8003d00:	681a      	ldr	r2, [r3, #0]
 8003d02:	683b      	ldr	r3, [r7, #0]
 8003d04:	68db      	ldr	r3, [r3, #12]
 8003d06:	f3c3 010a 	ubfx	r1, r3, #0, #11
 8003d0a:	683b      	ldr	r3, [r7, #0]
 8003d0c:	791b      	ldrb	r3, [r3, #4]
 8003d0e:	049b      	lsls	r3, r3, #18
 8003d10:	4319      	orrs	r1, r3
 8003d12:	68bb      	ldr	r3, [r7, #8]
 8003d14:	059b      	lsls	r3, r3, #22
 8003d16:	430b      	orrs	r3, r1
 8003d18:	4313      	orrs	r3, r2
 8003d1a:	68ba      	ldr	r2, [r7, #8]
 8003d1c:	0151      	lsls	r1, r2, #5
 8003d1e:	68fa      	ldr	r2, [r7, #12]
 8003d20:	440a      	add	r2, r1
 8003d22:	f502 6210 	add.w	r2, r2, #2304	; 0x900
 8003d26:	f043 5380 	orr.w	r3, r3, #268435456	; 0x10000000
 8003d2a:	f443 4300 	orr.w	r3, r3, #32768	; 0x8000
 8003d2e:	6013      	str	r3, [r2, #0]
 8003d30:	e036      	b.n	8003da0 <USB_ActivateEndpoint+0x100>
 8003d32:	68fb      	ldr	r3, [r7, #12]
 8003d34:	f503 6300 	add.w	r3, r3, #2048	; 0x800
 8003d38:	69da      	ldr	r2, [r3, #28]
 8003d3a:	683b      	ldr	r3, [r7, #0]
 8003d3c:	781b      	ldrb	r3, [r3, #0]
 8003d3e:	f003 030f 	and.w	r3, r3, #15
 8003d42:	2101      	movs	r1, #1
 8003d44:	fa01 f303 	lsl.w	r3, r1, r3
 8003d48:	041b      	lsls	r3, r3, #16
 8003d4a:	68f9      	ldr	r1, [r7, #12]
 8003d4c:	f501 6100 	add.w	r1, r1, #2048	; 0x800
 8003d50:	4313      	orrs	r3, r2
 8003d52:	61cb      	str	r3, [r1, #28]
 8003d54:	68bb      	ldr	r3, [r7, #8]
 8003d56:	015a      	lsls	r2, r3, #5
 8003d58:	68fb      	ldr	r3, [r7, #12]
 8003d5a:	4413      	add	r3, r2
 8003d5c:	f503 6330 	add.w	r3, r3, #2816	; 0xb00
 8003d60:	681b      	ldr	r3, [r3, #0]
 8003d62:	f403 4300 	and.w	r3, r3, #32768	; 0x8000
 8003d66:	2b00      	cmp	r3, #0
 8003d68:	d11a      	bne.n	8003da0 <USB_ActivateEndpoint+0x100>
 8003d6a:	68bb      	ldr	r3, [r7, #8]
 8003d6c:	015a      	lsls	r2, r3, #5
 8003d6e:	68fb      	ldr	r3, [r7, #12]
 8003d70:	4413      	add	r3, r2
 8003d72:	f503 6330 	add.w	r3, r3, #2816	; 0xb00
 8003d76:	681a      	ldr	r2, [r3, #0]
 8003d78:	683b      	ldr	r3, [r7, #0]
 8003d7a:	68db      	ldr	r3, [r3, #12]
 8003d7c:	f3c3 010a 	ubfx	r1, r3, #0, #11
 8003d80:	683b      	ldr	r3, [r7, #0]
 8003d82:	791b      	ldrb	r3, [r3, #4]
 8003d84:	049b      	lsls	r3, r3, #18
 8003d86:	430b      	orrs	r3, r1
 8003d88:	4313      	orrs	r3, r2
 8003d8a:	68ba      	ldr	r2, [r7, #8]
 8003d8c:	0151      	lsls	r1, r2, #5
 8003d8e:	68fa      	ldr	r2, [r7, #12]
 8003d90:	440a      	add	r2, r1
 8003d92:	f502 6230 	add.w	r2, r2, #2816	; 0xb00
 8003d96:	f043 5380 	orr.w	r3, r3, #268435456	; 0x10000000
 8003d9a:	f443 4300 	orr.w	r3, r3, #32768	; 0x8000
 8003d9e:	6013      	str	r3, [r2, #0]
 8003da0:	2300      	movs	r3, #0
 8003da2:	4618      	mov	r0, r3
 8003da4:	3714      	adds	r7, #20
 8003da6:	46bd      	mov	sp, r7
 8003da8:	f85d 7b04 	ldr.w	r7, [sp], #4
 8003dac:	4770      	bx	lr
	...

08003db0 <USB_DeactivateEndpoint>:
 8003db0:	b480      	push	{r7}
 8003db2:	b085      	sub	sp, #20
 8003db4:	af00      	add	r7, sp, #0
 8003db6:	6078      	str	r0, [r7, #4]
 8003db8:	6039      	str	r1, [r7, #0]
 8003dba:	687b      	ldr	r3, [r7, #4]
 8003dbc:	60fb      	str	r3, [r7, #12]
 8003dbe:	683b      	ldr	r3, [r7, #0]
 8003dc0:	781b      	ldrb	r3, [r3, #0]
 8003dc2:	60bb      	str	r3, [r7, #8]
 8003dc4:	683b      	ldr	r3, [r7, #0]
 8003dc6:	785b      	ldrb	r3, [r3, #1]
 8003dc8:	2b01      	cmp	r3, #1
 8003dca:	d161      	bne.n	8003e90 <USB_DeactivateEndpoint+0xe0>
 8003dcc:	68bb      	ldr	r3, [r7, #8]
 8003dce:	015a      	lsls	r2, r3, #5
 8003dd0:	68fb      	ldr	r3, [r7, #12]
 8003dd2:	4413      	add	r3, r2
 8003dd4:	f503 6310 	add.w	r3, r3, #2304	; 0x900
 8003dd8:	681b      	ldr	r3, [r3, #0]
 8003dda:	f003 4300 	and.w	r3, r3, #2147483648	; 0x80000000
 8003dde:	f1b3 4f00 	cmp.w	r3, #2147483648	; 0x80000000
 8003de2:	d11f      	bne.n	8003e24 <USB_DeactivateEndpoint+0x74>
 8003de4:	68bb      	ldr	r3, [r7, #8]
 8003de6:	015a      	lsls	r2, r3, #5
 8003de8:	68fb      	ldr	r3, [r7, #12]
 8003dea:	4413      	add	r3, r2
 8003dec:	f503 6310 	add.w	r3, r3, #2304	; 0x900
 8003df0:	681b      	ldr	r3, [r3, #0]
 8003df2:	68ba      	ldr	r2, [r7, #8]
 8003df4:	0151      	lsls	r1, r2, #5
 8003df6:	68fa      	ldr	r2, [r7, #12]
 8003df8:	440a      	add	r2, r1
 8003dfa:	f502 6210 	add.w	r2, r2, #2304	; 0x900
 8003dfe:	f043 6300 	orr.w	r3, r3, #134217728	; 0x8000000
 8003e02:	6013      	str	r3, [r2, #0]
 8003e04:	68bb      	ldr	r3, [r7, #8]
 8003e06:	015a      	lsls	r2, r3, #5
 8003e08:	68fb      	ldr	r3, [r7, #12]
 8003e0a:	4413      	add	r3, r2
 8003e0c:	f503 6310 	add.w	r3, r3, #2304	; 0x900
 8003e10:	681b      	ldr	r3, [r3, #0]
 8003e12:	68ba      	ldr	r2, [r7, #8]
 8003e14:	0151      	lsls	r1, r2, #5
 8003e16:	68fa      	ldr	r2, [r7, #12]
 8003e18:	440a      	add	r2, r1
 8003e1a:	f502 6210 	add.w	r2, r2, #2304	; 0x900
 8003e1e:	f043 4380 	orr.w	r3, r3, #1073741824	; 0x40000000
 8003e22:	6013      	str	r3, [r2, #0]
 8003e24:	68fb      	ldr	r3, [r7, #12]
 8003e26:	f503 6300 	add.w	r3, r3, #2048	; 0x800
 8003e2a:	6bda      	ldr	r2, [r3, #60]	; 0x3c
 8003e2c:	683b      	ldr	r3, [r7, #0]
 8003e2e:	781b      	ldrb	r3, [r3, #0]
 8003e30:	f003 030f 	and.w	r3, r3, #15
 8003e34:	2101      	movs	r1, #1
 8003e36:	fa01 f303 	lsl.w	r3, r1, r3
 8003e3a:	b29b      	uxth	r3, r3
 8003e3c:	43db      	mvns	r3, r3
 8003e3e:	68f9      	ldr	r1, [r7, #12]
 8003e40:	f501 6100 	add.w	r1, r1, #2048	; 0x800
 8003e44:	4013      	ands	r3, r2
 8003e46:	63cb      	str	r3, [r1, #60]	; 0x3c
 8003e48:	68fb      	ldr	r3, [r7, #12]
 8003e4a:	f503 6300 	add.w	r3, r3, #2048	; 0x800
 8003e4e:	69da      	ldr	r2, [r3, #28]
 8003e50:	683b      	ldr	r3, [r7, #0]
 8003e52:	781b      	ldrb	r3, [r3, #0]
 8003e54:	f003 030f 	and.w	r3, r3, #15
 8003e58:	2101      	movs	r1, #1
 8003e5a:	fa01 f303 	lsl.w	r3, r1, r3
 8003e5e:	b29b      	uxth	r3, r3
 8003e60:	43db      	mvns	r3, r3
 8003e62:	68f9      	ldr	r1, [r7, #12]
 8003e64:	f501 6100 	add.w	r1, r1, #2048	; 0x800
 8003e68:	4013      	ands	r3, r2
 8003e6a:	61cb      	str	r3, [r1, #28]
 8003e6c:	68bb      	ldr	r3, [r7, #8]
 8003e6e:	015a      	lsls	r2, r3, #5
 8003e70:	68fb      	ldr	r3, [r7, #12]
 8003e72:	4413      	add	r3, r2
 8003e74:	f503 6310 	add.w	r3, r3, #2304	; 0x900
 8003e78:	681a      	ldr	r2, [r3, #0]
 8003e7a:	68bb      	ldr	r3, [r7, #8]
 8003e7c:	0159      	lsls	r1, r3, #5
 8003e7e:	68fb      	ldr	r3, [r7, #12]
 8003e80:	440b      	add	r3, r1
 8003e82:	f503 6310 	add.w	r3, r3, #2304	; 0x900
 8003e86:	4619      	mov	r1, r3
 8003e88:	4b35      	ldr	r3, [pc, #212]	; (8003f60 <USB_DeactivateEndpoint+0x1b0>)
 8003e8a:	4013      	ands	r3, r2
 8003e8c:	600b      	str	r3, [r1, #0]
 8003e8e:	e060      	b.n	8003f52 <USB_DeactivateEndpoint+0x1a2>
 8003e90:	68bb      	ldr	r3, [r7, #8]
 8003e92:	015a      	lsls	r2, r3, #5
 8003e94:	68fb      	ldr	r3, [r7, #12]
 8003e96:	4413      	add	r3, r2
 8003e98:	f503 6330 	add.w	r3, r3, #2816	; 0xb00
 8003e9c:	681b      	ldr	r3, [r3, #0]
 8003e9e:	f003 4300 	and.w	r3, r3, #2147483648	; 0x80000000
 8003ea2:	f1b3 4f00 	cmp.w	r3, #2147483648	; 0x80000000
 8003ea6:	d11f      	bne.n	8003ee8 <USB_DeactivateEndpoint+0x138>
 8003ea8:	68bb      	ldr	r3, [r7, #8]
 8003eaa:	015a      	lsls	r2, r3, #5
 8003eac:	68fb      	ldr	r3, [r7, #12]
 8003eae:	4413      	add	r3, r2
 8003eb0:	f503 6330 	add.w	r3, r3, #2816	; 0xb00
 8003eb4:	681b      	ldr	r3, [r3, #0]
 8003eb6:	68ba      	ldr	r2, [r7, #8]
 8003eb8:	0151      	lsls	r1, r2, #5
 8003eba:	68fa      	ldr	r2, [r7, #12]
 8003ebc:	440a      	add	r2, r1
 8003ebe:	f502 6230 	add.w	r2, r2, #2816	; 0xb00
 8003ec2:	f043 6300 	orr.w	r3, r3, #134217728	; 0x8000000
 8003ec6:	6013      	str	r3, [r2, #0]
 8003ec8:	68bb      	ldr	r3, [r7, #8]
 8003eca:	015a      	lsls	r2, r3, #5
 8003ecc:	68fb      	ldr	r3, [r7, #12]
 8003ece:	4413      	add	r3, r2
 8003ed0:	f503 6330 	add.w	r3, r3, #2816	; 0xb00
 8003ed4:	681b      	ldr	r3, [r3, #0]
 8003ed6:	68ba      	ldr	r2, [r7, #8]
 8003ed8:	0151      	lsls	r1, r2, #5
 8003eda:	68fa      	ldr	r2, [r7, #12]
 8003edc:	440a      	add	r2, r1
 8003ede:	f502 6230 	add.w	r2, r2, #2816	; 0xb00
 8003ee2:	f043 4380 	orr.w	r3, r3, #1073741824	; 0x40000000
 8003ee6:	6013      	str	r3, [r2, #0]
 8003ee8:	68fb      	ldr	r3, [r7, #12]
 8003eea:	f503 6300 	add.w	r3, r3, #2048	; 0x800
 8003eee:	6bda      	ldr	r2, [r3, #60]	; 0x3c
 8003ef0:	683b      	ldr	r3, [r7, #0]
 8003ef2:	781b      	ldrb	r3, [r3, #0]
 8003ef4:	f003 030f 	and.w	r3, r3, #15
 8003ef8:	2101      	movs	r1, #1
 8003efa:	fa01 f303 	lsl.w	r3, r1, r3
 8003efe:	041b      	lsls	r3, r3, #16
 8003f00:	43db      	mvns	r3, r3
 8003f02:	68f9      	ldr	r1, [r7, #12]
 8003f04:	f501 6100 	add.w	r1, r1, #2048	; 0x800
 8003f08:	4013      	ands	r3, r2
 8003f0a:	63cb      	str	r3, [r1, #60]	; 0x3c
 8003f0c:	68fb      	ldr	r3, [r7, #12]
 8003f0e:	f503 6300 	add.w	r3, r3, #2048	; 0x800
 8003f12:	69da      	ldr	r2, [r3, #28]
 8003f14:	683b      	ldr	r3, [r7, #0]
 8003f16:	781b      	ldrb	r3, [r3, #0]
 8003f18:	f003 030f 	and.w	r3, r3, #15
 8003f1c:	2101      	movs	r1, #1
 8003f1e:	fa01 f303 	lsl.w	r3, r1, r3
 8003f22:	041b      	lsls	r3, r3, #16
 8003f24:	43db      	mvns	r3, r3
 8003f26:	68f9      	ldr	r1, [r7, #12]
 8003f28:	f501 6100 	add.w	r1, r1, #2048	; 0x800
 8003f2c:	4013      	ands	r3, r2
 8003f2e:	61cb      	str	r3, [r1, #28]
 8003f30:	68bb      	ldr	r3, [r7, #8]
 8003f32:	015a      	lsls	r2, r3, #5
 8003f34:	68fb      	ldr	r3, [r7, #12]
 8003f36:	4413      	add	r3, r2
 8003f38:	f503 6330 	add.w	r3, r3, #2816	; 0xb00
 8003f3c:	681a      	ldr	r2, [r3, #0]
 8003f3e:	68bb      	ldr	r3, [r7, #8]
 8003f40:	0159      	lsls	r1, r3, #5
 8003f42:	68fb      	ldr	r3, [r7, #12]
 8003f44:	440b      	add	r3, r1
 8003f46:	f503 6330 	add.w	r3, r3, #2816	; 0xb00
 8003f4a:	4619      	mov	r1, r3
 8003f4c:	4b05      	ldr	r3, [pc, #20]	; (8003f64 <USB_DeactivateEndpoint+0x1b4>)
 8003f4e:	4013      	ands	r3, r2
 8003f50:	600b      	str	r3, [r1, #0]
 8003f52:	2300      	movs	r3, #0
 8003f54:	4618      	mov	r0, r3
 8003f56:	3714      	adds	r7, #20
 8003f58:	46bd      	mov	sp, r7
 8003f5a:	f85d 7b04 	ldr.w	r7, [sp], #4
 8003f5e:	4770      	bx	lr
 8003f60:	ec337800 	.word	0xec337800
 8003f64:	eff37800 	.word	0xeff37800

08003f68 <USB_EPStartXfer>:
 8003f68:	b580      	push	{r7, lr}
 8003f6a:	b08a      	sub	sp, #40	; 0x28
 8003f6c:	af02      	add	r7, sp, #8
 8003f6e:	60f8      	str	r0, [r7, #12]
 8003f70:	60b9      	str	r1, [r7, #8]
 8003f72:	4613      	mov	r3, r2
 8003f74:	71fb      	strb	r3, [r7, #7]
 8003f76:	68fb      	ldr	r3, [r7, #12]
 8003f78:	61fb      	str	r3, [r7, #28]
 8003f7a:	68bb      	ldr	r3, [r7, #8]
 8003f7c:	781b      	ldrb	r3, [r3, #0]
 8003f7e:	61bb      	str	r3, [r7, #24]
 8003f80:	68bb      	ldr	r3, [r7, #8]
 8003f82:	785b      	ldrb	r3, [r3, #1]
 8003f84:	2b01      	cmp	r3, #1
 8003f86:	f040 815c 	bne.w	8004242 <USB_EPStartXfer+0x2da>
 8003f8a:	68bb      	ldr	r3, [r7, #8]
 8003f8c:	699b      	ldr	r3, [r3, #24]
 8003f8e:	2b00      	cmp	r3, #0
 8003f90:	d132      	bne.n	8003ff8 <USB_EPStartXfer+0x90>
 8003f92:	69bb      	ldr	r3, [r7, #24]
 8003f94:	015a      	lsls	r2, r3, #5
 8003f96:	69fb      	ldr	r3, [r7, #28]
 8003f98:	4413      	add	r3, r2
 8003f9a:	f503 6310 	add.w	r3, r3, #2304	; 0x900
 8003f9e:	691b      	ldr	r3, [r3, #16]
 8003fa0:	69ba      	ldr	r2, [r7, #24]
 8003fa2:	0151      	lsls	r1, r2, #5
 8003fa4:	69fa      	ldr	r2, [r7, #28]
 8003fa6:	440a      	add	r2, r1
 8003fa8:	f502 6210 	add.w	r2, r2, #2304	; 0x900
 8003fac:	f023 53ff 	bic.w	r3, r3, #534773760	; 0x1fe00000
 8003fb0:	f423 13c0 	bic.w	r3, r3, #1572864	; 0x180000
 8003fb4:	6113      	str	r3, [r2, #16]
 8003fb6:	69bb      	ldr	r3, [r7, #24]
 8003fb8:	015a      	lsls	r2, r3, #5
 8003fba:	69fb      	ldr	r3, [r7, #28]
 8003fbc:	4413      	add	r3, r2
 8003fbe:	f503 6310 	add.w	r3, r3, #2304	; 0x900
 8003fc2:	691b      	ldr	r3, [r3, #16]
 8003fc4:	69ba      	ldr	r2, [r7, #24]
 8003fc6:	0151      	lsls	r1, r2, #5
 8003fc8:	69fa      	ldr	r2, [r7, #28]
 8003fca:	440a      	add	r2, r1
 8003fcc:	f502 6210 	add.w	r2, r2, #2304	; 0x900
 8003fd0:	f443 2300 	orr.w	r3, r3, #524288	; 0x80000
 8003fd4:	6113      	str	r3, [r2, #16]
 8003fd6:	69bb      	ldr	r3, [r7, #24]
 8003fd8:	015a      	lsls	r2, r3, #5
 8003fda:	69fb      	ldr	r3, [r7, #28]
 8003fdc:	4413      	add	r3, r2
 8003fde:	f503 6310 	add.w	r3, r3, #2304	; 0x900
 8003fe2:	691b      	ldr	r3, [r3, #16]
 8003fe4:	69ba      	ldr	r2, [r7, #24]
 8003fe6:	0151      	lsls	r1, r2, #5
 8003fe8:	69fa      	ldr	r2, [r7, #28]
 8003fea:	440a      	add	r2, r1
 8003fec:	f502 6210 	add.w	r2, r2, #2304	; 0x900
 8003ff0:	0cdb      	lsrs	r3, r3, #19
 8003ff2:	04db      	lsls	r3, r3, #19
 8003ff4:	6113      	str	r3, [r2, #16]
 8003ff6:	e074      	b.n	80040e2 <USB_EPStartXfer+0x17a>
 8003ff8:	69bb      	ldr	r3, [r7, #24]
 8003ffa:	015a      	lsls	r2, r3, #5
 8003ffc:	69fb      	ldr	r3, [r7, #28]
 8003ffe:	4413      	add	r3, r2
 8004000:	f503 6310 	add.w	r3, r3, #2304	; 0x900
 8004004:	691b      	ldr	r3, [r3, #16]
 8004006:	69ba      	ldr	r2, [r7, #24]
 8004008:	0151      	lsls	r1, r2, #5
 800400a:	69fa      	ldr	r2, [r7, #28]
 800400c:	440a      	add	r2, r1
 800400e:	f502 6210 	add.w	r2, r2, #2304	; 0x900
 8004012:	0cdb      	lsrs	r3, r3, #19
 8004014:	04db      	lsls	r3, r3, #19
 8004016:	6113      	str	r3, [r2, #16]
 8004018:	69bb      	ldr	r3, [r7, #24]
 800401a:	015a      	lsls	r2, r3, #5
 800401c:	69fb      	ldr	r3, [r7, #28]
 800401e:	4413      	add	r3, r2
 8004020:	f503 6310 	add.w	r3, r3, #2304	; 0x900
 8004024:	691b      	ldr	r3, [r3, #16]
 8004026:	69ba      	ldr	r2, [r7, #24]
 8004028:	0151      	lsls	r1, r2, #5
 800402a:	69fa      	ldr	r2, [r7, #28]
 800402c:	440a      	add	r2, r1
 800402e:	f502 6210 	add.w	r2, r2, #2304	; 0x900
 8004032:	f023 53ff 	bic.w	r3, r3, #534773760	; 0x1fe00000
 8004036:	f423 13c0 	bic.w	r3, r3, #1572864	; 0x180000
 800403a:	6113      	str	r3, [r2, #16]
 800403c:	69bb      	ldr	r3, [r7, #24]
 800403e:	015a      	lsls	r2, r3, #5
 8004040:	69fb      	ldr	r3, [r7, #28]
 8004042:	4413      	add	r3, r2
 8004044:	f503 6310 	add.w	r3, r3, #2304	; 0x900
 8004048:	691a      	ldr	r2, [r3, #16]
 800404a:	68bb      	ldr	r3, [r7, #8]
 800404c:	6999      	ldr	r1, [r3, #24]
 800404e:	68bb      	ldr	r3, [r7, #8]
 8004050:	68db      	ldr	r3, [r3, #12]
 8004052:	440b      	add	r3, r1
 8004054:	1e59      	subs	r1, r3, #1
 8004056:	68bb      	ldr	r3, [r7, #8]
 8004058:	68db      	ldr	r3, [r3, #12]
 800405a:	fbb1 f3f3 	udiv	r3, r1, r3
 800405e:	04d9      	lsls	r1, r3, #19
 8004060:	4b9d      	ldr	r3, [pc, #628]	; (80042d8 <USB_EPStartXfer+0x370>)
 8004062:	400b      	ands	r3, r1
 8004064:	69b9      	ldr	r1, [r7, #24]
 8004066:	0148      	lsls	r0, r1, #5
 8004068:	69f9      	ldr	r1, [r7, #28]
 800406a:	4401      	add	r1, r0
 800406c:	f501 6110 	add.w	r1, r1, #2304	; 0x900
 8004070:	4313      	orrs	r3, r2
 8004072:	610b      	str	r3, [r1, #16]
 8004074:	69bb      	ldr	r3, [r7, #24]
 8004076:	015a      	lsls	r2, r3, #5
 8004078:	69fb      	ldr	r3, [r7, #28]
 800407a:	4413      	add	r3, r2
 800407c:	f503 6310 	add.w	r3, r3, #2304	; 0x900
 8004080:	691a      	ldr	r2, [r3, #16]
 8004082:	68bb      	ldr	r3, [r7, #8]
 8004084:	699b      	ldr	r3, [r3, #24]
 8004086:	f3c3 0312 	ubfx	r3, r3, #0, #19
 800408a:	69b9      	ldr	r1, [r7, #24]
 800408c:	0148      	lsls	r0, r1, #5
 800408e:	69f9      	ldr	r1, [r7, #28]
 8004090:	4401      	add	r1, r0
 8004092:	f501 6110 	add.w	r1, r1, #2304	; 0x900
 8004096:	4313      	orrs	r3, r2
 8004098:	610b      	str	r3, [r1, #16]
 800409a:	68bb      	ldr	r3, [r7, #8]
 800409c:	791b      	ldrb	r3, [r3, #4]
 800409e:	2b01      	cmp	r3, #1
 80040a0:	d11f      	bne.n	80040e2 <USB_EPStartXfer+0x17a>
 80040a2:	69bb      	ldr	r3, [r7, #24]
 80040a4:	015a      	lsls	r2, r3, #5
 80040a6:	69fb      	ldr	r3, [r7, #28]
 80040a8:	4413      	add	r3, r2
 80040aa:	f503 6310 	add.w	r3, r3, #2304	; 0x900
 80040ae:	691b      	ldr	r3, [r3, #16]
 80040b0:	69ba      	ldr	r2, [r7, #24]
 80040b2:	0151      	lsls	r1, r2, #5
 80040b4:	69fa      	ldr	r2, [r7, #28]
 80040b6:	440a      	add	r2, r1
 80040b8:	f502 6210 	add.w	r2, r2, #2304	; 0x900
 80040bc:	f023 43c0 	bic.w	r3, r3, #1610612736	; 0x60000000
 80040c0:	6113      	str	r3, [r2, #16]
 80040c2:	69bb      	ldr	r3, [r7, #24]
 80040c4:	015a      	lsls	r2, r3, #5
 80040c6:	69fb      	ldr	r3, [r7, #28]
 80040c8:	4413      	add	r3, r2
 80040ca:	f503 6310 	add.w	r3, r3, #2304	; 0x900
 80040ce:	691b      	ldr	r3, [r3, #16]
 80040d0:	69ba      	ldr	r2, [r7, #24]
 80040d2:	0151      	lsls	r1, r2, #5
 80040d4:	69fa      	ldr	r2, [r7, #28]
 80040d6:	440a      	add	r2, r1
 80040d8:	f502 6210 	add.w	r2, r2, #2304	; 0x900
 80040dc:	f043 5300 	orr.w	r3, r3, #536870912	; 0x20000000
 80040e0:	6113      	str	r3, [r2, #16]
 80040e2:	79fb      	ldrb	r3, [r7, #7]
 80040e4:	2b01      	cmp	r3, #1
 80040e6:	d14b      	bne.n	8004180 <USB_EPStartXfer+0x218>
 80040e8:	68bb      	ldr	r3, [r7, #8]
 80040ea:	695b      	ldr	r3, [r3, #20]
 80040ec:	2b00      	cmp	r3, #0
 80040ee:	d009      	beq.n	8004104 <USB_EPStartXfer+0x19c>
 80040f0:	69bb      	ldr	r3, [r7, #24]
 80040f2:	015a      	lsls	r2, r3, #5
 80040f4:	69fb      	ldr	r3, [r7, #28]
 80040f6:	4413      	add	r3, r2
 80040f8:	f503 6310 	add.w	r3, r3, #2304	; 0x900
 80040fc:	461a      	mov	r2, r3
 80040fe:	68bb      	ldr	r3, [r7, #8]
 8004100:	695b      	ldr	r3, [r3, #20]
 8004102:	6153      	str	r3, [r2, #20]
 8004104:	68bb      	ldr	r3, [r7, #8]
 8004106:	791b      	ldrb	r3, [r3, #4]
 8004108:	2b01      	cmp	r3, #1
 800410a:	d128      	bne.n	800415e <USB_EPStartXfer+0x1f6>
 800410c:	69fb      	ldr	r3, [r7, #28]
 800410e:	f503 6300 	add.w	r3, r3, #2048	; 0x800
 8004112:	689b      	ldr	r3, [r3, #8]
 8004114:	f403 7380 	and.w	r3, r3, #256	; 0x100
 8004118:	2b00      	cmp	r3, #0
 800411a:	d110      	bne.n	800413e <USB_EPStartXfer+0x1d6>
 800411c:	69bb      	ldr	r3, [r7, #24]
 800411e:	015a      	lsls	r2, r3, #5
 8004120:	69fb      	ldr	r3, [r7, #28]
 8004122:	4413      	add	r3, r2
 8004124:	f503 6310 	add.w	r3, r3, #2304	; 0x900
 8004128:	681b      	ldr	r3, [r3, #0]
 800412a:	69ba      	ldr	r2, [r7, #24]
 800412c:	0151      	lsls	r1, r2, #5
 800412e:	69fa      	ldr	r2, [r7, #28]
 8004130:	440a      	add	r2, r1
 8004132:	f502 6210 	add.w	r2, r2, #2304	; 0x900
 8004136:	f043 5300 	orr.w	r3, r3, #536870912	; 0x20000000
 800413a:	6013      	str	r3, [r2, #0]
 800413c:	e00f      	b.n	800415e <USB_EPStartXfer+0x1f6>
 800413e:	69bb      	ldr	r3, [r7, #24]
 8004140:	015a      	lsls	r2, r3, #5
 8004142:	69fb      	ldr	r3, [r7, #28]
 8004144:	4413      	add	r3, r2
 8004146:	f503 6310 	add.w	r3, r3, #2304	; 0x900
 800414a:	681b      	ldr	r3, [r3, #0]
 800414c:	69ba      	ldr	r2, [r7, #24]
 800414e:	0151      	lsls	r1, r2, #5
 8004150:	69fa      	ldr	r2, [r7, #28]
 8004152:	440a      	add	r2, r1
 8004154:	f502 6210 	add.w	r2, r2, #2304	; 0x900
 8004158:	f043 5380 	orr.w	r3, r3, #268435456	; 0x10000000
 800415c:	6013      	str	r3, [r2, #0]
 800415e:	69bb      	ldr	r3, [r7, #24]
 8004160:	015a      	lsls	r2, r3, #5
 8004162:	69fb      	ldr	r3, [r7, #28]
 8004164:	4413      	add	r3, r2
 8004166:	f503 6310 	add.w	r3, r3, #2304	; 0x900
 800416a:	681b      	ldr	r3, [r3, #0]
 800416c:	69ba      	ldr	r2, [r7, #24]
 800416e:	0151      	lsls	r1, r2, #5
 8004170:	69fa      	ldr	r2, [r7, #28]
 8004172:	440a      	add	r2, r1
 8004174:	f502 6210 	add.w	r2, r2, #2304	; 0x900
 8004178:	f043 4304 	orr.w	r3, r3, #2214592512	; 0x84000000
 800417c:	6013      	str	r3, [r2, #0]
 800417e:	e133      	b.n	80043e8 <USB_EPStartXfer+0x480>
 8004180:	69bb      	ldr	r3, [r7, #24]
 8004182:	015a      	lsls	r2, r3, #5
 8004184:	69fb      	ldr	r3, [r7, #28]
 8004186:	4413      	add	r3, r2
 8004188:	f503 6310 	add.w	r3, r3, #2304	; 0x900
 800418c:	681b      	ldr	r3, [r3, #0]
 800418e:	69ba      	ldr	r2, [r7, #24]
 8004190:	0151      	lsls	r1, r2, #5
 8004192:	69fa      	ldr	r2, [r7, #28]
 8004194:	440a      	add	r2, r1
 8004196:	f502 6210 	add.w	r2, r2, #2304	; 0x900
 800419a:	f043 4304 	orr.w	r3, r3, #2214592512	; 0x84000000
 800419e:	6013      	str	r3, [r2, #0]
 80041a0:	68bb      	ldr	r3, [r7, #8]
 80041a2:	791b      	ldrb	r3, [r3, #4]
 80041a4:	2b01      	cmp	r3, #1
 80041a6:	d015      	beq.n	80041d4 <USB_EPStartXfer+0x26c>
 80041a8:	68bb      	ldr	r3, [r7, #8]
 80041aa:	699b      	ldr	r3, [r3, #24]
 80041ac:	2b00      	cmp	r3, #0
 80041ae:	f000 811b 	beq.w	80043e8 <USB_EPStartXfer+0x480>
 80041b2:	69fb      	ldr	r3, [r7, #28]
 80041b4:	f503 6300 	add.w	r3, r3, #2048	; 0x800
 80041b8:	6b5a      	ldr	r2, [r3, #52]	; 0x34
 80041ba:	68bb      	ldr	r3, [r7, #8]
 80041bc:	781b      	ldrb	r3, [r3, #0]
 80041be:	f003 030f 	and.w	r3, r3, #15
 80041c2:	2101      	movs	r1, #1
 80041c4:	fa01 f303 	lsl.w	r3, r1, r3
 80041c8:	69f9      	ldr	r1, [r7, #28]
 80041ca:	f501 6100 	add.w	r1, r1, #2048	; 0x800
 80041ce:	4313      	orrs	r3, r2
 80041d0:	634b      	str	r3, [r1, #52]	; 0x34
 80041d2:	e109      	b.n	80043e8 <USB_EPStartXfer+0x480>
 80041d4:	69fb      	ldr	r3, [r7, #28]
 80041d6:	f503 6300 	add.w	r3, r3, #2048	; 0x800
 80041da:	689b      	ldr	r3, [r3, #8]
 80041dc:	f403 7380 	and.w	r3, r3, #256	; 0x100
 80041e0:	2b00      	cmp	r3, #0
 80041e2:	d110      	bne.n	8004206 <USB_EPStartXfer+0x29e>
 80041e4:	69bb      	ldr	r3, [r7, #24]
 80041e6:	015a      	lsls	r2, r3, #5
 80041e8:	69fb      	ldr	r3, [r7, #28]
 80041ea:	4413      	add	r3, r2
 80041ec:	f503 6310 	add.w	r3, r3, #2304	; 0x900
 80041f0:	681b      	ldr	r3, [r3, #0]
 80041f2:	69ba      	ldr	r2, [r7, #24]
 80041f4:	0151      	lsls	r1, r2, #5
 80041f6:	69fa      	ldr	r2, [r7, #28]
 80041f8:	440a      	add	r2, r1
 80041fa:	f502 6210 	add.w	r2, r2, #2304	; 0x900
 80041fe:	f043 5300 	orr.w	r3, r3, #536870912	; 0x20000000
 8004202:	6013      	str	r3, [r2, #0]
 8004204:	e00f      	b.n	8004226 <USB_EPStartXfer+0x2be>
 8004206:	69bb      	ldr	r3, [r7, #24]
 8004208:	015a      	lsls	r2, r3, #5
 800420a:	69fb      	ldr	r3, [r7, #28]
 800420c:	4413      	add	r3, r2
 800420e:	f503 6310 	add.w	r3, r3, #2304	; 0x900
 8004212:	681b      	ldr	r3, [r3, #0]
 8004214:	69ba      	ldr	r2, [r7, #24]
 8004216:	0151      	lsls	r1, r2, #5
 8004218:	69fa      	ldr	r2, [r7, #28]
 800421a:	440a      	add	r2, r1
 800421c:	f502 6210 	add.w	r2, r2, #2304	; 0x900
 8004220:	f043 5380 	orr.w	r3, r3, #268435456	; 0x10000000
 8004224:	6013      	str	r3, [r2, #0]
 8004226:	68bb      	ldr	r3, [r7, #8]
 8004228:	6919      	ldr	r1, [r3, #16]
 800422a:	68bb      	ldr	r3, [r7, #8]
 800422c:	781a      	ldrb	r2, [r3, #0]
 800422e:	68bb      	ldr	r3, [r7, #8]
 8004230:	699b      	ldr	r3, [r3, #24]
 8004232:	b298      	uxth	r0, r3
 8004234:	79fb      	ldrb	r3, [r7, #7]
 8004236:	9300      	str	r3, [sp, #0]
 8004238:	4603      	mov	r3, r0
 800423a:	68f8      	ldr	r0, [r7, #12]
 800423c:	f000 fade 	bl	80047fc <USB_WritePacket>
 8004240:	e0d2      	b.n	80043e8 <USB_EPStartXfer+0x480>
 8004242:	69bb      	ldr	r3, [r7, #24]
 8004244:	015a      	lsls	r2, r3, #5
 8004246:	69fb      	ldr	r3, [r7, #28]
 8004248:	4413      	add	r3, r2
 800424a:	f503 6330 	add.w	r3, r3, #2816	; 0xb00
 800424e:	691b      	ldr	r3, [r3, #16]
 8004250:	69ba      	ldr	r2, [r7, #24]
 8004252:	0151      	lsls	r1, r2, #5
 8004254:	69fa      	ldr	r2, [r7, #28]
 8004256:	440a      	add	r2, r1
 8004258:	f502 6230 	add.w	r2, r2, #2816	; 0xb00
 800425c:	0cdb      	lsrs	r3, r3, #19
 800425e:	04db      	lsls	r3, r3, #19
 8004260:	6113      	str	r3, [r2, #16]
 8004262:	69bb      	ldr	r3, [r7, #24]
 8004264:	015a      	lsls	r2, r3, #5
 8004266:	69fb      	ldr	r3, [r7, #28]
 8004268:	4413      	add	r3, r2
 800426a:	f503 6330 	add.w	r3, r3, #2816	; 0xb00
 800426e:	691b      	ldr	r3, [r3, #16]
 8004270:	69ba      	ldr	r2, [r7, #24]
 8004272:	0151      	lsls	r1, r2, #5
 8004274:	69fa      	ldr	r2, [r7, #28]
 8004276:	440a      	add	r2, r1
 8004278:	f502 6230 	add.w	r2, r2, #2816	; 0xb00
 800427c:	f023 53ff 	bic.w	r3, r3, #534773760	; 0x1fe00000
 8004280:	f423 13c0 	bic.w	r3, r3, #1572864	; 0x180000
 8004284:	6113      	str	r3, [r2, #16]
 8004286:	68bb      	ldr	r3, [r7, #8]
 8004288:	699b      	ldr	r3, [r3, #24]
 800428a:	2b00      	cmp	r3, #0
 800428c:	d126      	bne.n	80042dc <USB_EPStartXfer+0x374>
 800428e:	69bb      	ldr	r3, [r7, #24]
 8004290:	015a      	lsls	r2, r3, #5
 8004292:	69fb      	ldr	r3, [r7, #28]
 8004294:	4413      	add	r3, r2
 8004296:	f503 6330 	add.w	r3, r3, #2816	; 0xb00
 800429a:	691a      	ldr	r2, [r3, #16]
 800429c:	68bb      	ldr	r3, [r7, #8]
 800429e:	68db      	ldr	r3, [r3, #12]
 80042a0:	f3c3 0312 	ubfx	r3, r3, #0, #19
 80042a4:	69b9      	ldr	r1, [r7, #24]
 80042a6:	0148      	lsls	r0, r1, #5
 80042a8:	69f9      	ldr	r1, [r7, #28]
 80042aa:	4401      	add	r1, r0
 80042ac:	f501 6130 	add.w	r1, r1, #2816	; 0xb00
 80042b0:	4313      	orrs	r3, r2
 80042b2:	610b      	str	r3, [r1, #16]
 80042b4:	69bb      	ldr	r3, [r7, #24]
 80042b6:	015a      	lsls	r2, r3, #5
 80042b8:	69fb      	ldr	r3, [r7, #28]
 80042ba:	4413      	add	r3, r2
 80042bc:	f503 6330 	add.w	r3, r3, #2816	; 0xb00
 80042c0:	691b      	ldr	r3, [r3, #16]
 80042c2:	69ba      	ldr	r2, [r7, #24]
 80042c4:	0151      	lsls	r1, r2, #5
 80042c6:	69fa      	ldr	r2, [r7, #28]
 80042c8:	440a      	add	r2, r1
 80042ca:	f502 6230 	add.w	r2, r2, #2816	; 0xb00
 80042ce:	f443 2300 	orr.w	r3, r3, #524288	; 0x80000
 80042d2:	6113      	str	r3, [r2, #16]
 80042d4:	e03a      	b.n	800434c <USB_EPStartXfer+0x3e4>
 80042d6:	bf00      	nop
 80042d8:	1ff80000 	.word	0x1ff80000
 80042dc:	68bb      	ldr	r3, [r7, #8]
 80042de:	699a      	ldr	r2, [r3, #24]
 80042e0:	68bb      	ldr	r3, [r7, #8]
 80042e2:	68db      	ldr	r3, [r3, #12]
 80042e4:	4413      	add	r3, r2
 80042e6:	1e5a      	subs	r2, r3, #1
 80042e8:	68bb      	ldr	r3, [r7, #8]
 80042ea:	68db      	ldr	r3, [r3, #12]
 80042ec:	fbb2 f3f3 	udiv	r3, r2, r3
 80042f0:	82fb      	strh	r3, [r7, #22]
 80042f2:	68bb      	ldr	r3, [r7, #8]
 80042f4:	68db      	ldr	r3, [r3, #12]
 80042f6:	8afa      	ldrh	r2, [r7, #22]
 80042f8:	fb03 f202 	mul.w	r2, r3, r2
 80042fc:	68bb      	ldr	r3, [r7, #8]
 80042fe:	61da      	str	r2, [r3, #28]
 8004300:	69bb      	ldr	r3, [r7, #24]
 8004302:	015a      	lsls	r2, r3, #5
 8004304:	69fb      	ldr	r3, [r7, #28]
 8004306:	4413      	add	r3, r2
 8004308:	f503 6330 	add.w	r3, r3, #2816	; 0xb00
 800430c:	691a      	ldr	r2, [r3, #16]
 800430e:	8afb      	ldrh	r3, [r7, #22]
 8004310:	04d9      	lsls	r1, r3, #19
 8004312:	4b38      	ldr	r3, [pc, #224]	; (80043f4 <USB_EPStartXfer+0x48c>)
 8004314:	400b      	ands	r3, r1
 8004316:	69b9      	ldr	r1, [r7, #24]
 8004318:	0148      	lsls	r0, r1, #5
 800431a:	69f9      	ldr	r1, [r7, #28]
 800431c:	4401      	add	r1, r0
 800431e:	f501 6130 	add.w	r1, r1, #2816	; 0xb00
 8004322:	4313      	orrs	r3, r2
 8004324:	610b      	str	r3, [r1, #16]
 8004326:	69bb      	ldr	r3, [r7, #24]
 8004328:	015a      	lsls	r2, r3, #5
 800432a:	69fb      	ldr	r3, [r7, #28]
 800432c:	4413      	add	r3, r2
 800432e:	f503 6330 	add.w	r3, r3, #2816	; 0xb00
 8004332:	691a      	ldr	r2, [r3, #16]
 8004334:	68bb      	ldr	r3, [r7, #8]
 8004336:	69db      	ldr	r3, [r3, #28]
 8004338:	f3c3 0312 	ubfx	r3, r3, #0, #19
 800433c:	69b9      	ldr	r1, [r7, #24]
 800433e:	0148      	lsls	r0, r1, #5
 8004340:	69f9      	ldr	r1, [r7, #28]
 8004342:	4401      	add	r1, r0
 8004344:	f501 6130 	add.w	r1, r1, #2816	; 0xb00
 8004348:	4313      	orrs	r3, r2
 800434a:	610b      	str	r3, [r1, #16]
 800434c:	79fb      	ldrb	r3, [r7, #7]
 800434e:	2b01      	cmp	r3, #1
 8004350:	d10d      	bne.n	800436e <USB_EPStartXfer+0x406>
 8004352:	68bb      	ldr	r3, [r7, #8]
 8004354:	691b      	ldr	r3, [r3, #16]
 8004356:	2b00      	cmp	r3, #0
 8004358:	d009      	beq.n	800436e <USB_EPStartXfer+0x406>
 800435a:	68bb      	ldr	r3, [r7, #8]
 800435c:	6919      	ldr	r1, [r3, #16]
 800435e:	69bb      	ldr	r3, [r7, #24]
 8004360:	015a      	lsls	r2, r3, #5
 8004362:	69fb      	ldr	r3, [r7, #28]
 8004364:	4413      	add	r3, r2
 8004366:	f503 6330 	add.w	r3, r3, #2816	; 0xb00
 800436a:	460a      	mov	r2, r1
 800436c:	615a      	str	r2, [r3, #20]
 800436e:	68bb      	ldr	r3, [r7, #8]
 8004370:	791b      	ldrb	r3, [r3, #4]
 8004372:	2b01      	cmp	r3, #1
 8004374:	d128      	bne.n	80043c8 <USB_EPStartXfer+0x460>
 8004376:	69fb      	ldr	r3, [r7, #28]
 8004378:	f503 6300 	add.w	r3, r3, #2048	; 0x800
 800437c:	689b      	ldr	r3, [r3, #8]
 800437e:	f403 7380 	and.w	r3, r3, #256	; 0x100
 8004382:	2b00      	cmp	r3, #0
 8004384:	d110      	bne.n	80043a8 <USB_EPStartXfer+0x440>
 8004386:	69bb      	ldr	r3, [r7, #24]
 8004388:	015a      	lsls	r2, r3, #5
 800438a:	69fb      	ldr	r3, [r7, #28]
 800438c:	4413      	add	r3, r2
 800438e:	f503 6330 	add.w	r3, r3, #2816	; 0xb00
 8004392:	681b      	ldr	r3, [r3, #0]
 8004394:	69ba      	ldr	r2, [r7, #24]
 8004396:	0151      	lsls	r1, r2, #5
 8004398:	69fa      	ldr	r2, [r7, #28]
 800439a:	440a      	add	r2, r1
 800439c:	f502 6230 	add.w	r2, r2, #2816	; 0xb00
 80043a0:	f043 5300 	orr.w	r3, r3, #536870912	; 0x20000000
 80043a4:	6013      	str	r3, [r2, #0]
 80043a6:	e00f      	b.n	80043c8 <USB_EPStartXfer+0x460>
 80043a8:	69bb      	ldr	r3, [r7, #24]
 80043aa:	015a      	lsls	r2, r3, #5
 80043ac:	69fb      	ldr	r3, [r7, #28]
 80043ae:	4413      	add	r3, r2
 80043b0:	f503 6330 	add.w	r3, r3, #2816	; 0xb00
 80043b4:	681b      	ldr	r3, [r3, #0]
 80043b6:	69ba      	ldr	r2, [r7, #24]
 80043b8:	0151      	lsls	r1, r2, #5
 80043ba:	69fa      	ldr	r2, [r7, #28]
 80043bc:	440a      	add	r2, r1
 80043be:	f502 6230 	add.w	r2, r2, #2816	; 0xb00
 80043c2:	f043 5380 	orr.w	r3, r3, #268435456	; 0x10000000
 80043c6:	6013      	str	r3, [r2, #0]
 80043c8:	69bb      	ldr	r3, [r7, #24]
 80043ca:	015a      	lsls	r2, r3, #5
 80043cc:	69fb      	ldr	r3, [r7, #28]
 80043ce:	4413      	add	r3, r2
 80043d0:	f503 6330 	add.w	r3, r3, #2816	; 0xb00
 80043d4:	681b      	ldr	r3, [r3, #0]
 80043d6:	69ba      	ldr	r2, [r7, #24]
 80043d8:	0151      	lsls	r1, r2, #5
 80043da:	69fa      	ldr	r2, [r7, #28]
 80043dc:	440a      	add	r2, r1
 80043de:	f502 6230 	add.w	r2, r2, #2816	; 0xb00
 80043e2:	f043 4304 	orr.w	r3, r3, #2214592512	; 0x84000000
 80043e6:	6013      	str	r3, [r2, #0]
 80043e8:	2300      	movs	r3, #0
 80043ea:	4618      	mov	r0, r3
 80043ec:	3720      	adds	r7, #32
 80043ee:	46bd      	mov	sp, r7
 80043f0:	bd80      	pop	{r7, pc}
 80043f2:	bf00      	nop
 80043f4:	1ff80000 	.word	0x1ff80000

080043f8 <USB_EP0StartXfer>:
 80043f8:	b480      	push	{r7}
 80043fa:	b087      	sub	sp, #28
 80043fc:	af00      	add	r7, sp, #0
 80043fe:	60f8      	str	r0, [r7, #12]
 8004400:	60b9      	str	r1, [r7, #8]
 8004402:	4613      	mov	r3, r2
 8004404:	71fb      	strb	r3, [r7, #7]
 8004406:	68fb      	ldr	r3, [r7, #12]
 8004408:	617b      	str	r3, [r7, #20]
 800440a:	68bb      	ldr	r3, [r7, #8]
 800440c:	781b      	ldrb	r3, [r3, #0]
 800440e:	613b      	str	r3, [r7, #16]
 8004410:	68bb      	ldr	r3, [r7, #8]
 8004412:	785b      	ldrb	r3, [r3, #1]
 8004414:	2b01      	cmp	r3, #1
 8004416:	f040 80ce 	bne.w	80045b6 <USB_EP0StartXfer+0x1be>
 800441a:	68bb      	ldr	r3, [r7, #8]
 800441c:	699b      	ldr	r3, [r3, #24]
 800441e:	2b00      	cmp	r3, #0
 8004420:	d132      	bne.n	8004488 <USB_EP0StartXfer+0x90>
 8004422:	693b      	ldr	r3, [r7, #16]
 8004424:	015a      	lsls	r2, r3, #5
 8004426:	697b      	ldr	r3, [r7, #20]
 8004428:	4413      	add	r3, r2
 800442a:	f503 6310 	add.w	r3, r3, #2304	; 0x900
 800442e:	691b      	ldr	r3, [r3, #16]
 8004430:	693a      	ldr	r2, [r7, #16]
 8004432:	0151      	lsls	r1, r2, #5
 8004434:	697a      	ldr	r2, [r7, #20]
 8004436:	440a      	add	r2, r1
 8004438:	f502 6210 	add.w	r2, r2, #2304	; 0x900
 800443c:	f023 53ff 	bic.w	r3, r3, #534773760	; 0x1fe00000
 8004440:	f423 13c0 	bic.w	r3, r3, #1572864	; 0x180000
 8004444:	6113      	str	r3, [r2, #16]
 8004446:	693b      	ldr	r3, [r7, #16]
 8004448:	015a      	lsls	r2, r3, #5
 800444a:	697b      	ldr	r3, [r7, #20]
 800444c:	4413      	add	r3, r2
 800444e:	f503 6310 	add.w	r3, r3, #2304	; 0x900
 8004452:	691b      	ldr	r3, [r3, #16]
 8004454:	693a      	ldr	r2, [r7, #16]
 8004456:	0151      	lsls	r1, r2, #5
 8004458:	697a      	ldr	r2, [r7, #20]
 800445a:	440a      	add	r2, r1
 800445c:	f502 6210 	add.w	r2, r2, #2304	; 0x900
 8004460:	f443 2300 	orr.w	r3, r3, #524288	; 0x80000
 8004464:	6113      	str	r3, [r2, #16]
 8004466:	693b      	ldr	r3, [r7, #16]
 8004468:	015a      	lsls	r2, r3, #5
 800446a:	697b      	ldr	r3, [r7, #20]
 800446c:	4413      	add	r3, r2
 800446e:	f503 6310 	add.w	r3, r3, #2304	; 0x900
 8004472:	691b      	ldr	r3, [r3, #16]
 8004474:	693a      	ldr	r2, [r7, #16]
 8004476:	0151      	lsls	r1, r2, #5
 8004478:	697a      	ldr	r2, [r7, #20]
 800447a:	440a      	add	r2, r1
 800447c:	f502 6210 	add.w	r2, r2, #2304	; 0x900
 8004480:	0cdb      	lsrs	r3, r3, #19
 8004482:	04db      	lsls	r3, r3, #19
 8004484:	6113      	str	r3, [r2, #16]
 8004486:	e04e      	b.n	8004526 <USB_EP0StartXfer+0x12e>
 8004488:	693b      	ldr	r3, [r7, #16]
 800448a:	015a      	lsls	r2, r3, #5
 800448c:	697b      	ldr	r3, [r7, #20]
 800448e:	4413      	add	r3, r2
 8004490:	f503 6310 	add.w	r3, r3, #2304	; 0x900
 8004494:	691b      	ldr	r3, [r3, #16]
 8004496:	693a      	ldr	r2, [r7, #16]
 8004498:	0151      	lsls	r1, r2, #5
 800449a:	697a      	ldr	r2, [r7, #20]
 800449c:	440a      	add	r2, r1
 800449e:	f502 6210 	add.w	r2, r2, #2304	; 0x900
 80044a2:	0cdb      	lsrs	r3, r3, #19
 80044a4:	04db      	lsls	r3, r3, #19
 80044a6:	6113      	str	r3, [r2, #16]
 80044a8:	693b      	ldr	r3, [r7, #16]
 80044aa:	015a      	lsls	r2, r3, #5
 80044ac:	697b      	ldr	r3, [r7, #20]
 80044ae:	4413      	add	r3, r2
 80044b0:	f503 6310 	add.w	r3, r3, #2304	; 0x900
 80044b4:	691b      	ldr	r3, [r3, #16]
 80044b6:	693a      	ldr	r2, [r7, #16]
 80044b8:	0151      	lsls	r1, r2, #5
 80044ba:	697a      	ldr	r2, [r7, #20]
 80044bc:	440a      	add	r2, r1
 80044be:	f502 6210 	add.w	r2, r2, #2304	; 0x900
 80044c2:	f023 53ff 	bic.w	r3, r3, #534773760	; 0x1fe00000
 80044c6:	f423 13c0 	bic.w	r3, r3, #1572864	; 0x180000
 80044ca:	6113      	str	r3, [r2, #16]
 80044cc:	68bb      	ldr	r3, [r7, #8]
 80044ce:	699a      	ldr	r2, [r3, #24]
 80044d0:	68bb      	ldr	r3, [r7, #8]
 80044d2:	68db      	ldr	r3, [r3, #12]
 80044d4:	429a      	cmp	r2, r3
 80044d6:	d903      	bls.n	80044e0 <USB_EP0StartXfer+0xe8>
 80044d8:	68bb      	ldr	r3, [r7, #8]
 80044da:	68da      	ldr	r2, [r3, #12]
 80044dc:	68bb      	ldr	r3, [r7, #8]
 80044de:	619a      	str	r2, [r3, #24]
 80044e0:	693b      	ldr	r3, [r7, #16]
 80044e2:	015a      	lsls	r2, r3, #5
 80044e4:	697b      	ldr	r3, [r7, #20]
 80044e6:	4413      	add	r3, r2
 80044e8:	f503 6310 	add.w	r3, r3, #2304	; 0x900
 80044ec:	691b      	ldr	r3, [r3, #16]
 80044ee:	693a      	ldr	r2, [r7, #16]
 80044f0:	0151      	lsls	r1, r2, #5
 80044f2:	697a      	ldr	r2, [r7, #20]
 80044f4:	440a      	add	r2, r1
 80044f6:	f502 6210 	add.w	r2, r2, #2304	; 0x900
 80044fa:	f443 2300 	orr.w	r3, r3, #524288	; 0x80000
 80044fe:	6113      	str	r3, [r2, #16]
 8004500:	693b      	ldr	r3, [r7, #16]
 8004502:	015a      	lsls	r2, r3, #5
 8004504:	697b      	ldr	r3, [r7, #20]
 8004506:	4413      	add	r3, r2
 8004508:	f503 6310 	add.w	r3, r3, #2304	; 0x900
 800450c:	691a      	ldr	r2, [r3, #16]
 800450e:	68bb      	ldr	r3, [r7, #8]
 8004510:	699b      	ldr	r3, [r3, #24]
 8004512:	f3c3 0312 	ubfx	r3, r3, #0, #19
 8004516:	6939      	ldr	r1, [r7, #16]
 8004518:	0148      	lsls	r0, r1, #5
 800451a:	6979      	ldr	r1, [r7, #20]
 800451c:	4401      	add	r1, r0
 800451e:	f501 6110 	add.w	r1, r1, #2304	; 0x900
 8004522:	4313      	orrs	r3, r2
 8004524:	610b      	str	r3, [r1, #16]
 8004526:	79fb      	ldrb	r3, [r7, #7]
 8004528:	2b01      	cmp	r3, #1
 800452a:	d11e      	bne.n	800456a <USB_EP0StartXfer+0x172>
 800452c:	68bb      	ldr	r3, [r7, #8]
 800452e:	695b      	ldr	r3, [r3, #20]
 8004530:	2b00      	cmp	r3, #0
 8004532:	d009      	beq.n	8004548 <USB_EP0StartXfer+0x150>
 8004534:	693b      	ldr	r3, [r7, #16]
 8004536:	015a      	lsls	r2, r3, #5
 8004538:	697b      	ldr	r3, [r7, #20]
 800453a:	4413      	add	r3, r2
 800453c:	f503 6310 	add.w	r3, r3, #2304	; 0x900
 8004540:	461a      	mov	r2, r3
 8004542:	68bb      	ldr	r3, [r7, #8]
 8004544:	695b      	ldr	r3, [r3, #20]
 8004546:	6153      	str	r3, [r2, #20]
 8004548:	693b      	ldr	r3, [r7, #16]
 800454a:	015a      	lsls	r2, r3, #5
 800454c:	697b      	ldr	r3, [r7, #20]
 800454e:	4413      	add	r3, r2
 8004550:	f503 6310 	add.w	r3, r3, #2304	; 0x900
 8004554:	681b      	ldr	r3, [r3, #0]
 8004556:	693a      	ldr	r2, [r7, #16]
 8004558:	0151      	lsls	r1, r2, #5
 800455a:	697a      	ldr	r2, [r7, #20]
 800455c:	440a      	add	r2, r1
 800455e:	f502 6210 	add.w	r2, r2, #2304	; 0x900
 8004562:	f043 4304 	orr.w	r3, r3, #2214592512	; 0x84000000
 8004566:	6013      	str	r3, [r2, #0]
 8004568:	e097      	b.n	800469a <USB_EP0StartXfer+0x2a2>
 800456a:	693b      	ldr	r3, [r7, #16]
 800456c:	015a      	lsls	r2, r3, #5
 800456e:	697b      	ldr	r3, [r7, #20]
 8004570:	4413      	add	r3, r2
 8004572:	f503 6310 	add.w	r3, r3, #2304	; 0x900
 8004576:	681b      	ldr	r3, [r3, #0]
 8004578:	693a      	ldr	r2, [r7, #16]
 800457a:	0151      	lsls	r1, r2, #5
 800457c:	697a      	ldr	r2, [r7, #20]
 800457e:	440a      	add	r2, r1
 8004580:	f502 6210 	add.w	r2, r2, #2304	; 0x900
 8004584:	f043 4304 	orr.w	r3, r3, #2214592512	; 0x84000000
 8004588:	6013      	str	r3, [r2, #0]
 800458a:	68bb      	ldr	r3, [r7, #8]
 800458c:	699b      	ldr	r3, [r3, #24]
 800458e:	2b00      	cmp	r3, #0
 8004590:	f000 8083 	beq.w	800469a <USB_EP0StartXfer+0x2a2>
 8004594:	697b      	ldr	r3, [r7, #20]
 8004596:	f503 6300 	add.w	r3, r3, #2048	; 0x800
 800459a:	6b5a      	ldr	r2, [r3, #52]	; 0x34
 800459c:	68bb      	ldr	r3, [r7, #8]
 800459e:	781b      	ldrb	r3, [r3, #0]
 80045a0:	f003 030f 	and.w	r3, r3, #15
 80045a4:	2101      	movs	r1, #1
 80045a6:	fa01 f303 	lsl.w	r3, r1, r3
 80045aa:	6979      	ldr	r1, [r7, #20]
 80045ac:	f501 6100 	add.w	r1, r1, #2048	; 0x800
 80045b0:	4313      	orrs	r3, r2
 80045b2:	634b      	str	r3, [r1, #52]	; 0x34
 80045b4:	e071      	b.n	800469a <USB_EP0StartXfer+0x2a2>
 80045b6:	693b      	ldr	r3, [r7, #16]
 80045b8:	015a      	lsls	r2, r3, #5
 80045ba:	697b      	ldr	r3, [r7, #20]
 80045bc:	4413      	add	r3, r2
 80045be:	f503 6330 	add.w	r3, r3, #2816	; 0xb00
 80045c2:	691b      	ldr	r3, [r3, #16]
 80045c4:	693a      	ldr	r2, [r7, #16]
 80045c6:	0151      	lsls	r1, r2, #5
 80045c8:	697a      	ldr	r2, [r7, #20]
 80045ca:	440a      	add	r2, r1
 80045cc:	f502 6230 	add.w	r2, r2, #2816	; 0xb00
 80045d0:	0cdb      	lsrs	r3, r3, #19
 80045d2:	04db      	lsls	r3, r3, #19
 80045d4:	6113      	str	r3, [r2, #16]
 80045d6:	693b      	ldr	r3, [r7, #16]
 80045d8:	015a      	lsls	r2, r3, #5
 80045da:	697b      	ldr	r3, [r7, #20]
 80045dc:	4413      	add	r3, r2
 80045de:	f503 6330 	add.w	r3, r3, #2816	; 0xb00
 80045e2:	691b      	ldr	r3, [r3, #16]
 80045e4:	693a      	ldr	r2, [r7, #16]
 80045e6:	0151      	lsls	r1, r2, #5
 80045e8:	697a      	ldr	r2, [r7, #20]
 80045ea:	440a      	add	r2, r1
 80045ec:	f502 6230 	add.w	r2, r2, #2816	; 0xb00
 80045f0:	f023 53ff 	bic.w	r3, r3, #534773760	; 0x1fe00000
 80045f4:	f423 13c0 	bic.w	r3, r3, #1572864	; 0x180000
 80045f8:	6113      	str	r3, [r2, #16]
 80045fa:	68bb      	ldr	r3, [r7, #8]
 80045fc:	699b      	ldr	r3, [r3, #24]
 80045fe:	2b00      	cmp	r3, #0
 8004600:	d003      	beq.n	800460a <USB_EP0StartXfer+0x212>
 8004602:	68bb      	ldr	r3, [r7, #8]
 8004604:	68da      	ldr	r2, [r3, #12]
 8004606:	68bb      	ldr	r3, [r7, #8]
 8004608:	619a      	str	r2, [r3, #24]
 800460a:	68bb      	ldr	r3, [r7, #8]
 800460c:	68da      	ldr	r2, [r3, #12]
 800460e:	68bb      	ldr	r3, [r7, #8]
 8004610:	61da      	str	r2, [r3, #28]
 8004612:	693b      	ldr	r3, [r7, #16]
 8004614:	015a      	lsls	r2, r3, #5
 8004616:	697b      	ldr	r3, [r7, #20]
 8004618:	4413      	add	r3, r2
 800461a:	f503 6330 	add.w	r3, r3, #2816	; 0xb00
 800461e:	691b      	ldr	r3, [r3, #16]
 8004620:	693a      	ldr	r2, [r7, #16]
 8004622:	0151      	lsls	r1, r2, #5
 8004624:	697a      	ldr	r2, [r7, #20]
 8004626:	440a      	add	r2, r1
 8004628:	f502 6230 	add.w	r2, r2, #2816	; 0xb00
 800462c:	f443 2300 	orr.w	r3, r3, #524288	; 0x80000
 8004630:	6113      	str	r3, [r2, #16]
 8004632:	693b      	ldr	r3, [r7, #16]
 8004634:	015a      	lsls	r2, r3, #5
 8004636:	697b      	ldr	r3, [r7, #20]
 8004638:	4413      	add	r3, r2
 800463a:	f503 6330 	add.w	r3, r3, #2816	; 0xb00
 800463e:	691a      	ldr	r2, [r3, #16]
 8004640:	68bb      	ldr	r3, [r7, #8]
 8004642:	69db      	ldr	r3, [r3, #28]
 8004644:	f3c3 0312 	ubfx	r3, r3, #0, #19
 8004648:	6939      	ldr	r1, [r7, #16]
 800464a:	0148      	lsls	r0, r1, #5
 800464c:	6979      	ldr	r1, [r7, #20]
 800464e:	4401      	add	r1, r0
 8004650:	f501 6130 	add.w	r1, r1, #2816	; 0xb00
 8004654:	4313      	orrs	r3, r2
 8004656:	610b      	str	r3, [r1, #16]
 8004658:	79fb      	ldrb	r3, [r7, #7]
 800465a:	2b01      	cmp	r3, #1
 800465c:	d10d      	bne.n	800467a <USB_EP0StartXfer+0x282>
 800465e:	68bb      	ldr	r3, [r7, #8]
 8004660:	691b      	ldr	r3, [r3, #16]
 8004662:	2b00      	cmp	r3, #0
 8004664:	d009      	beq.n	800467a <USB_EP0StartXfer+0x282>
 8004666:	68bb      	ldr	r3, [r7, #8]
 8004668:	6919      	ldr	r1, [r3, #16]
 800466a:	693b      	ldr	r3, [r7, #16]
 800466c:	015a      	lsls	r2, r3, #5
 800466e:	697b      	ldr	r3, [r7, #20]
 8004670:	4413      	add	r3, r2
 8004672:	f503 6330 	add.w	r3, r3, #2816	; 0xb00
 8004676:	460a      	mov	r2, r1
 8004678:	615a      	str	r2, [r3, #20]
 800467a:	693b      	ldr	r3, [r7, #16]
 800467c:	015a      	lsls	r2, r3, #5
 800467e:	697b      	ldr	r3, [r7, #20]
 8004680:	4413      	add	r3, r2
 8004682:	f503 6330 	add.w	r3, r3, #2816	; 0xb00
 8004686:	681b      	ldr	r3, [r3, #0]
 8004688:	693a      	ldr	r2, [r7, #16]
 800468a:	0151      	lsls	r1, r2, #5
 800468c:	697a      	ldr	r2, [r7, #20]
 800468e:	440a      	add	r2, r1
 8004690:	f502 6230 	add.w	r2, r2, #2816	; 0xb00
 8004694:	f043 4304 	orr.w	r3, r3, #2214592512	; 0x84000000
 8004698:	6013      	str	r3, [r2, #0]
 800469a:	2300      	movs	r3, #0
 800469c:	4618      	mov	r0, r3
 800469e:	371c      	adds	r7, #28
 80046a0:	46bd      	mov	sp, r7
 80046a2:	f85d 7b04 	ldr.w	r7, [sp], #4
 80046a6:	4770      	bx	lr

080046a8 <USB_EPStopXfer>:
 80046a8:	b480      	push	{r7}
 80046aa:	b087      	sub	sp, #28
 80046ac:	af00      	add	r7, sp, #0
 80046ae:	6078      	str	r0, [r7, #4]
 80046b0:	6039      	str	r1, [r7, #0]
 80046b2:	2300      	movs	r3, #0
 80046b4:	60fb      	str	r3, [r7, #12]
 80046b6:	2300      	movs	r3, #0
 80046b8:	75fb      	strb	r3, [r7, #23]
 80046ba:	687b      	ldr	r3, [r7, #4]
 80046bc:	613b      	str	r3, [r7, #16]
 80046be:	683b      	ldr	r3, [r7, #0]
 80046c0:	785b      	ldrb	r3, [r3, #1]
 80046c2:	2b01      	cmp	r3, #1
 80046c4:	d14a      	bne.n	800475c <USB_EPStopXfer+0xb4>
 80046c6:	683b      	ldr	r3, [r7, #0]
 80046c8:	781b      	ldrb	r3, [r3, #0]
 80046ca:	015a      	lsls	r2, r3, #5
 80046cc:	693b      	ldr	r3, [r7, #16]
 80046ce:	4413      	add	r3, r2
 80046d0:	f503 6310 	add.w	r3, r3, #2304	; 0x900
 80046d4:	681b      	ldr	r3, [r3, #0]
 80046d6:	f003 4300 	and.w	r3, r3, #2147483648	; 0x80000000
 80046da:	f1b3 4f00 	cmp.w	r3, #2147483648	; 0x80000000
 80046de:	f040 8086 	bne.w	80047ee <USB_EPStopXfer+0x146>
 80046e2:	683b      	ldr	r3, [r7, #0]
 80046e4:	781b      	ldrb	r3, [r3, #0]
 80046e6:	015a      	lsls	r2, r3, #5
 80046e8:	693b      	ldr	r3, [r7, #16]
 80046ea:	4413      	add	r3, r2
 80046ec:	f503 6310 	add.w	r3, r3, #2304	; 0x900
 80046f0:	681b      	ldr	r3, [r3, #0]
 80046f2:	683a      	ldr	r2, [r7, #0]
 80046f4:	7812      	ldrb	r2, [r2, #0]
 80046f6:	0151      	lsls	r1, r2, #5
 80046f8:	693a      	ldr	r2, [r7, #16]
 80046fa:	440a      	add	r2, r1
 80046fc:	f502 6210 	add.w	r2, r2, #2304	; 0x900
 8004700:	f043 6300 	orr.w	r3, r3, #134217728	; 0x8000000
 8004704:	6013      	str	r3, [r2, #0]
 8004706:	683b      	ldr	r3, [r7, #0]
 8004708:	781b      	ldrb	r3, [r3, #0]
 800470a:	015a      	lsls	r2, r3, #5
 800470c:	693b      	ldr	r3, [r7, #16]
 800470e:	4413      	add	r3, r2
 8004710:	f503 6310 	add.w	r3, r3, #2304	; 0x900
 8004714:	681b      	ldr	r3, [r3, #0]
 8004716:	683a      	ldr	r2, [r7, #0]
 8004718:	7812      	ldrb	r2, [r2, #0]
 800471a:	0151      	lsls	r1, r2, #5
 800471c:	693a      	ldr	r2, [r7, #16]
 800471e:	440a      	add	r2, r1
 8004720:	f502 6210 	add.w	r2, r2, #2304	; 0x900
 8004724:	f043 4380 	orr.w	r3, r3, #1073741824	; 0x40000000
 8004728:	6013      	str	r3, [r2, #0]
 800472a:	68fb      	ldr	r3, [r7, #12]
 800472c:	3301      	adds	r3, #1
 800472e:	60fb      	str	r3, [r7, #12]
 8004730:	68fb      	ldr	r3, [r7, #12]
 8004732:	f242 7210 	movw	r2, #10000	; 0x2710
 8004736:	4293      	cmp	r3, r2
 8004738:	d902      	bls.n	8004740 <USB_EPStopXfer+0x98>
 800473a:	2301      	movs	r3, #1
 800473c:	75fb      	strb	r3, [r7, #23]
 800473e:	e056      	b.n	80047ee <USB_EPStopXfer+0x146>
 8004740:	683b      	ldr	r3, [r7, #0]
 8004742:	781b      	ldrb	r3, [r3, #0]
 8004744:	015a      	lsls	r2, r3, #5
 8004746:	693b      	ldr	r3, [r7, #16]
 8004748:	4413      	add	r3, r2
 800474a:	f503 6310 	add.w	r3, r3, #2304	; 0x900
 800474e:	681b      	ldr	r3, [r3, #0]
 8004750:	f003 4300 	and.w	r3, r3, #2147483648	; 0x80000000
 8004754:	f1b3 4f00 	cmp.w	r3, #2147483648	; 0x80000000
 8004758:	d0e7      	beq.n	800472a <USB_EPStopXfer+0x82>
 800475a:	e048      	b.n	80047ee <USB_EPStopXfer+0x146>
 800475c:	683b      	ldr	r3, [r7, #0]
 800475e:	781b      	ldrb	r3, [r3, #0]
 8004760:	015a      	lsls	r2, r3, #5
 8004762:	693b      	ldr	r3, [r7, #16]
 8004764:	4413      	add	r3, r2
 8004766:	f503 6330 	add.w	r3, r3, #2816	; 0xb00
 800476a:	681b      	ldr	r3, [r3, #0]
 800476c:	f003 4300 	and.w	r3, r3, #2147483648	; 0x80000000
 8004770:	f1b3 4f00 	cmp.w	r3, #2147483648	; 0x80000000
 8004774:	d13b      	bne.n	80047ee <USB_EPStopXfer+0x146>
 8004776:	683b      	ldr	r3, [r7, #0]
 8004778:	781b      	ldrb	r3, [r3, #0]
 800477a:	015a      	lsls	r2, r3, #5
 800477c:	693b      	ldr	r3, [r7, #16]
 800477e:	4413      	add	r3, r2
 8004780:	f503 6330 	add.w	r3, r3, #2816	; 0xb00
 8004784:	681b      	ldr	r3, [r3, #0]
 8004786:	683a      	ldr	r2, [r7, #0]
 8004788:	7812      	ldrb	r2, [r2, #0]
 800478a:	0151      	lsls	r1, r2, #5
 800478c:	693a      	ldr	r2, [r7, #16]
 800478e:	440a      	add	r2, r1
 8004790:	f502 6230 	add.w	r2, r2, #2816	; 0xb00
 8004794:	f043 6300 	orr.w	r3, r3, #134217728	; 0x8000000
 8004798:	6013      	str	r3, [r2, #0]
 800479a:	683b      	ldr	r3, [r7, #0]
 800479c:	781b      	ldrb	r3, [r3, #0]
 800479e:	015a      	lsls	r2, r3, #5
 80047a0:	693b      	ldr	r3, [r7, #16]
 80047a2:	4413      	add	r3, r2
 80047a4:	f503 6330 	add.w	r3, r3, #2816	; 0xb00
 80047a8:	681b      	ldr	r3, [r3, #0]
 80047aa:	683a      	ldr	r2, [r7, #0]
 80047ac:	7812      	ldrb	r2, [r2, #0]
 80047ae:	0151      	lsls	r1, r2, #5
 80047b0:	693a      	ldr	r2, [r7, #16]
 80047b2:	440a      	add	r2, r1
 80047b4:	f502 6230 	add.w	r2, r2, #2816	; 0xb00
 80047b8:	f043 4380 	orr.w	r3, r3, #1073741824	; 0x40000000
 80047bc:	6013      	str	r3, [r2, #0]
 80047be:	68fb      	ldr	r3, [r7, #12]
 80047c0:	3301      	adds	r3, #1
 80047c2:	60fb      	str	r3, [r7, #12]
 80047c4:	68fb      	ldr	r3, [r7, #12]
 80047c6:	f242 7210 	movw	r2, #10000	; 0x2710
 80047ca:	4293      	cmp	r3, r2
 80047cc:	d902      	bls.n	80047d4 <USB_EPStopXfer+0x12c>
 80047ce:	2301      	movs	r3, #1
 80047d0:	75fb      	strb	r3, [r7, #23]
 80047d2:	e00c      	b.n	80047ee <USB_EPStopXfer+0x146>
 80047d4:	683b      	ldr	r3, [r7, #0]
 80047d6:	781b      	ldrb	r3, [r3, #0]
 80047d8:	015a      	lsls	r2, r3, #5
 80047da:	693b      	ldr	r3, [r7, #16]
 80047dc:	4413      	add	r3, r2
 80047de:	f503 6330 	add.w	r3, r3, #2816	; 0xb00
 80047e2:	681b      	ldr	r3, [r3, #0]
 80047e4:	f003 4300 	and.w	r3, r3, #2147483648	; 0x80000000
 80047e8:	f1b3 4f00 	cmp.w	r3, #2147483648	; 0x80000000
 80047ec:	d0e7      	beq.n	80047be <USB_EPStopXfer+0x116>
 80047ee:	7dfb      	ldrb	r3, [r7, #23]
 80047f0:	4618      	mov	r0, r3
 80047f2:	371c      	adds	r7, #28
 80047f4:	46bd      	mov	sp, r7
 80047f6:	f85d 7b04 	ldr.w	r7, [sp], #4
 80047fa:	4770      	bx	lr

080047fc <USB_WritePacket>:
 80047fc:	b480      	push	{r7}
 80047fe:	b089      	sub	sp, #36	; 0x24
 8004800:	af00      	add	r7, sp, #0
 8004802:	60f8      	str	r0, [r7, #12]
 8004804:	60b9      	str	r1, [r7, #8]
 8004806:	4611      	mov	r1, r2
 8004808:	461a      	mov	r2, r3
 800480a:	460b      	mov	r3, r1
 800480c:	71fb      	strb	r3, [r7, #7]
 800480e:	4613      	mov	r3, r2
 8004810:	80bb      	strh	r3, [r7, #4]
 8004812:	68fb      	ldr	r3, [r7, #12]
 8004814:	617b      	str	r3, [r7, #20]
 8004816:	68bb      	ldr	r3, [r7, #8]
 8004818:	61fb      	str	r3, [r7, #28]
 800481a:	f897 3028 	ldrb.w	r3, [r7, #40]	; 0x28
 800481e:	2b00      	cmp	r3, #0
 8004820:	d123      	bne.n	800486a <USB_WritePacket+0x6e>
 8004822:	88bb      	ldrh	r3, [r7, #4]
 8004824:	3303      	adds	r3, #3
 8004826:	089b      	lsrs	r3, r3, #2
 8004828:	613b      	str	r3, [r7, #16]
 800482a:	2300      	movs	r3, #0
 800482c:	61bb      	str	r3, [r7, #24]
 800482e:	e018      	b.n	8004862 <USB_WritePacket+0x66>
 8004830:	79fb      	ldrb	r3, [r7, #7]
 8004832:	031a      	lsls	r2, r3, #12
 8004834:	697b      	ldr	r3, [r7, #20]
 8004836:	4413      	add	r3, r2
 8004838:	f503 5380 	add.w	r3, r3, #4096	; 0x1000
 800483c:	461a      	mov	r2, r3
 800483e:	69fb      	ldr	r3, [r7, #28]
 8004840:	681b      	ldr	r3, [r3, #0]
 8004842:	6013      	str	r3, [r2, #0]
 8004844:	69fb      	ldr	r3, [r7, #28]
 8004846:	3301      	adds	r3, #1
 8004848:	61fb      	str	r3, [r7, #28]
 800484a:	69fb      	ldr	r3, [r7, #28]
 800484c:	3301      	adds	r3, #1
 800484e:	61fb      	str	r3, [r7, #28]
 8004850:	69fb      	ldr	r3, [r7, #28]
 8004852:	3301      	adds	r3, #1
 8004854:	61fb      	str	r3, [r7, #28]
 8004856:	69fb      	ldr	r3, [r7, #28]
 8004858:	3301      	adds	r3, #1
 800485a:	61fb      	str	r3, [r7, #28]
 800485c:	69bb      	ldr	r3, [r7, #24]
 800485e:	3301      	adds	r3, #1
 8004860:	61bb      	str	r3, [r7, #24]
 8004862:	69ba      	ldr	r2, [r7, #24]
 8004864:	693b      	ldr	r3, [r7, #16]
 8004866:	429a      	cmp	r2, r3
 8004868:	d3e2      	bcc.n	8004830 <USB_WritePacket+0x34>
 800486a:	2300      	movs	r3, #0
 800486c:	4618      	mov	r0, r3
 800486e:	3724      	adds	r7, #36	; 0x24
 8004870:	46bd      	mov	sp, r7
 8004872:	f85d 7b04 	ldr.w	r7, [sp], #4
 8004876:	4770      	bx	lr

08004878 <USB_ReadPacket>:
 8004878:	b480      	push	{r7}
 800487a:	b08b      	sub	sp, #44	; 0x2c
 800487c:	af00      	add	r7, sp, #0
 800487e:	60f8      	str	r0, [r7, #12]
 8004880:	60b9      	str	r1, [r7, #8]
 8004882:	4613      	mov	r3, r2
 8004884:	80fb      	strh	r3, [r7, #6]
 8004886:	68fb      	ldr	r3, [r7, #12]
 8004888:	61bb      	str	r3, [r7, #24]
 800488a:	68bb      	ldr	r3, [r7, #8]
 800488c:	627b      	str	r3, [r7, #36]	; 0x24
 800488e:	88fb      	ldrh	r3, [r7, #6]
 8004890:	089b      	lsrs	r3, r3, #2
 8004892:	b29b      	uxth	r3, r3
 8004894:	617b      	str	r3, [r7, #20]
 8004896:	88fb      	ldrh	r3, [r7, #6]
 8004898:	f003 0303 	and.w	r3, r3, #3
 800489c:	83fb      	strh	r3, [r7, #30]
 800489e:	2300      	movs	r3, #0
 80048a0:	623b      	str	r3, [r7, #32]
 80048a2:	e014      	b.n	80048ce <USB_ReadPacket+0x56>
 80048a4:	69bb      	ldr	r3, [r7, #24]
 80048a6:	f503 5380 	add.w	r3, r3, #4096	; 0x1000
 80048aa:	681a      	ldr	r2, [r3, #0]
 80048ac:	6a7b      	ldr	r3, [r7, #36]	; 0x24
 80048ae:	601a      	str	r2, [r3, #0]
 80048b0:	6a7b      	ldr	r3, [r7, #36]	; 0x24
 80048b2:	3301      	adds	r3, #1
 80048b4:	627b      	str	r3, [r7, #36]	; 0x24
 80048b6:	6a7b      	ldr	r3, [r7, #36]	; 0x24
 80048b8:	3301      	adds	r3, #1
 80048ba:	627b      	str	r3, [r7, #36]	; 0x24
 80048bc:	6a7b      	ldr	r3, [r7, #36]	; 0x24
 80048be:	3301      	adds	r3, #1
 80048c0:	627b      	str	r3, [r7, #36]	; 0x24
 80048c2:	6a7b      	ldr	r3, [r7, #36]	; 0x24
 80048c4:	3301      	adds	r3, #1
 80048c6:	627b      	str	r3, [r7, #36]	; 0x24
 80048c8:	6a3b      	ldr	r3, [r7, #32]
 80048ca:	3301      	adds	r3, #1
 80048cc:	623b      	str	r3, [r7, #32]
 80048ce:	6a3a      	ldr	r2, [r7, #32]
 80048d0:	697b      	ldr	r3, [r7, #20]
 80048d2:	429a      	cmp	r2, r3
 80048d4:	d3e6      	bcc.n	80048a4 <USB_ReadPacket+0x2c>
 80048d6:	8bfb      	ldrh	r3, [r7, #30]
 80048d8:	2b00      	cmp	r3, #0
 80048da:	d01e      	beq.n	800491a <USB_ReadPacket+0xa2>
 80048dc:	2300      	movs	r3, #0
 80048de:	623b      	str	r3, [r7, #32]
 80048e0:	69bb      	ldr	r3, [r7, #24]
 80048e2:	f503 5380 	add.w	r3, r3, #4096	; 0x1000
 80048e6:	461a      	mov	r2, r3
 80048e8:	f107 0310 	add.w	r3, r7, #16
 80048ec:	6812      	ldr	r2, [r2, #0]
 80048ee:	601a      	str	r2, [r3, #0]
 80048f0:	693a      	ldr	r2, [r7, #16]
 80048f2:	6a3b      	ldr	r3, [r7, #32]
 80048f4:	b2db      	uxtb	r3, r3
 80048f6:	00db      	lsls	r3, r3, #3
 80048f8:	fa22 f303 	lsr.w	r3, r2, r3
 80048fc:	b2da      	uxtb	r2, r3
 80048fe:	6a7b      	ldr	r3, [r7, #36]	; 0x24
 8004900:	701a      	strb	r2, [r3, #0]
 8004902:	6a3b      	ldr	r3, [r7, #32]
 8004904:	3301      	adds	r3, #1
 8004906:	623b      	str	r3, [r7, #32]
 8004908:	6a7b      	ldr	r3, [r7, #36]	; 0x24
 800490a:	3301      	adds	r3, #1
 800490c:	627b      	str	r3, [r7, #36]	; 0x24
 800490e:	8bfb      	ldrh	r3, [r7, #30]
 8004910:	3b01      	subs	r3, #1
 8004912:	83fb      	strh	r3, [r7, #30]
 8004914:	8bfb      	ldrh	r3, [r7, #30]
 8004916:	2b00      	cmp	r3, #0
 8004918:	d1ea      	bne.n	80048f0 <USB_ReadPacket+0x78>
 800491a:	6a7b      	ldr	r3, [r7, #36]	; 0x24
 800491c:	4618      	mov	r0, r3
 800491e:	372c      	adds	r7, #44	; 0x2c
 8004920:	46bd      	mov	sp, r7
 8004922:	f85d 7b04 	ldr.w	r7, [sp], #4
 8004926:	4770      	bx	lr

08004928 <USB_EPSetStall>:
 8004928:	b480      	push	{r7}
 800492a:	b085      	sub	sp, #20
 800492c:	af00      	add	r7, sp, #0
 800492e:	6078      	str	r0, [r7, #4]
 8004930:	6039      	str	r1, [r7, #0]
 8004932:	687b      	ldr	r3, [r7, #4]
 8004934:	60fb      	str	r3, [r7, #12]
 8004936:	683b      	ldr	r3, [r7, #0]
 8004938:	781b      	ldrb	r3, [r3, #0]
 800493a:	60bb      	str	r3, [r7, #8]
 800493c:	683b      	ldr	r3, [r7, #0]
 800493e:	785b      	ldrb	r3, [r3, #1]
 8004940:	2b01      	cmp	r3, #1
 8004942:	d12c      	bne.n	800499e <USB_EPSetStall+0x76>
 8004944:	68bb      	ldr	r3, [r7, #8]
 8004946:	015a      	lsls	r2, r3, #5
 8004948:	68fb      	ldr	r3, [r7, #12]
 800494a:	4413      	add	r3, r2
 800494c:	f503 6310 	add.w	r3, r3, #2304	; 0x900
 8004950:	681b      	ldr	r3, [r3, #0]
 8004952:	2b00      	cmp	r3, #0
 8004954:	db12      	blt.n	800497c <USB_EPSetStall+0x54>
 8004956:	68bb      	ldr	r3, [r7, #8]
 8004958:	2b00      	cmp	r3, #0
 800495a:	d00f      	beq.n	800497c <USB_EPSetStall+0x54>
 800495c:	68bb      	ldr	r3, [r7, #8]
 800495e:	015a      	lsls	r2, r3, #5
 8004960:	68fb      	ldr	r3, [r7, #12]
 8004962:	4413      	add	r3, r2
 8004964:	f503 6310 	add.w	r3, r3, #2304	; 0x900
 8004968:	681b      	ldr	r3, [r3, #0]
 800496a:	68ba      	ldr	r2, [r7, #8]
 800496c:	0151      	lsls	r1, r2, #5
 800496e:	68fa      	ldr	r2, [r7, #12]
 8004970:	440a      	add	r2, r1
 8004972:	f502 6210 	add.w	r2, r2, #2304	; 0x900
 8004976:	f023 4380 	bic.w	r3, r3, #1073741824	; 0x40000000
 800497a:	6013      	str	r3, [r2, #0]
 800497c:	68bb      	ldr	r3, [r7, #8]
 800497e:	015a      	lsls	r2, r3, #5
 8004980:	68fb      	ldr	r3, [r7, #12]
 8004982:	4413      	add	r3, r2
 8004984:	f503 6310 	add.w	r3, r3, #2304	; 0x900
 8004988:	681b      	ldr	r3, [r3, #0]
 800498a:	68ba      	ldr	r2, [r7, #8]
 800498c:	0151      	lsls	r1, r2, #5
 800498e:	68fa      	ldr	r2, [r7, #12]
 8004990:	440a      	add	r2, r1
 8004992:	f502 6210 	add.w	r2, r2, #2304	; 0x900
 8004996:	f443 1300 	orr.w	r3, r3, #2097152	; 0x200000
 800499a:	6013      	str	r3, [r2, #0]
 800499c:	e02b      	b.n	80049f6 <USB_EPSetStall+0xce>
 800499e:	68bb      	ldr	r3, [r7, #8]
 80049a0:	015a      	lsls	r2, r3, #5
 80049a2:	68fb      	ldr	r3, [r7, #12]
 80049a4:	4413      	add	r3, r2
 80049a6:	f503 6330 	add.w	r3, r3, #2816	; 0xb00
 80049aa:	681b      	ldr	r3, [r3, #0]
 80049ac:	2b00      	cmp	r3, #0
 80049ae:	db12      	blt.n	80049d6 <USB_EPSetStall+0xae>
 80049b0:	68bb      	ldr	r3, [r7, #8]
 80049b2:	2b00      	cmp	r3, #0
 80049b4:	d00f      	beq.n	80049d6 <USB_EPSetStall+0xae>
 80049b6:	68bb      	ldr	r3, [r7, #8]
 80049b8:	015a      	lsls	r2, r3, #5
 80049ba:	68fb      	ldr	r3, [r7, #12]
 80049bc:	4413      	add	r3, r2
 80049be:	f503 6330 	add.w	r3, r3, #2816	; 0xb00
 80049c2:	681b      	ldr	r3, [r3, #0]
 80049c4:	68ba      	ldr	r2, [r7, #8]
 80049c6:	0151      	lsls	r1, r2, #5
 80049c8:	68fa      	ldr	r2, [r7, #12]
 80049ca:	440a      	add	r2, r1
 80049cc:	f502 6230 	add.w	r2, r2, #2816	; 0xb00
 80049d0:	f023 4380 	bic.w	r3, r3, #1073741824	; 0x40000000
 80049d4:	6013      	str	r3, [r2, #0]
 80049d6:	68bb      	ldr	r3, [r7, #8]
 80049d8:	015a      	lsls	r2, r3, #5
 80049da:	68fb      	ldr	r3, [r7, #12]
 80049dc:	4413      	add	r3, r2
 80049de:	f503 6330 	add.w	r3, r3, #2816	; 0xb00
 80049e2:	681b      	ldr	r3, [r3, #0]
 80049e4:	68ba      	ldr	r2, [r7, #8]
 80049e6:	0151      	lsls	r1, r2, #5
 80049e8:	68fa      	ldr	r2, [r7, #12]
 80049ea:	440a      	add	r2, r1
 80049ec:	f502 6230 	add.w	r2, r2, #2816	; 0xb00
 80049f0:	f443 1300 	orr.w	r3, r3, #2097152	; 0x200000
 80049f4:	6013      	str	r3, [r2, #0]
 80049f6:	2300      	movs	r3, #0
 80049f8:	4618      	mov	r0, r3
 80049fa:	3714      	adds	r7, #20
 80049fc:	46bd      	mov	sp, r7
 80049fe:	f85d 7b04 	ldr.w	r7, [sp], #4
 8004a02:	4770      	bx	lr

08004a04 <USB_EPClearStall>:
 8004a04:	b480      	push	{r7}
 8004a06:	b085      	sub	sp, #20
 8004a08:	af00      	add	r7, sp, #0
 8004a0a:	6078      	str	r0, [r7, #4]
 8004a0c:	6039      	str	r1, [r7, #0]
 8004a0e:	687b      	ldr	r3, [r7, #4]
 8004a10:	60fb      	str	r3, [r7, #12]
 8004a12:	683b      	ldr	r3, [r7, #0]
 8004a14:	781b      	ldrb	r3, [r3, #0]
 8004a16:	60bb      	str	r3, [r7, #8]
 8004a18:	683b      	ldr	r3, [r7, #0]
 8004a1a:	785b      	ldrb	r3, [r3, #1]
 8004a1c:	2b01      	cmp	r3, #1
 8004a1e:	d128      	bne.n	8004a72 <USB_EPClearStall+0x6e>
 8004a20:	68bb      	ldr	r3, [r7, #8]
 8004a22:	015a      	lsls	r2, r3, #5
 8004a24:	68fb      	ldr	r3, [r7, #12]
 8004a26:	4413      	add	r3, r2
 8004a28:	f503 6310 	add.w	r3, r3, #2304	; 0x900
 8004a2c:	681b      	ldr	r3, [r3, #0]
 8004a2e:	68ba      	ldr	r2, [r7, #8]
 8004a30:	0151      	lsls	r1, r2, #5
 8004a32:	68fa      	ldr	r2, [r7, #12]
 8004a34:	440a      	add	r2, r1
 8004a36:	f502 6210 	add.w	r2, r2, #2304	; 0x900
 8004a3a:	f423 1300 	bic.w	r3, r3, #2097152	; 0x200000
 8004a3e:	6013      	str	r3, [r2, #0]
 8004a40:	683b      	ldr	r3, [r7, #0]
 8004a42:	791b      	ldrb	r3, [r3, #4]
 8004a44:	2b03      	cmp	r3, #3
 8004a46:	d003      	beq.n	8004a50 <USB_EPClearStall+0x4c>
 8004a48:	683b      	ldr	r3, [r7, #0]
 8004a4a:	791b      	ldrb	r3, [r3, #4]
 8004a4c:	2b02      	cmp	r3, #2
 8004a4e:	d138      	bne.n	8004ac2 <USB_EPClearStall+0xbe>
 8004a50:	68bb      	ldr	r3, [r7, #8]
 8004a52:	015a      	lsls	r2, r3, #5
 8004a54:	68fb      	ldr	r3, [r7, #12]
 8004a56:	4413      	add	r3, r2
 8004a58:	f503 6310 	add.w	r3, r3, #2304	; 0x900
 8004a5c:	681b      	ldr	r3, [r3, #0]
 8004a5e:	68ba      	ldr	r2, [r7, #8]
 8004a60:	0151      	lsls	r1, r2, #5
 8004a62:	68fa      	ldr	r2, [r7, #12]
 8004a64:	440a      	add	r2, r1
 8004a66:	f502 6210 	add.w	r2, r2, #2304	; 0x900
 8004a6a:	f043 5380 	orr.w	r3, r3, #268435456	; 0x10000000
 8004a6e:	6013      	str	r3, [r2, #0]
 8004a70:	e027      	b.n	8004ac2 <USB_EPClearStall+0xbe>
 8004a72:	68bb      	ldr	r3, [r7, #8]
 8004a74:	015a      	lsls	r2, r3, #5
 8004a76:	68fb      	ldr	r3, [r7, #12]
 8004a78:	4413      	add	r3, r2
 8004a7a:	f503 6330 	add.w	r3, r3, #2816	; 0xb00
 8004a7e:	681b      	ldr	r3, [r3, #0]
 8004a80:	68ba      	ldr	r2, [r7, #8]
 8004a82:	0151      	lsls	r1, r2, #5
 8004a84:	68fa      	ldr	r2, [r7, #12]
 8004a86:	440a      	add	r2, r1
 8004a88:	f502 6230 	add.w	r2, r2, #2816	; 0xb00
 8004a8c:	f423 1300 	bic.w	r3, r3, #2097152	; 0x200000
 8004a90:	6013      	str	r3, [r2, #0]
 8004a92:	683b      	ldr	r3, [r7, #0]
 8004a94:	791b      	ldrb	r3, [r3, #4]
 8004a96:	2b03      	cmp	r3, #3
 8004a98:	d003      	beq.n	8004aa2 <USB_EPClearStall+0x9e>
 8004a9a:	683b      	ldr	r3, [r7, #0]
 8004a9c:	791b      	ldrb	r3, [r3, #4]
 8004a9e:	2b02      	cmp	r3, #2
 8004aa0:	d10f      	bne.n	8004ac2 <USB_EPClearStall+0xbe>
 8004aa2:	68bb      	ldr	r3, [r7, #8]
 8004aa4:	015a      	lsls	r2, r3, #5
 8004aa6:	68fb      	ldr	r3, [r7, #12]
 8004aa8:	4413      	add	r3, r2
 8004aaa:	f503 6330 	add.w	r3, r3, #2816	; 0xb00
 8004aae:	681b      	ldr	r3, [r3, #0]
 8004ab0:	68ba      	ldr	r2, [r7, #8]
 8004ab2:	0151      	lsls	r1, r2, #5
 8004ab4:	68fa      	ldr	r2, [r7, #12]
 8004ab6:	440a      	add	r2, r1
 8004ab8:	f502 6230 	add.w	r2, r2, #2816	; 0xb00
 8004abc:	f043 5380 	orr.w	r3, r3, #268435456	; 0x10000000
 8004ac0:	6013      	str	r3, [r2, #0]
 8004ac2:	2300      	movs	r3, #0
 8004ac4:	4618      	mov	r0, r3
 8004ac6:	3714      	adds	r7, #20
 8004ac8:	46bd      	mov	sp, r7
 8004aca:	f85d 7b04 	ldr.w	r7, [sp], #4
 8004ace:	4770      	bx	lr

08004ad0 <USB_SetDevAddress>:
 8004ad0:	b480      	push	{r7}
 8004ad2:	b085      	sub	sp, #20
 8004ad4:	af00      	add	r7, sp, #0
 8004ad6:	6078      	str	r0, [r7, #4]
 8004ad8:	460b      	mov	r3, r1
 8004ada:	70fb      	strb	r3, [r7, #3]
 8004adc:	687b      	ldr	r3, [r7, #4]
 8004ade:	60fb      	str	r3, [r7, #12]
 8004ae0:	68fb      	ldr	r3, [r7, #12]
 8004ae2:	f503 6300 	add.w	r3, r3, #2048	; 0x800
 8004ae6:	681b      	ldr	r3, [r3, #0]
 8004ae8:	68fa      	ldr	r2, [r7, #12]
 8004aea:	f502 6200 	add.w	r2, r2, #2048	; 0x800
 8004aee:	f423 63fe 	bic.w	r3, r3, #2032	; 0x7f0
 8004af2:	6013      	str	r3, [r2, #0]
 8004af4:	68fb      	ldr	r3, [r7, #12]
 8004af6:	f503 6300 	add.w	r3, r3, #2048	; 0x800
 8004afa:	681a      	ldr	r2, [r3, #0]
 8004afc:	78fb      	ldrb	r3, [r7, #3]
 8004afe:	011b      	lsls	r3, r3, #4
 8004b00:	f403 63fe 	and.w	r3, r3, #2032	; 0x7f0
 8004b04:	68f9      	ldr	r1, [r7, #12]
 8004b06:	f501 6100 	add.w	r1, r1, #2048	; 0x800
 8004b0a:	4313      	orrs	r3, r2
 8004b0c:	600b      	str	r3, [r1, #0]
 8004b0e:	2300      	movs	r3, #0
 8004b10:	4618      	mov	r0, r3
 8004b12:	3714      	adds	r7, #20
 8004b14:	46bd      	mov	sp, r7
 8004b16:	f85d 7b04 	ldr.w	r7, [sp], #4
 8004b1a:	4770      	bx	lr

08004b1c <USB_DevConnect>:
 8004b1c:	b480      	push	{r7}
 8004b1e:	b085      	sub	sp, #20
 8004b20:	af00      	add	r7, sp, #0
 8004b22:	6078      	str	r0, [r7, #4]
 8004b24:	687b      	ldr	r3, [r7, #4]
 8004b26:	60fb      	str	r3, [r7, #12]
 8004b28:	68fb      	ldr	r3, [r7, #12]
 8004b2a:	f503 6360 	add.w	r3, r3, #3584	; 0xe00
 8004b2e:	681b      	ldr	r3, [r3, #0]
 8004b30:	68fa      	ldr	r2, [r7, #12]
 8004b32:	f502 6260 	add.w	r2, r2, #3584	; 0xe00
 8004b36:	f023 0303 	bic.w	r3, r3, #3
 8004b3a:	6013      	str	r3, [r2, #0]
 8004b3c:	68fb      	ldr	r3, [r7, #12]
 8004b3e:	f503 6300 	add.w	r3, r3, #2048	; 0x800
 8004b42:	685b      	ldr	r3, [r3, #4]
 8004b44:	68fa      	ldr	r2, [r7, #12]
 8004b46:	f502 6200 	add.w	r2, r2, #2048	; 0x800
 8004b4a:	f023 0302 	bic.w	r3, r3, #2
 8004b4e:	6053      	str	r3, [r2, #4]
 8004b50:	2300      	movs	r3, #0
 8004b52:	4618      	mov	r0, r3
 8004b54:	3714      	adds	r7, #20
 8004b56:	46bd      	mov	sp, r7
 8004b58:	f85d 7b04 	ldr.w	r7, [sp], #4
 8004b5c:	4770      	bx	lr

08004b5e <USB_DevDisconnect>:
 8004b5e:	b480      	push	{r7}
 8004b60:	b085      	sub	sp, #20
 8004b62:	af00      	add	r7, sp, #0
 8004b64:	6078      	str	r0, [r7, #4]
 8004b66:	687b      	ldr	r3, [r7, #4]
 8004b68:	60fb      	str	r3, [r7, #12]
 8004b6a:	68fb      	ldr	r3, [r7, #12]
 8004b6c:	f503 6360 	add.w	r3, r3, #3584	; 0xe00
 8004b70:	681b      	ldr	r3, [r3, #0]
 8004b72:	68fa      	ldr	r2, [r7, #12]
 8004b74:	f502 6260 	add.w	r2, r2, #3584	; 0xe00
 8004b78:	f023 0303 	bic.w	r3, r3, #3
 8004b7c:	6013      	str	r3, [r2, #0]
 8004b7e:	68fb      	ldr	r3, [r7, #12]
 8004b80:	f503 6300 	add.w	r3, r3, #2048	; 0x800
 8004b84:	685b      	ldr	r3, [r3, #4]
 8004b86:	68fa      	ldr	r2, [r7, #12]
 8004b88:	f502 6200 	add.w	r2, r2, #2048	; 0x800
 8004b8c:	f043 0302 	orr.w	r3, r3, #2
 8004b90:	6053      	str	r3, [r2, #4]
 8004b92:	2300      	movs	r3, #0
 8004b94:	4618      	mov	r0, r3
 8004b96:	3714      	adds	r7, #20
 8004b98:	46bd      	mov	sp, r7
 8004b9a:	f85d 7b04 	ldr.w	r7, [sp], #4
 8004b9e:	4770      	bx	lr

08004ba0 <USB_ReadInterrupts>:
 8004ba0:	b480      	push	{r7}
 8004ba2:	b085      	sub	sp, #20
 8004ba4:	af00      	add	r7, sp, #0
 8004ba6:	6078      	str	r0, [r7, #4]
 8004ba8:	687b      	ldr	r3, [r7, #4]
 8004baa:	695b      	ldr	r3, [r3, #20]
 8004bac:	60fb      	str	r3, [r7, #12]
 8004bae:	687b      	ldr	r3, [r7, #4]
 8004bb0:	699b      	ldr	r3, [r3, #24]
 8004bb2:	68fa      	ldr	r2, [r7, #12]
 8004bb4:	4013      	ands	r3, r2
 8004bb6:	60fb      	str	r3, [r7, #12]
 8004bb8:	68fb      	ldr	r3, [r7, #12]
 8004bba:	4618      	mov	r0, r3
 8004bbc:	3714      	adds	r7, #20
 8004bbe:	46bd      	mov	sp, r7
 8004bc0:	f85d 7b04 	ldr.w	r7, [sp], #4
 8004bc4:	4770      	bx	lr

08004bc6 <USB_ReadDevAllOutEpInterrupt>:
 8004bc6:	b480      	push	{r7}
 8004bc8:	b085      	sub	sp, #20
 8004bca:	af00      	add	r7, sp, #0
 8004bcc:	6078      	str	r0, [r7, #4]
 8004bce:	687b      	ldr	r3, [r7, #4]
 8004bd0:	60fb      	str	r3, [r7, #12]
 8004bd2:	68fb      	ldr	r3, [r7, #12]
 8004bd4:	f503 6300 	add.w	r3, r3, #2048	; 0x800
 8004bd8:	699b      	ldr	r3, [r3, #24]
 8004bda:	60bb      	str	r3, [r7, #8]
 8004bdc:	68fb      	ldr	r3, [r7, #12]
 8004bde:	f503 6300 	add.w	r3, r3, #2048	; 0x800
 8004be2:	69db      	ldr	r3, [r3, #28]
 8004be4:	68ba      	ldr	r2, [r7, #8]
 8004be6:	4013      	ands	r3, r2
 8004be8:	60bb      	str	r3, [r7, #8]
 8004bea:	68bb      	ldr	r3, [r7, #8]
 8004bec:	0c1b      	lsrs	r3, r3, #16
 8004bee:	4618      	mov	r0, r3
 8004bf0:	3714      	adds	r7, #20
 8004bf2:	46bd      	mov	sp, r7
 8004bf4:	f85d 7b04 	ldr.w	r7, [sp], #4
 8004bf8:	4770      	bx	lr

08004bfa <USB_ReadDevAllInEpInterrupt>:
 8004bfa:	b480      	push	{r7}
 8004bfc:	b085      	sub	sp, #20
 8004bfe:	af00      	add	r7, sp, #0
 8004c00:	6078      	str	r0, [r7, #4]
 8004c02:	687b      	ldr	r3, [r7, #4]
 8004c04:	60fb      	str	r3, [r7, #12]
 8004c06:	68fb      	ldr	r3, [r7, #12]
 8004c08:	f503 6300 	add.w	r3, r3, #2048	; 0x800
 8004c0c:	699b      	ldr	r3, [r3, #24]
 8004c0e:	60bb      	str	r3, [r7, #8]
 8004c10:	68fb      	ldr	r3, [r7, #12]
 8004c12:	f503 6300 	add.w	r3, r3, #2048	; 0x800
 8004c16:	69db      	ldr	r3, [r3, #28]
 8004c18:	68ba      	ldr	r2, [r7, #8]
 8004c1a:	4013      	ands	r3, r2
 8004c1c:	60bb      	str	r3, [r7, #8]
 8004c1e:	68bb      	ldr	r3, [r7, #8]
 8004c20:	b29b      	uxth	r3, r3
 8004c22:	4618      	mov	r0, r3
 8004c24:	3714      	adds	r7, #20
 8004c26:	46bd      	mov	sp, r7
 8004c28:	f85d 7b04 	ldr.w	r7, [sp], #4
 8004c2c:	4770      	bx	lr

08004c2e <USB_ReadDevOutEPInterrupt>:
 8004c2e:	b480      	push	{r7}
 8004c30:	b085      	sub	sp, #20
 8004c32:	af00      	add	r7, sp, #0
 8004c34:	6078      	str	r0, [r7, #4]
 8004c36:	460b      	mov	r3, r1
 8004c38:	70fb      	strb	r3, [r7, #3]
 8004c3a:	687b      	ldr	r3, [r7, #4]
 8004c3c:	60fb      	str	r3, [r7, #12]
 8004c3e:	78fb      	ldrb	r3, [r7, #3]
 8004c40:	015a      	lsls	r2, r3, #5
 8004c42:	68fb      	ldr	r3, [r7, #12]
 8004c44:	4413      	add	r3, r2
 8004c46:	f503 6330 	add.w	r3, r3, #2816	; 0xb00
 8004c4a:	689b      	ldr	r3, [r3, #8]
 8004c4c:	60bb      	str	r3, [r7, #8]
 8004c4e:	68fb      	ldr	r3, [r7, #12]
 8004c50:	f503 6300 	add.w	r3, r3, #2048	; 0x800
 8004c54:	695b      	ldr	r3, [r3, #20]
 8004c56:	68ba      	ldr	r2, [r7, #8]
 8004c58:	4013      	ands	r3, r2
 8004c5a:	60bb      	str	r3, [r7, #8]
 8004c5c:	68bb      	ldr	r3, [r7, #8]
 8004c5e:	4618      	mov	r0, r3
 8004c60:	3714      	adds	r7, #20
 8004c62:	46bd      	mov	sp, r7
 8004c64:	f85d 7b04 	ldr.w	r7, [sp], #4
 8004c68:	4770      	bx	lr

08004c6a <USB_ReadDevInEPInterrupt>:
 8004c6a:	b480      	push	{r7}
 8004c6c:	b087      	sub	sp, #28
 8004c6e:	af00      	add	r7, sp, #0
 8004c70:	6078      	str	r0, [r7, #4]
 8004c72:	460b      	mov	r3, r1
 8004c74:	70fb      	strb	r3, [r7, #3]
 8004c76:	687b      	ldr	r3, [r7, #4]
 8004c78:	617b      	str	r3, [r7, #20]
 8004c7a:	697b      	ldr	r3, [r7, #20]
 8004c7c:	f503 6300 	add.w	r3, r3, #2048	; 0x800
 8004c80:	691b      	ldr	r3, [r3, #16]
 8004c82:	613b      	str	r3, [r7, #16]
 8004c84:	697b      	ldr	r3, [r7, #20]
 8004c86:	f503 6300 	add.w	r3, r3, #2048	; 0x800
 8004c8a:	6b5b      	ldr	r3, [r3, #52]	; 0x34
 8004c8c:	60fb      	str	r3, [r7, #12]
 8004c8e:	78fb      	ldrb	r3, [r7, #3]
 8004c90:	f003 030f 	and.w	r3, r3, #15
 8004c94:	68fa      	ldr	r2, [r7, #12]
 8004c96:	fa22 f303 	lsr.w	r3, r2, r3
 8004c9a:	01db      	lsls	r3, r3, #7
 8004c9c:	b2db      	uxtb	r3, r3
 8004c9e:	693a      	ldr	r2, [r7, #16]
 8004ca0:	4313      	orrs	r3, r2
 8004ca2:	613b      	str	r3, [r7, #16]
 8004ca4:	78fb      	ldrb	r3, [r7, #3]
 8004ca6:	015a      	lsls	r2, r3, #5
 8004ca8:	697b      	ldr	r3, [r7, #20]
 8004caa:	4413      	add	r3, r2
 8004cac:	f503 6310 	add.w	r3, r3, #2304	; 0x900
 8004cb0:	689b      	ldr	r3, [r3, #8]
 8004cb2:	693a      	ldr	r2, [r7, #16]
 8004cb4:	4013      	ands	r3, r2
 8004cb6:	60bb      	str	r3, [r7, #8]
 8004cb8:	68bb      	ldr	r3, [r7, #8]
 8004cba:	4618      	mov	r0, r3
 8004cbc:	371c      	adds	r7, #28
 8004cbe:	46bd      	mov	sp, r7
 8004cc0:	f85d 7b04 	ldr.w	r7, [sp], #4
 8004cc4:	4770      	bx	lr

08004cc6 <USB_GetMode>:
 8004cc6:	b480      	push	{r7}
 8004cc8:	b083      	sub	sp, #12
 8004cca:	af00      	add	r7, sp, #0
 8004ccc:	6078      	str	r0, [r7, #4]
 8004cce:	687b      	ldr	r3, [r7, #4]
 8004cd0:	695b      	ldr	r3, [r3, #20]
 8004cd2:	f003 0301 	and.w	r3, r3, #1
 8004cd6:	4618      	mov	r0, r3
 8004cd8:	370c      	adds	r7, #12
 8004cda:	46bd      	mov	sp, r7
 8004cdc:	f85d 7b04 	ldr.w	r7, [sp], #4
 8004ce0:	4770      	bx	lr

08004ce2 <USB_ActivateSetup>:
 8004ce2:	b480      	push	{r7}
 8004ce4:	b085      	sub	sp, #20
 8004ce6:	af00      	add	r7, sp, #0
 8004ce8:	6078      	str	r0, [r7, #4]
 8004cea:	687b      	ldr	r3, [r7, #4]
 8004cec:	60fb      	str	r3, [r7, #12]
 8004cee:	68fb      	ldr	r3, [r7, #12]
 8004cf0:	f503 6310 	add.w	r3, r3, #2304	; 0x900
 8004cf4:	681b      	ldr	r3, [r3, #0]
 8004cf6:	68fa      	ldr	r2, [r7, #12]
 8004cf8:	f502 6210 	add.w	r2, r2, #2304	; 0x900
 8004cfc:	f423 63ff 	bic.w	r3, r3, #2040	; 0x7f8
 8004d00:	f023 0307 	bic.w	r3, r3, #7
 8004d04:	6013      	str	r3, [r2, #0]
 8004d06:	68fb      	ldr	r3, [r7, #12]
 8004d08:	f503 6300 	add.w	r3, r3, #2048	; 0x800
 8004d0c:	685b      	ldr	r3, [r3, #4]
 8004d0e:	68fa      	ldr	r2, [r7, #12]
 8004d10:	f502 6200 	add.w	r2, r2, #2048	; 0x800
 8004d14:	f443 7380 	orr.w	r3, r3, #256	; 0x100
 8004d18:	6053      	str	r3, [r2, #4]
 8004d1a:	2300      	movs	r3, #0
 8004d1c:	4618      	mov	r0, r3
 8004d1e:	3714      	adds	r7, #20
 8004d20:	46bd      	mov	sp, r7
 8004d22:	f85d 7b04 	ldr.w	r7, [sp], #4
 8004d26:	4770      	bx	lr

08004d28 <USB_EP0_OutStart>:
 8004d28:	b480      	push	{r7}
 8004d2a:	b087      	sub	sp, #28
 8004d2c:	af00      	add	r7, sp, #0
 8004d2e:	60f8      	str	r0, [r7, #12]
 8004d30:	460b      	mov	r3, r1
 8004d32:	607a      	str	r2, [r7, #4]
 8004d34:	72fb      	strb	r3, [r7, #11]
 8004d36:	68fb      	ldr	r3, [r7, #12]
 8004d38:	617b      	str	r3, [r7, #20]
 8004d3a:	68fb      	ldr	r3, [r7, #12]
 8004d3c:	333c      	adds	r3, #60	; 0x3c
 8004d3e:	3304      	adds	r3, #4
 8004d40:	681b      	ldr	r3, [r3, #0]
 8004d42:	613b      	str	r3, [r7, #16]
 8004d44:	693b      	ldr	r3, [r7, #16]
 8004d46:	4a26      	ldr	r2, [pc, #152]	; (8004de0 <USB_EP0_OutStart+0xb8>)
 8004d48:	4293      	cmp	r3, r2
 8004d4a:	d90a      	bls.n	8004d62 <USB_EP0_OutStart+0x3a>
 8004d4c:	697b      	ldr	r3, [r7, #20]
 8004d4e:	f503 6330 	add.w	r3, r3, #2816	; 0xb00
 8004d52:	681b      	ldr	r3, [r3, #0]
 8004d54:	f003 4300 	and.w	r3, r3, #2147483648	; 0x80000000
 8004d58:	f1b3 4f00 	cmp.w	r3, #2147483648	; 0x80000000
 8004d5c:	d101      	bne.n	8004d62 <USB_EP0_OutStart+0x3a>
 8004d5e:	2300      	movs	r3, #0
 8004d60:	e037      	b.n	8004dd2 <USB_EP0_OutStart+0xaa>
 8004d62:	697b      	ldr	r3, [r7, #20]
 8004d64:	f503 6330 	add.w	r3, r3, #2816	; 0xb00
 8004d68:	461a      	mov	r2, r3
 8004d6a:	2300      	movs	r3, #0
 8004d6c:	6113      	str	r3, [r2, #16]
 8004d6e:	697b      	ldr	r3, [r7, #20]
 8004d70:	f503 6330 	add.w	r3, r3, #2816	; 0xb00
 8004d74:	691b      	ldr	r3, [r3, #16]
 8004d76:	697a      	ldr	r2, [r7, #20]
 8004d78:	f502 6230 	add.w	r2, r2, #2816	; 0xb00
 8004d7c:	f443 2300 	orr.w	r3, r3, #524288	; 0x80000
 8004d80:	6113      	str	r3, [r2, #16]
 8004d82:	697b      	ldr	r3, [r7, #20]
 8004d84:	f503 6330 	add.w	r3, r3, #2816	; 0xb00
 8004d88:	691b      	ldr	r3, [r3, #16]
 8004d8a:	697a      	ldr	r2, [r7, #20]
 8004d8c:	f502 6230 	add.w	r2, r2, #2816	; 0xb00
 8004d90:	f043 0318 	orr.w	r3, r3, #24
 8004d94:	6113      	str	r3, [r2, #16]
 8004d96:	697b      	ldr	r3, [r7, #20]
 8004d98:	f503 6330 	add.w	r3, r3, #2816	; 0xb00
 8004d9c:	691b      	ldr	r3, [r3, #16]
 8004d9e:	697a      	ldr	r2, [r7, #20]
 8004da0:	f502 6230 	add.w	r2, r2, #2816	; 0xb00
 8004da4:	f043 43c0 	orr.w	r3, r3, #1610612736	; 0x60000000
 8004da8:	6113      	str	r3, [r2, #16]
 8004daa:	7afb      	ldrb	r3, [r7, #11]
 8004dac:	2b01      	cmp	r3, #1
 8004dae:	d10f      	bne.n	8004dd0 <USB_EP0_OutStart+0xa8>
 8004db0:	697b      	ldr	r3, [r7, #20]
 8004db2:	f503 6330 	add.w	r3, r3, #2816	; 0xb00
 8004db6:	461a      	mov	r2, r3
 8004db8:	687b      	ldr	r3, [r7, #4]
 8004dba:	6153      	str	r3, [r2, #20]
 8004dbc:	697b      	ldr	r3, [r7, #20]
 8004dbe:	f503 6330 	add.w	r3, r3, #2816	; 0xb00
 8004dc2:	681b      	ldr	r3, [r3, #0]
 8004dc4:	697a      	ldr	r2, [r7, #20]
 8004dc6:	f502 6230 	add.w	r2, r2, #2816	; 0xb00
 8004dca:	f043 2380 	orr.w	r3, r3, #2147516416	; 0x80008000
 8004dce:	6013      	str	r3, [r2, #0]
 8004dd0:	2300      	movs	r3, #0
 8004dd2:	4618      	mov	r0, r3
 8004dd4:	371c      	adds	r7, #28
 8004dd6:	46bd      	mov	sp, r7
 8004dd8:	f85d 7b04 	ldr.w	r7, [sp], #4
 8004ddc:	4770      	bx	lr
 8004dde:	bf00      	nop
 8004de0:	4f54300a 	.word	0x4f54300a

08004de4 <USB_CoreReset>:
 8004de4:	b480      	push	{r7}
 8004de6:	b085      	sub	sp, #20
 8004de8:	af00      	add	r7, sp, #0
 8004dea:	6078      	str	r0, [r7, #4]
 8004dec:	2300      	movs	r3, #0
 8004dee:	60fb      	str	r3, [r7, #12]
 8004df0:	68fb      	ldr	r3, [r7, #12]
 8004df2:	3301      	adds	r3, #1
 8004df4:	60fb      	str	r3, [r7, #12]
 8004df6:	68fb      	ldr	r3, [r7, #12]
 8004df8:	4a13      	ldr	r2, [pc, #76]	; (8004e48 <USB_CoreReset+0x64>)
 8004dfa:	4293      	cmp	r3, r2
 8004dfc:	d901      	bls.n	8004e02 <USB_CoreReset+0x1e>
 8004dfe:	2303      	movs	r3, #3
 8004e00:	e01b      	b.n	8004e3a <USB_CoreReset+0x56>
 8004e02:	687b      	ldr	r3, [r7, #4]
 8004e04:	691b      	ldr	r3, [r3, #16]
 8004e06:	2b00      	cmp	r3, #0
 8004e08:	daf2      	bge.n	8004df0 <USB_CoreReset+0xc>
 8004e0a:	2300      	movs	r3, #0
 8004e0c:	60fb      	str	r3, [r7, #12]
 8004e0e:	687b      	ldr	r3, [r7, #4]
 8004e10:	691b      	ldr	r3, [r3, #16]
 8004e12:	f043 0201 	orr.w	r2, r3, #1
 8004e16:	687b      	ldr	r3, [r7, #4]
 8004e18:	611a      	str	r2, [r3, #16]
 8004e1a:	68fb      	ldr	r3, [r7, #12]
 8004e1c:	3301      	adds	r3, #1
 8004e1e:	60fb      	str	r3, [r7, #12]
 8004e20:	68fb      	ldr	r3, [r7, #12]
 8004e22:	4a09      	ldr	r2, [pc, #36]	; (8004e48 <USB_CoreReset+0x64>)
 8004e24:	4293      	cmp	r3, r2
 8004e26:	d901      	bls.n	8004e2c <USB_CoreReset+0x48>
 8004e28:	2303      	movs	r3, #3
 8004e2a:	e006      	b.n	8004e3a <USB_CoreReset+0x56>
 8004e2c:	687b      	ldr	r3, [r7, #4]
 8004e2e:	691b      	ldr	r3, [r3, #16]
 8004e30:	f003 0301 	and.w	r3, r3, #1
 8004e34:	2b01      	cmp	r3, #1
 8004e36:	d0f0      	beq.n	8004e1a <USB_CoreReset+0x36>
 8004e38:	2300      	movs	r3, #0
 8004e3a:	4618      	mov	r0, r3
 8004e3c:	3714      	adds	r7, #20
 8004e3e:	46bd      	mov	sp, r7
 8004e40:	f85d 7b04 	ldr.w	r7, [sp], #4
 8004e44:	4770      	bx	lr
 8004e46:	bf00      	nop
 8004e48:	00030d40 	.word	0x00030d40

08004e4c <USBD_CDC_Init>:
 8004e4c:	b580      	push	{r7, lr}
 8004e4e:	b084      	sub	sp, #16
 8004e50:	af00      	add	r7, sp, #0
 8004e52:	6078      	str	r0, [r7, #4]
 8004e54:	460b      	mov	r3, r1
 8004e56:	70fb      	strb	r3, [r7, #3]
 8004e58:	f44f 7007 	mov.w	r0, #540	; 0x21c
 8004e5c:	f002 fc94 	bl	8007788 <USBD_static_malloc>
 8004e60:	60f8      	str	r0, [r7, #12]
 8004e62:	68fb      	ldr	r3, [r7, #12]
 8004e64:	2b00      	cmp	r3, #0
 8004e66:	d109      	bne.n	8004e7c <USBD_CDC_Init+0x30>
 8004e68:	687b      	ldr	r3, [r7, #4]
 8004e6a:	f8d3 22d4 	ldr.w	r2, [r3, #724]	; 0x2d4
 8004e6e:	687b      	ldr	r3, [r7, #4]
 8004e70:	32b0      	adds	r2, #176	; 0xb0
 8004e72:	2100      	movs	r1, #0
 8004e74:	f843 1022 	str.w	r1, [r3, r2, lsl #2]
 8004e78:	2302      	movs	r3, #2
 8004e7a:	e0d4      	b.n	8005026 <USBD_CDC_Init+0x1da>
 8004e7c:	f44f 7207 	mov.w	r2, #540	; 0x21c
 8004e80:	2100      	movs	r1, #0
 8004e82:	68f8      	ldr	r0, [r7, #12]
 8004e84:	f002 fce8 	bl	8007858 <memset>
 8004e88:	687b      	ldr	r3, [r7, #4]
 8004e8a:	f8d3 22d4 	ldr.w	r2, [r3, #724]	; 0x2d4
 8004e8e:	687b      	ldr	r3, [r7, #4]
 8004e90:	32b0      	adds	r2, #176	; 0xb0
 8004e92:	68f9      	ldr	r1, [r7, #12]
 8004e94:	f843 1022 	str.w	r1, [r3, r2, lsl #2]
 8004e98:	687b      	ldr	r3, [r7, #4]
 8004e9a:	f8d3 22d4 	ldr.w	r2, [r3, #724]	; 0x2d4
 8004e9e:	687b      	ldr	r3, [r7, #4]
 8004ea0:	32b0      	adds	r2, #176	; 0xb0
 8004ea2:	f853 2022 	ldr.w	r2, [r3, r2, lsl #2]
 8004ea6:	687b      	ldr	r3, [r7, #4]
 8004ea8:	f8c3 22bc 	str.w	r2, [r3, #700]	; 0x2bc
 8004eac:	687b      	ldr	r3, [r7, #4]
 8004eae:	7c1b      	ldrb	r3, [r3, #16]
 8004eb0:	2b00      	cmp	r3, #0
 8004eb2:	d138      	bne.n	8004f26 <USBD_CDC_Init+0xda>
 8004eb4:	4b5e      	ldr	r3, [pc, #376]	; (8005030 <USBD_CDC_Init+0x1e4>)
 8004eb6:	7819      	ldrb	r1, [r3, #0]
 8004eb8:	f44f 7300 	mov.w	r3, #512	; 0x200
 8004ebc:	2202      	movs	r2, #2
 8004ebe:	6878      	ldr	r0, [r7, #4]
 8004ec0:	f002 fb3f 	bl	8007542 <USBD_LL_OpenEP>
 8004ec4:	4b5a      	ldr	r3, [pc, #360]	; (8005030 <USBD_CDC_Init+0x1e4>)
 8004ec6:	781b      	ldrb	r3, [r3, #0]
 8004ec8:	f003 020f 	and.w	r2, r3, #15
 8004ecc:	6879      	ldr	r1, [r7, #4]
 8004ece:	4613      	mov	r3, r2
 8004ed0:	009b      	lsls	r3, r3, #2
 8004ed2:	4413      	add	r3, r2
 8004ed4:	009b      	lsls	r3, r3, #2
 8004ed6:	440b      	add	r3, r1
 8004ed8:	3324      	adds	r3, #36	; 0x24
 8004eda:	2201      	movs	r2, #1
 8004edc:	801a      	strh	r2, [r3, #0]
 8004ede:	4b55      	ldr	r3, [pc, #340]	; (8005034 <USBD_CDC_Init+0x1e8>)
 8004ee0:	7819      	ldrb	r1, [r3, #0]
 8004ee2:	f44f 7300 	mov.w	r3, #512	; 0x200
 8004ee6:	2202      	movs	r2, #2
 8004ee8:	6878      	ldr	r0, [r7, #4]
 8004eea:	f002 fb2a 	bl	8007542 <USBD_LL_OpenEP>
 8004eee:	4b51      	ldr	r3, [pc, #324]	; (8005034 <USBD_CDC_Init+0x1e8>)
 8004ef0:	781b      	ldrb	r3, [r3, #0]
 8004ef2:	f003 020f 	and.w	r2, r3, #15
 8004ef6:	6879      	ldr	r1, [r7, #4]
 8004ef8:	4613      	mov	r3, r2
 8004efa:	009b      	lsls	r3, r3, #2
 8004efc:	4413      	add	r3, r2
 8004efe:	009b      	lsls	r3, r3, #2
 8004f00:	440b      	add	r3, r1
 8004f02:	f503 73b2 	add.w	r3, r3, #356	; 0x164
 8004f06:	2201      	movs	r2, #1
 8004f08:	801a      	strh	r2, [r3, #0]
 8004f0a:	4b4b      	ldr	r3, [pc, #300]	; (8005038 <USBD_CDC_Init+0x1ec>)
 8004f0c:	781b      	ldrb	r3, [r3, #0]
 8004f0e:	f003 020f 	and.w	r2, r3, #15
 8004f12:	6879      	ldr	r1, [r7, #4]
 8004f14:	4613      	mov	r3, r2
 8004f16:	009b      	lsls	r3, r3, #2
 8004f18:	4413      	add	r3, r2
 8004f1a:	009b      	lsls	r3, r3, #2
 8004f1c:	440b      	add	r3, r1
 8004f1e:	3326      	adds	r3, #38	; 0x26
 8004f20:	2210      	movs	r2, #16
 8004f22:	801a      	strh	r2, [r3, #0]
 8004f24:	e035      	b.n	8004f92 <USBD_CDC_Init+0x146>
 8004f26:	4b42      	ldr	r3, [pc, #264]	; (8005030 <USBD_CDC_Init+0x1e4>)
 8004f28:	7819      	ldrb	r1, [r3, #0]
 8004f2a:	2340      	movs	r3, #64	; 0x40
 8004f2c:	2202      	movs	r2, #2
 8004f2e:	6878      	ldr	r0, [r7, #4]
 8004f30:	f002 fb07 	bl	8007542 <USBD_LL_OpenEP>
 8004f34:	4b3e      	ldr	r3, [pc, #248]	; (8005030 <USBD_CDC_Init+0x1e4>)
 8004f36:	781b      	ldrb	r3, [r3, #0]
 8004f38:	f003 020f 	and.w	r2, r3, #15
 8004f3c:	6879      	ldr	r1, [r7, #4]
 8004f3e:	4613      	mov	r3, r2
 8004f40:	009b      	lsls	r3, r3, #2
 8004f42:	4413      	add	r3, r2
 8004f44:	009b      	lsls	r3, r3, #2
 8004f46:	440b      	add	r3, r1
 8004f48:	3324      	adds	r3, #36	; 0x24
 8004f4a:	2201      	movs	r2, #1
 8004f4c:	801a      	strh	r2, [r3, #0]
 8004f4e:	4b39      	ldr	r3, [pc, #228]	; (8005034 <USBD_CDC_Init+0x1e8>)
 8004f50:	7819      	ldrb	r1, [r3, #0]
 8004f52:	2340      	movs	r3, #64	; 0x40
 8004f54:	2202      	movs	r2, #2
 8004f56:	6878      	ldr	r0, [r7, #4]
 8004f58:	f002 faf3 	bl	8007542 <USBD_LL_OpenEP>
 8004f5c:	4b35      	ldr	r3, [pc, #212]	; (8005034 <USBD_CDC_Init+0x1e8>)
 8004f5e:	781b      	ldrb	r3, [r3, #0]
 8004f60:	f003 020f 	and.w	r2, r3, #15
 8004f64:	6879      	ldr	r1, [r7, #4]
 8004f66:	4613      	mov	r3, r2
 8004f68:	009b      	lsls	r3, r3, #2
 8004f6a:	4413      	add	r3, r2
 8004f6c:	009b      	lsls	r3, r3, #2
 8004f6e:	440b      	add	r3, r1
 8004f70:	f503 73b2 	add.w	r3, r3, #356	; 0x164
 8004f74:	2201      	movs	r2, #1
 8004f76:	801a      	strh	r2, [r3, #0]
 8004f78:	4b2f      	ldr	r3, [pc, #188]	; (8005038 <USBD_CDC_Init+0x1ec>)
 8004f7a:	781b      	ldrb	r3, [r3, #0]
 8004f7c:	f003 020f 	and.w	r2, r3, #15
 8004f80:	6879      	ldr	r1, [r7, #4]
 8004f82:	4613      	mov	r3, r2
 8004f84:	009b      	lsls	r3, r3, #2
 8004f86:	4413      	add	r3, r2
 8004f88:	009b      	lsls	r3, r3, #2
 8004f8a:	440b      	add	r3, r1
 8004f8c:	3326      	adds	r3, #38	; 0x26
 8004f8e:	2210      	movs	r2, #16
 8004f90:	801a      	strh	r2, [r3, #0]
 8004f92:	4b29      	ldr	r3, [pc, #164]	; (8005038 <USBD_CDC_Init+0x1ec>)
 8004f94:	7819      	ldrb	r1, [r3, #0]
 8004f96:	2308      	movs	r3, #8
 8004f98:	2203      	movs	r2, #3
 8004f9a:	6878      	ldr	r0, [r7, #4]
 8004f9c:	f002 fad1 	bl	8007542 <USBD_LL_OpenEP>
 8004fa0:	4b25      	ldr	r3, [pc, #148]	; (8005038 <USBD_CDC_Init+0x1ec>)
 8004fa2:	781b      	ldrb	r3, [r3, #0]
 8004fa4:	f003 020f 	and.w	r2, r3, #15
 8004fa8:	6879      	ldr	r1, [r7, #4]
 8004faa:	4613      	mov	r3, r2
 8004fac:	009b      	lsls	r3, r3, #2
 8004fae:	4413      	add	r3, r2
 8004fb0:	009b      	lsls	r3, r3, #2
 8004fb2:	440b      	add	r3, r1
 8004fb4:	3324      	adds	r3, #36	; 0x24
 8004fb6:	2201      	movs	r2, #1
 8004fb8:	801a      	strh	r2, [r3, #0]
 8004fba:	68fb      	ldr	r3, [r7, #12]
 8004fbc:	2200      	movs	r2, #0
 8004fbe:	f8c3 2204 	str.w	r2, [r3, #516]	; 0x204
 8004fc2:	687b      	ldr	r3, [r7, #4]
 8004fc4:	f8d3 32d4 	ldr.w	r3, [r3, #724]	; 0x2d4
 8004fc8:	687a      	ldr	r2, [r7, #4]
 8004fca:	33b0      	adds	r3, #176	; 0xb0
 8004fcc:	009b      	lsls	r3, r3, #2
 8004fce:	4413      	add	r3, r2
 8004fd0:	685b      	ldr	r3, [r3, #4]
 8004fd2:	681b      	ldr	r3, [r3, #0]
 8004fd4:	4798      	blx	r3
 8004fd6:	68fb      	ldr	r3, [r7, #12]
 8004fd8:	2200      	movs	r2, #0
 8004fda:	f8c3 2214 	str.w	r2, [r3, #532]	; 0x214
 8004fde:	68fb      	ldr	r3, [r7, #12]
 8004fe0:	2200      	movs	r2, #0
 8004fe2:	f8c3 2218 	str.w	r2, [r3, #536]	; 0x218
 8004fe6:	68fb      	ldr	r3, [r7, #12]
 8004fe8:	f8d3 3204 	ldr.w	r3, [r3, #516]	; 0x204
 8004fec:	2b00      	cmp	r3, #0
 8004fee:	d101      	bne.n	8004ff4 <USBD_CDC_Init+0x1a8>
 8004ff0:	2302      	movs	r3, #2
 8004ff2:	e018      	b.n	8005026 <USBD_CDC_Init+0x1da>
 8004ff4:	687b      	ldr	r3, [r7, #4]
 8004ff6:	7c1b      	ldrb	r3, [r3, #16]
 8004ff8:	2b00      	cmp	r3, #0
 8004ffa:	d10a      	bne.n	8005012 <USBD_CDC_Init+0x1c6>
 8004ffc:	4b0d      	ldr	r3, [pc, #52]	; (8005034 <USBD_CDC_Init+0x1e8>)
 8004ffe:	7819      	ldrb	r1, [r3, #0]
 8005000:	68fb      	ldr	r3, [r7, #12]
 8005002:	f8d3 2204 	ldr.w	r2, [r3, #516]	; 0x204
 8005006:	f44f 7300 	mov.w	r3, #512	; 0x200
 800500a:	6878      	ldr	r0, [r7, #4]
 800500c:	f002 fb88 	bl	8007720 <USBD_LL_PrepareReceive>
 8005010:	e008      	b.n	8005024 <USBD_CDC_Init+0x1d8>
 8005012:	4b08      	ldr	r3, [pc, #32]	; (8005034 <USBD_CDC_Init+0x1e8>)
 8005014:	7819      	ldrb	r1, [r3, #0]
 8005016:	68fb      	ldr	r3, [r7, #12]
 8005018:	f8d3 2204 	ldr.w	r2, [r3, #516]	; 0x204
 800501c:	2340      	movs	r3, #64	; 0x40
 800501e:	6878      	ldr	r0, [r7, #4]
 8005020:	f002 fb7e 	bl	8007720 <USBD_LL_PrepareReceive>
 8005024:	2300      	movs	r3, #0
 8005026:	4618      	mov	r0, r3
 8005028:	3710      	adds	r7, #16
 800502a:	46bd      	mov	sp, r7
 800502c:	bd80      	pop	{r7, pc}
 800502e:	bf00      	nop
 8005030:	200000db 	.word	0x200000db
 8005034:	200000dc 	.word	0x200000dc
 8005038:	200000dd 	.word	0x200000dd

0800503c <USBD_CDC_DeInit>:
 800503c:	b580      	push	{r7, lr}
 800503e:	b082      	sub	sp, #8
 8005040:	af00      	add	r7, sp, #0
 8005042:	6078      	str	r0, [r7, #4]
 8005044:	460b      	mov	r3, r1
 8005046:	70fb      	strb	r3, [r7, #3]
 8005048:	4b3a      	ldr	r3, [pc, #232]	; (8005134 <USBD_CDC_DeInit+0xf8>)
 800504a:	781b      	ldrb	r3, [r3, #0]
 800504c:	4619      	mov	r1, r3
 800504e:	6878      	ldr	r0, [r7, #4]
 8005050:	f002 fa9d 	bl	800758e <USBD_LL_CloseEP>
 8005054:	4b37      	ldr	r3, [pc, #220]	; (8005134 <USBD_CDC_DeInit+0xf8>)
 8005056:	781b      	ldrb	r3, [r3, #0]
 8005058:	f003 020f 	and.w	r2, r3, #15
 800505c:	6879      	ldr	r1, [r7, #4]
 800505e:	4613      	mov	r3, r2
 8005060:	009b      	lsls	r3, r3, #2
 8005062:	4413      	add	r3, r2
 8005064:	009b      	lsls	r3, r3, #2
 8005066:	440b      	add	r3, r1
 8005068:	3324      	adds	r3, #36	; 0x24
 800506a:	2200      	movs	r2, #0
 800506c:	801a      	strh	r2, [r3, #0]
 800506e:	4b32      	ldr	r3, [pc, #200]	; (8005138 <USBD_CDC_DeInit+0xfc>)
 8005070:	781b      	ldrb	r3, [r3, #0]
 8005072:	4619      	mov	r1, r3
 8005074:	6878      	ldr	r0, [r7, #4]
 8005076:	f002 fa8a 	bl	800758e <USBD_LL_CloseEP>
 800507a:	4b2f      	ldr	r3, [pc, #188]	; (8005138 <USBD_CDC_DeInit+0xfc>)
 800507c:	781b      	ldrb	r3, [r3, #0]
 800507e:	f003 020f 	and.w	r2, r3, #15
 8005082:	6879      	ldr	r1, [r7, #4]
 8005084:	4613      	mov	r3, r2
 8005086:	009b      	lsls	r3, r3, #2
 8005088:	4413      	add	r3, r2
 800508a:	009b      	lsls	r3, r3, #2
 800508c:	440b      	add	r3, r1
 800508e:	f503 73b2 	add.w	r3, r3, #356	; 0x164
 8005092:	2200      	movs	r2, #0
 8005094:	801a      	strh	r2, [r3, #0]
 8005096:	4b29      	ldr	r3, [pc, #164]	; (800513c <USBD_CDC_DeInit+0x100>)
 8005098:	781b      	ldrb	r3, [r3, #0]
 800509a:	4619      	mov	r1, r3
 800509c:	6878      	ldr	r0, [r7, #4]
 800509e:	f002 fa76 	bl	800758e <USBD_LL_CloseEP>
 80050a2:	4b26      	ldr	r3, [pc, #152]	; (800513c <USBD_CDC_DeInit+0x100>)
 80050a4:	781b      	ldrb	r3, [r3, #0]
 80050a6:	f003 020f 	and.w	r2, r3, #15
 80050aa:	6879      	ldr	r1, [r7, #4]
 80050ac:	4613      	mov	r3, r2
 80050ae:	009b      	lsls	r3, r3, #2
 80050b0:	4413      	add	r3, r2
 80050b2:	009b      	lsls	r3, r3, #2
 80050b4:	440b      	add	r3, r1
 80050b6:	3324      	adds	r3, #36	; 0x24
 80050b8:	2200      	movs	r2, #0
 80050ba:	801a      	strh	r2, [r3, #0]
 80050bc:	4b1f      	ldr	r3, [pc, #124]	; (800513c <USBD_CDC_DeInit+0x100>)
 80050be:	781b      	ldrb	r3, [r3, #0]
 80050c0:	f003 020f 	and.w	r2, r3, #15
 80050c4:	6879      	ldr	r1, [r7, #4]
 80050c6:	4613      	mov	r3, r2
 80050c8:	009b      	lsls	r3, r3, #2
 80050ca:	4413      	add	r3, r2
 80050cc:	009b      	lsls	r3, r3, #2
 80050ce:	440b      	add	r3, r1
 80050d0:	3326      	adds	r3, #38	; 0x26
 80050d2:	2200      	movs	r2, #0
 80050d4:	801a      	strh	r2, [r3, #0]
 80050d6:	687b      	ldr	r3, [r7, #4]
 80050d8:	f8d3 22d4 	ldr.w	r2, [r3, #724]	; 0x2d4
 80050dc:	687b      	ldr	r3, [r7, #4]
 80050de:	32b0      	adds	r2, #176	; 0xb0
 80050e0:	f853 3022 	ldr.w	r3, [r3, r2, lsl #2]
 80050e4:	2b00      	cmp	r3, #0
 80050e6:	d01f      	beq.n	8005128 <USBD_CDC_DeInit+0xec>
 80050e8:	687b      	ldr	r3, [r7, #4]
 80050ea:	f8d3 32d4 	ldr.w	r3, [r3, #724]	; 0x2d4
 80050ee:	687a      	ldr	r2, [r7, #4]
 80050f0:	33b0      	adds	r3, #176	; 0xb0
 80050f2:	009b      	lsls	r3, r3, #2
 80050f4:	4413      	add	r3, r2
 80050f6:	685b      	ldr	r3, [r3, #4]
 80050f8:	685b      	ldr	r3, [r3, #4]
 80050fa:	4798      	blx	r3
 80050fc:	687b      	ldr	r3, [r7, #4]
 80050fe:	f8d3 22d4 	ldr.w	r2, [r3, #724]	; 0x2d4
 8005102:	687b      	ldr	r3, [r7, #4]
 8005104:	32b0      	adds	r2, #176	; 0xb0
 8005106:	f853 3022 	ldr.w	r3, [r3, r2, lsl #2]
 800510a:	4618      	mov	r0, r3
 800510c:	f002 fb4a 	bl	80077a4 <USBD_static_free>
 8005110:	687b      	ldr	r3, [r7, #4]
 8005112:	f8d3 22d4 	ldr.w	r2, [r3, #724]	; 0x2d4
 8005116:	687b      	ldr	r3, [r7, #4]
 8005118:	32b0      	adds	r2, #176	; 0xb0
 800511a:	2100      	movs	r1, #0
 800511c:	f843 1022 	str.w	r1, [r3, r2, lsl #2]
 8005120:	687b      	ldr	r3, [r7, #4]
 8005122:	2200      	movs	r2, #0
 8005124:	f8c3 22bc 	str.w	r2, [r3, #700]	; 0x2bc
 8005128:	2300      	movs	r3, #0
 800512a:	4618      	mov	r0, r3
 800512c:	3708      	adds	r7, #8
 800512e:	46bd      	mov	sp, r7
 8005130:	bd80      	pop	{r7, pc}
 8005132:	bf00      	nop
 8005134:	200000db 	.word	0x200000db
 8005138:	200000dc 	.word	0x200000dc
 800513c:	200000dd 	.word	0x200000dd

08005140 <USBD_CDC_Setup>:
 8005140:	b580      	push	{r7, lr}
 8005142:	b086      	sub	sp, #24
 8005144:	af00      	add	r7, sp, #0
 8005146:	6078      	str	r0, [r7, #4]
 8005148:	6039      	str	r1, [r7, #0]
 800514a:	687b      	ldr	r3, [r7, #4]
 800514c:	f8d3 22d4 	ldr.w	r2, [r3, #724]	; 0x2d4
 8005150:	687b      	ldr	r3, [r7, #4]
 8005152:	32b0      	adds	r2, #176	; 0xb0
 8005154:	f853 3022 	ldr.w	r3, [r3, r2, lsl #2]
 8005158:	613b      	str	r3, [r7, #16]
 800515a:	2300      	movs	r3, #0
 800515c:	737b      	strb	r3, [r7, #13]
 800515e:	2300      	movs	r3, #0
 8005160:	817b      	strh	r3, [r7, #10]
 8005162:	2300      	movs	r3, #0
 8005164:	75fb      	strb	r3, [r7, #23]
 8005166:	693b      	ldr	r3, [r7, #16]
 8005168:	2b00      	cmp	r3, #0
 800516a:	d101      	bne.n	8005170 <USBD_CDC_Setup+0x30>
 800516c:	2303      	movs	r3, #3
 800516e:	e0bf      	b.n	80052f0 <USBD_CDC_Setup+0x1b0>
 8005170:	683b      	ldr	r3, [r7, #0]
 8005172:	781b      	ldrb	r3, [r3, #0]
 8005174:	f003 0360 	and.w	r3, r3, #96	; 0x60
 8005178:	2b00      	cmp	r3, #0
 800517a:	d050      	beq.n	800521e <USBD_CDC_Setup+0xde>
 800517c:	2b20      	cmp	r3, #32
 800517e:	f040 80af 	bne.w	80052e0 <USBD_CDC_Setup+0x1a0>
 8005182:	683b      	ldr	r3, [r7, #0]
 8005184:	88db      	ldrh	r3, [r3, #6]
 8005186:	2b00      	cmp	r3, #0
 8005188:	d03a      	beq.n	8005200 <USBD_CDC_Setup+0xc0>
 800518a:	683b      	ldr	r3, [r7, #0]
 800518c:	781b      	ldrb	r3, [r3, #0]
 800518e:	b25b      	sxtb	r3, r3
 8005190:	2b00      	cmp	r3, #0
 8005192:	da1b      	bge.n	80051cc <USBD_CDC_Setup+0x8c>
 8005194:	687b      	ldr	r3, [r7, #4]
 8005196:	f8d3 32d4 	ldr.w	r3, [r3, #724]	; 0x2d4
 800519a:	687a      	ldr	r2, [r7, #4]
 800519c:	33b0      	adds	r3, #176	; 0xb0
 800519e:	009b      	lsls	r3, r3, #2
 80051a0:	4413      	add	r3, r2
 80051a2:	685b      	ldr	r3, [r3, #4]
 80051a4:	689b      	ldr	r3, [r3, #8]
 80051a6:	683a      	ldr	r2, [r7, #0]
 80051a8:	7850      	ldrb	r0, [r2, #1]
 80051aa:	6939      	ldr	r1, [r7, #16]
 80051ac:	683a      	ldr	r2, [r7, #0]
 80051ae:	88d2      	ldrh	r2, [r2, #6]
 80051b0:	4798      	blx	r3
 80051b2:	683b      	ldr	r3, [r7, #0]
 80051b4:	88db      	ldrh	r3, [r3, #6]
 80051b6:	2b07      	cmp	r3, #7
 80051b8:	bf28      	it	cs
 80051ba:	2307      	movcs	r3, #7
 80051bc:	81fb      	strh	r3, [r7, #14]
 80051be:	693b      	ldr	r3, [r7, #16]
 80051c0:	89fa      	ldrh	r2, [r7, #14]
 80051c2:	4619      	mov	r1, r3
 80051c4:	6878      	ldr	r0, [r7, #4]
 80051c6:	f001 fd89 	bl	8006cdc <USBD_CtlSendData>
 80051ca:	e090      	b.n	80052ee <USBD_CDC_Setup+0x1ae>
 80051cc:	683b      	ldr	r3, [r7, #0]
 80051ce:	785a      	ldrb	r2, [r3, #1]
 80051d0:	693b      	ldr	r3, [r7, #16]
 80051d2:	f883 2200 	strb.w	r2, [r3, #512]	; 0x200
 80051d6:	683b      	ldr	r3, [r7, #0]
 80051d8:	88db      	ldrh	r3, [r3, #6]
 80051da:	2b3f      	cmp	r3, #63	; 0x3f
 80051dc:	d803      	bhi.n	80051e6 <USBD_CDC_Setup+0xa6>
 80051de:	683b      	ldr	r3, [r7, #0]
 80051e0:	88db      	ldrh	r3, [r3, #6]
 80051e2:	b2da      	uxtb	r2, r3
 80051e4:	e000      	b.n	80051e8 <USBD_CDC_Setup+0xa8>
 80051e6:	2240      	movs	r2, #64	; 0x40
 80051e8:	693b      	ldr	r3, [r7, #16]
 80051ea:	f883 2201 	strb.w	r2, [r3, #513]	; 0x201
 80051ee:	6939      	ldr	r1, [r7, #16]
 80051f0:	693b      	ldr	r3, [r7, #16]
 80051f2:	f893 3201 	ldrb.w	r3, [r3, #513]	; 0x201
 80051f6:	461a      	mov	r2, r3
 80051f8:	6878      	ldr	r0, [r7, #4]
 80051fa:	f001 fd9b 	bl	8006d34 <USBD_CtlPrepareRx>
 80051fe:	e076      	b.n	80052ee <USBD_CDC_Setup+0x1ae>
 8005200:	687b      	ldr	r3, [r7, #4]
 8005202:	f8d3 32d4 	ldr.w	r3, [r3, #724]	; 0x2d4
 8005206:	687a      	ldr	r2, [r7, #4]
 8005208:	33b0      	adds	r3, #176	; 0xb0
 800520a:	009b      	lsls	r3, r3, #2
 800520c:	4413      	add	r3, r2
 800520e:	685b      	ldr	r3, [r3, #4]
 8005210:	689b      	ldr	r3, [r3, #8]
 8005212:	683a      	ldr	r2, [r7, #0]
 8005214:	7850      	ldrb	r0, [r2, #1]
 8005216:	2200      	movs	r2, #0
 8005218:	6839      	ldr	r1, [r7, #0]
 800521a:	4798      	blx	r3
 800521c:	e067      	b.n	80052ee <USBD_CDC_Setup+0x1ae>
 800521e:	683b      	ldr	r3, [r7, #0]
 8005220:	785b      	ldrb	r3, [r3, #1]
 8005222:	2b0b      	cmp	r3, #11
 8005224:	d851      	bhi.n	80052ca <USBD_CDC_Setup+0x18a>
 8005226:	a201      	add	r2, pc, #4	; (adr r2, 800522c <USBD_CDC_Setup+0xec>)
 8005228:	f852 f023 	ldr.w	pc, [r2, r3, lsl #2]
 800522c:	0800525d 	.word	0x0800525d
 8005230:	080052d9 	.word	0x080052d9
 8005234:	080052cb 	.word	0x080052cb
 8005238:	080052cb 	.word	0x080052cb
 800523c:	080052cb 	.word	0x080052cb
 8005240:	080052cb 	.word	0x080052cb
 8005244:	080052cb 	.word	0x080052cb
 8005248:	080052cb 	.word	0x080052cb
 800524c:	080052cb 	.word	0x080052cb
 8005250:	080052cb 	.word	0x080052cb
 8005254:	08005287 	.word	0x08005287
 8005258:	080052b1 	.word	0x080052b1
 800525c:	687b      	ldr	r3, [r7, #4]
 800525e:	f893 329c 	ldrb.w	r3, [r3, #668]	; 0x29c
 8005262:	b2db      	uxtb	r3, r3
 8005264:	2b03      	cmp	r3, #3
 8005266:	d107      	bne.n	8005278 <USBD_CDC_Setup+0x138>
 8005268:	f107 030a 	add.w	r3, r7, #10
 800526c:	2202      	movs	r2, #2
 800526e:	4619      	mov	r1, r3
 8005270:	6878      	ldr	r0, [r7, #4]
 8005272:	f001 fd33 	bl	8006cdc <USBD_CtlSendData>
 8005276:	e032      	b.n	80052de <USBD_CDC_Setup+0x19e>
 8005278:	6839      	ldr	r1, [r7, #0]
 800527a:	6878      	ldr	r0, [r7, #4]
 800527c:	f001 fcbd 	bl	8006bfa <USBD_CtlError>
 8005280:	2303      	movs	r3, #3
 8005282:	75fb      	strb	r3, [r7, #23]
 8005284:	e02b      	b.n	80052de <USBD_CDC_Setup+0x19e>
 8005286:	687b      	ldr	r3, [r7, #4]
 8005288:	f893 329c 	ldrb.w	r3, [r3, #668]	; 0x29c
 800528c:	b2db      	uxtb	r3, r3
 800528e:	2b03      	cmp	r3, #3
 8005290:	d107      	bne.n	80052a2 <USBD_CDC_Setup+0x162>
 8005292:	f107 030d 	add.w	r3, r7, #13
 8005296:	2201      	movs	r2, #1
 8005298:	4619      	mov	r1, r3
 800529a:	6878      	ldr	r0, [r7, #4]
 800529c:	f001 fd1e 	bl	8006cdc <USBD_CtlSendData>
 80052a0:	e01d      	b.n	80052de <USBD_CDC_Setup+0x19e>
 80052a2:	6839      	ldr	r1, [r7, #0]
 80052a4:	6878      	ldr	r0, [r7, #4]
 80052a6:	f001 fca8 	bl	8006bfa <USBD_CtlError>
 80052aa:	2303      	movs	r3, #3
 80052ac:	75fb      	strb	r3, [r7, #23]
 80052ae:	e016      	b.n	80052de <USBD_CDC_Setup+0x19e>
 80052b0:	687b      	ldr	r3, [r7, #4]
 80052b2:	f893 329c 	ldrb.w	r3, [r3, #668]	; 0x29c
 80052b6:	b2db      	uxtb	r3, r3
 80052b8:	2b03      	cmp	r3, #3
 80052ba:	d00f      	beq.n	80052dc <USBD_CDC_Setup+0x19c>
 80052bc:	6839      	ldr	r1, [r7, #0]
 80052be:	6878      	ldr	r0, [r7, #4]
 80052c0:	f001 fc9b 	bl	8006bfa <USBD_CtlError>
 80052c4:	2303      	movs	r3, #3
 80052c6:	75fb      	strb	r3, [r7, #23]
 80052c8:	e008      	b.n	80052dc <USBD_CDC_Setup+0x19c>
 80052ca:	6839      	ldr	r1, [r7, #0]
 80052cc:	6878      	ldr	r0, [r7, #4]
 80052ce:	f001 fc94 	bl	8006bfa <USBD_CtlError>
 80052d2:	2303      	movs	r3, #3
 80052d4:	75fb      	strb	r3, [r7, #23]
 80052d6:	e002      	b.n	80052de <USBD_CDC_Setup+0x19e>
 80052d8:	bf00      	nop
 80052da:	e008      	b.n	80052ee <USBD_CDC_Setup+0x1ae>
 80052dc:	bf00      	nop
 80052de:	e006      	b.n	80052ee <USBD_CDC_Setup+0x1ae>
 80052e0:	6839      	ldr	r1, [r7, #0]
 80052e2:	6878      	ldr	r0, [r7, #4]
 80052e4:	f001 fc89 	bl	8006bfa <USBD_CtlError>
 80052e8:	2303      	movs	r3, #3
 80052ea:	75fb      	strb	r3, [r7, #23]
 80052ec:	bf00      	nop
 80052ee:	7dfb      	ldrb	r3, [r7, #23]
 80052f0:	4618      	mov	r0, r3
 80052f2:	3718      	adds	r7, #24
 80052f4:	46bd      	mov	sp, r7
 80052f6:	bd80      	pop	{r7, pc}

080052f8 <USBD_CDC_DataIn>:
 80052f8:	b580      	push	{r7, lr}
 80052fa:	b084      	sub	sp, #16
 80052fc:	af00      	add	r7, sp, #0
 80052fe:	6078      	str	r0, [r7, #4]
 8005300:	460b      	mov	r3, r1
 8005302:	70fb      	strb	r3, [r7, #3]
 8005304:	687b      	ldr	r3, [r7, #4]
 8005306:	f8d3 32c8 	ldr.w	r3, [r3, #712]	; 0x2c8
 800530a:	60fb      	str	r3, [r7, #12]
 800530c:	687b      	ldr	r3, [r7, #4]
 800530e:	f8d3 22d4 	ldr.w	r2, [r3, #724]	; 0x2d4
 8005312:	687b      	ldr	r3, [r7, #4]
 8005314:	32b0      	adds	r2, #176	; 0xb0
 8005316:	f853 3022 	ldr.w	r3, [r3, r2, lsl #2]
 800531a:	2b00      	cmp	r3, #0
 800531c:	d101      	bne.n	8005322 <USBD_CDC_DataIn+0x2a>
 800531e:	2303      	movs	r3, #3
 8005320:	e065      	b.n	80053ee <USBD_CDC_DataIn+0xf6>
 8005322:	687b      	ldr	r3, [r7, #4]
 8005324:	f8d3 22d4 	ldr.w	r2, [r3, #724]	; 0x2d4
 8005328:	687b      	ldr	r3, [r7, #4]
 800532a:	32b0      	adds	r2, #176	; 0xb0
 800532c:	f853 3022 	ldr.w	r3, [r3, r2, lsl #2]
 8005330:	60bb      	str	r3, [r7, #8]
 8005332:	78fb      	ldrb	r3, [r7, #3]
 8005334:	f003 020f 	and.w	r2, r3, #15
 8005338:	6879      	ldr	r1, [r7, #4]
 800533a:	4613      	mov	r3, r2
 800533c:	009b      	lsls	r3, r3, #2
 800533e:	4413      	add	r3, r2
 8005340:	009b      	lsls	r3, r3, #2
 8005342:	440b      	add	r3, r1
 8005344:	3318      	adds	r3, #24
 8005346:	681b      	ldr	r3, [r3, #0]
 8005348:	2b00      	cmp	r3, #0
 800534a:	d02f      	beq.n	80053ac <USBD_CDC_DataIn+0xb4>
 800534c:	78fb      	ldrb	r3, [r7, #3]
 800534e:	f003 020f 	and.w	r2, r3, #15
 8005352:	6879      	ldr	r1, [r7, #4]
 8005354:	4613      	mov	r3, r2
 8005356:	009b      	lsls	r3, r3, #2
 8005358:	4413      	add	r3, r2
 800535a:	009b      	lsls	r3, r3, #2
 800535c:	440b      	add	r3, r1
 800535e:	3318      	adds	r3, #24
 8005360:	681a      	ldr	r2, [r3, #0]
 8005362:	78fb      	ldrb	r3, [r7, #3]
 8005364:	f003 010f 	and.w	r1, r3, #15
 8005368:	68f8      	ldr	r0, [r7, #12]
 800536a:	460b      	mov	r3, r1
 800536c:	00db      	lsls	r3, r3, #3
 800536e:	440b      	add	r3, r1
 8005370:	009b      	lsls	r3, r3, #2
 8005372:	4403      	add	r3, r0
 8005374:	3348      	adds	r3, #72	; 0x48
 8005376:	681b      	ldr	r3, [r3, #0]
 8005378:	fbb2 f1f3 	udiv	r1, r2, r3
 800537c:	fb01 f303 	mul.w	r3, r1, r3
 8005380:	1ad3      	subs	r3, r2, r3
 8005382:	2b00      	cmp	r3, #0
 8005384:	d112      	bne.n	80053ac <USBD_CDC_DataIn+0xb4>
 8005386:	78fb      	ldrb	r3, [r7, #3]
 8005388:	f003 020f 	and.w	r2, r3, #15
 800538c:	6879      	ldr	r1, [r7, #4]
 800538e:	4613      	mov	r3, r2
 8005390:	009b      	lsls	r3, r3, #2
 8005392:	4413      	add	r3, r2
 8005394:	009b      	lsls	r3, r3, #2
 8005396:	440b      	add	r3, r1
 8005398:	3318      	adds	r3, #24
 800539a:	2200      	movs	r2, #0
 800539c:	601a      	str	r2, [r3, #0]
 800539e:	78f9      	ldrb	r1, [r7, #3]
 80053a0:	2300      	movs	r3, #0
 80053a2:	2200      	movs	r2, #0
 80053a4:	6878      	ldr	r0, [r7, #4]
 80053a6:	f002 f99a 	bl	80076de <USBD_LL_Transmit>
 80053aa:	e01f      	b.n	80053ec <USBD_CDC_DataIn+0xf4>
 80053ac:	68bb      	ldr	r3, [r7, #8]
 80053ae:	2200      	movs	r2, #0
 80053b0:	f8c3 2214 	str.w	r2, [r3, #532]	; 0x214
 80053b4:	687b      	ldr	r3, [r7, #4]
 80053b6:	f8d3 32d4 	ldr.w	r3, [r3, #724]	; 0x2d4
 80053ba:	687a      	ldr	r2, [r7, #4]
 80053bc:	33b0      	adds	r3, #176	; 0xb0
 80053be:	009b      	lsls	r3, r3, #2
 80053c0:	4413      	add	r3, r2
 80053c2:	685b      	ldr	r3, [r3, #4]
 80053c4:	691b      	ldr	r3, [r3, #16]
 80053c6:	2b00      	cmp	r3, #0
 80053c8:	d010      	beq.n	80053ec <USBD_CDC_DataIn+0xf4>
 80053ca:	687b      	ldr	r3, [r7, #4]
 80053cc:	f8d3 32d4 	ldr.w	r3, [r3, #724]	; 0x2d4
 80053d0:	687a      	ldr	r2, [r7, #4]
 80053d2:	33b0      	adds	r3, #176	; 0xb0
 80053d4:	009b      	lsls	r3, r3, #2
 80053d6:	4413      	add	r3, r2
 80053d8:	685b      	ldr	r3, [r3, #4]
 80053da:	691b      	ldr	r3, [r3, #16]
 80053dc:	68ba      	ldr	r2, [r7, #8]
 80053de:	f8d2 0208 	ldr.w	r0, [r2, #520]	; 0x208
 80053e2:	68ba      	ldr	r2, [r7, #8]
 80053e4:	f502 7104 	add.w	r1, r2, #528	; 0x210
 80053e8:	78fa      	ldrb	r2, [r7, #3]
 80053ea:	4798      	blx	r3
 80053ec:	2300      	movs	r3, #0
 80053ee:	4618      	mov	r0, r3
 80053f0:	3710      	adds	r7, #16
 80053f2:	46bd      	mov	sp, r7
 80053f4:	bd80      	pop	{r7, pc}

080053f6 <USBD_CDC_DataOut>:
 80053f6:	b580      	push	{r7, lr}
 80053f8:	b084      	sub	sp, #16
 80053fa:	af00      	add	r7, sp, #0
 80053fc:	6078      	str	r0, [r7, #4]
 80053fe:	460b      	mov	r3, r1
 8005400:	70fb      	strb	r3, [r7, #3]
 8005402:	687b      	ldr	r3, [r7, #4]
 8005404:	f8d3 22d4 	ldr.w	r2, [r3, #724]	; 0x2d4
 8005408:	687b      	ldr	r3, [r7, #4]
 800540a:	32b0      	adds	r2, #176	; 0xb0
 800540c:	f853 3022 	ldr.w	r3, [r3, r2, lsl #2]
 8005410:	60fb      	str	r3, [r7, #12]
 8005412:	687b      	ldr	r3, [r7, #4]
 8005414:	f8d3 22d4 	ldr.w	r2, [r3, #724]	; 0x2d4
 8005418:	687b      	ldr	r3, [r7, #4]
 800541a:	32b0      	adds	r2, #176	; 0xb0
 800541c:	f853 3022 	ldr.w	r3, [r3, r2, lsl #2]
 8005420:	2b00      	cmp	r3, #0
 8005422:	d101      	bne.n	8005428 <USBD_CDC_DataOut+0x32>
 8005424:	2303      	movs	r3, #3
 8005426:	e01a      	b.n	800545e <USBD_CDC_DataOut+0x68>
 8005428:	78fb      	ldrb	r3, [r7, #3]
 800542a:	4619      	mov	r1, r3
 800542c:	6878      	ldr	r0, [r7, #4]
 800542e:	f002 f998 	bl	8007762 <USBD_LL_GetRxDataSize>
 8005432:	4602      	mov	r2, r0
 8005434:	68fb      	ldr	r3, [r7, #12]
 8005436:	f8c3 220c 	str.w	r2, [r3, #524]	; 0x20c
 800543a:	687b      	ldr	r3, [r7, #4]
 800543c:	f8d3 32d4 	ldr.w	r3, [r3, #724]	; 0x2d4
 8005440:	687a      	ldr	r2, [r7, #4]
 8005442:	33b0      	adds	r3, #176	; 0xb0
 8005444:	009b      	lsls	r3, r3, #2
 8005446:	4413      	add	r3, r2
 8005448:	685b      	ldr	r3, [r3, #4]
 800544a:	68db      	ldr	r3, [r3, #12]
 800544c:	68fa      	ldr	r2, [r7, #12]
 800544e:	f8d2 0204 	ldr.w	r0, [r2, #516]	; 0x204
 8005452:	68fa      	ldr	r2, [r7, #12]
 8005454:	f502 7203 	add.w	r2, r2, #524	; 0x20c
 8005458:	4611      	mov	r1, r2
 800545a:	4798      	blx	r3
 800545c:	2300      	movs	r3, #0
 800545e:	4618      	mov	r0, r3
 8005460:	3710      	adds	r7, #16
 8005462:	46bd      	mov	sp, r7
 8005464:	bd80      	pop	{r7, pc}

08005466 <USBD_CDC_EP0_RxReady>:
 8005466:	b580      	push	{r7, lr}
 8005468:	b084      	sub	sp, #16
 800546a:	af00      	add	r7, sp, #0
 800546c:	6078      	str	r0, [r7, #4]
 800546e:	687b      	ldr	r3, [r7, #4]
 8005470:	f8d3 22d4 	ldr.w	r2, [r3, #724]	; 0x2d4
 8005474:	687b      	ldr	r3, [r7, #4]
 8005476:	32b0      	adds	r2, #176	; 0xb0
 8005478:	f853 3022 	ldr.w	r3, [r3, r2, lsl #2]
 800547c:	60fb      	str	r3, [r7, #12]
 800547e:	68fb      	ldr	r3, [r7, #12]
 8005480:	2b00      	cmp	r3, #0
 8005482:	d101      	bne.n	8005488 <USBD_CDC_EP0_RxReady+0x22>
 8005484:	2303      	movs	r3, #3
 8005486:	e025      	b.n	80054d4 <USBD_CDC_EP0_RxReady+0x6e>
 8005488:	687b      	ldr	r3, [r7, #4]
 800548a:	f8d3 32d4 	ldr.w	r3, [r3, #724]	; 0x2d4
 800548e:	687a      	ldr	r2, [r7, #4]
 8005490:	33b0      	adds	r3, #176	; 0xb0
 8005492:	009b      	lsls	r3, r3, #2
 8005494:	4413      	add	r3, r2
 8005496:	685b      	ldr	r3, [r3, #4]
 8005498:	2b00      	cmp	r3, #0
 800549a:	d01a      	beq.n	80054d2 <USBD_CDC_EP0_RxReady+0x6c>
 800549c:	68fb      	ldr	r3, [r7, #12]
 800549e:	f893 3200 	ldrb.w	r3, [r3, #512]	; 0x200
 80054a2:	2bff      	cmp	r3, #255	; 0xff
 80054a4:	d015      	beq.n	80054d2 <USBD_CDC_EP0_RxReady+0x6c>
 80054a6:	687b      	ldr	r3, [r7, #4]
 80054a8:	f8d3 32d4 	ldr.w	r3, [r3, #724]	; 0x2d4
 80054ac:	687a      	ldr	r2, [r7, #4]
 80054ae:	33b0      	adds	r3, #176	; 0xb0
 80054b0:	009b      	lsls	r3, r3, #2
 80054b2:	4413      	add	r3, r2
 80054b4:	685b      	ldr	r3, [r3, #4]
 80054b6:	689b      	ldr	r3, [r3, #8]
 80054b8:	68fa      	ldr	r2, [r7, #12]
 80054ba:	f892 0200 	ldrb.w	r0, [r2, #512]	; 0x200
 80054be:	68f9      	ldr	r1, [r7, #12]
 80054c0:	68fa      	ldr	r2, [r7, #12]
 80054c2:	f892 2201 	ldrb.w	r2, [r2, #513]	; 0x201
 80054c6:	b292      	uxth	r2, r2
 80054c8:	4798      	blx	r3
 80054ca:	68fb      	ldr	r3, [r7, #12]
 80054cc:	22ff      	movs	r2, #255	; 0xff
 80054ce:	f883 2200 	strb.w	r2, [r3, #512]	; 0x200
 80054d2:	2300      	movs	r3, #0
 80054d4:	4618      	mov	r0, r3
 80054d6:	3710      	adds	r7, #16
 80054d8:	46bd      	mov	sp, r7
 80054da:	bd80      	pop	{r7, pc}

080054dc <USBD_CDC_GetFSCfgDesc>:
 80054dc:	b580      	push	{r7, lr}
 80054de:	b086      	sub	sp, #24
 80054e0:	af00      	add	r7, sp, #0
 80054e2:	6078      	str	r0, [r7, #4]
 80054e4:	2182      	movs	r1, #130	; 0x82
 80054e6:	4818      	ldr	r0, [pc, #96]	; (8005548 <USBD_CDC_GetFSCfgDesc+0x6c>)
 80054e8:	f000 fd4f 	bl	8005f8a <USBD_GetEpDesc>
 80054ec:	6178      	str	r0, [r7, #20]
 80054ee:	2101      	movs	r1, #1
 80054f0:	4815      	ldr	r0, [pc, #84]	; (8005548 <USBD_CDC_GetFSCfgDesc+0x6c>)
 80054f2:	f000 fd4a 	bl	8005f8a <USBD_GetEpDesc>
 80054f6:	6138      	str	r0, [r7, #16]
 80054f8:	2181      	movs	r1, #129	; 0x81
 80054fa:	4813      	ldr	r0, [pc, #76]	; (8005548 <USBD_CDC_GetFSCfgDesc+0x6c>)
 80054fc:	f000 fd45 	bl	8005f8a <USBD_GetEpDesc>
 8005500:	60f8      	str	r0, [r7, #12]
 8005502:	697b      	ldr	r3, [r7, #20]
 8005504:	2b00      	cmp	r3, #0
 8005506:	d002      	beq.n	800550e <USBD_CDC_GetFSCfgDesc+0x32>
 8005508:	697b      	ldr	r3, [r7, #20]
 800550a:	2210      	movs	r2, #16
 800550c:	719a      	strb	r2, [r3, #6]
 800550e:	693b      	ldr	r3, [r7, #16]
 8005510:	2b00      	cmp	r3, #0
 8005512:	d006      	beq.n	8005522 <USBD_CDC_GetFSCfgDesc+0x46>
 8005514:	693b      	ldr	r3, [r7, #16]
 8005516:	2200      	movs	r2, #0
 8005518:	f042 0240 	orr.w	r2, r2, #64	; 0x40
 800551c:	711a      	strb	r2, [r3, #4]
 800551e:	2200      	movs	r2, #0
 8005520:	715a      	strb	r2, [r3, #5]
 8005522:	68fb      	ldr	r3, [r7, #12]
 8005524:	2b00      	cmp	r3, #0
 8005526:	d006      	beq.n	8005536 <USBD_CDC_GetFSCfgDesc+0x5a>
 8005528:	68fb      	ldr	r3, [r7, #12]
 800552a:	2200      	movs	r2, #0
 800552c:	f042 0240 	orr.w	r2, r2, #64	; 0x40
 8005530:	711a      	strb	r2, [r3, #4]
 8005532:	2200      	movs	r2, #0
 8005534:	715a      	strb	r2, [r3, #5]
 8005536:	687b      	ldr	r3, [r7, #4]
 8005538:	2243      	movs	r2, #67	; 0x43
 800553a:	801a      	strh	r2, [r3, #0]
 800553c:	4b02      	ldr	r3, [pc, #8]	; (8005548 <USBD_CDC_GetFSCfgDesc+0x6c>)
 800553e:	4618      	mov	r0, r3
 8005540:	3718      	adds	r7, #24
 8005542:	46bd      	mov	sp, r7
 8005544:	bd80      	pop	{r7, pc}
 8005546:	bf00      	nop
 8005548:	20000098 	.word	0x20000098

0800554c <USBD_CDC_GetHSCfgDesc>:
 800554c:	b580      	push	{r7, lr}
 800554e:	b086      	sub	sp, #24
 8005550:	af00      	add	r7, sp, #0
 8005552:	6078      	str	r0, [r7, #4]
 8005554:	2182      	movs	r1, #130	; 0x82
 8005556:	4818      	ldr	r0, [pc, #96]	; (80055b8 <USBD_CDC_GetHSCfgDesc+0x6c>)
 8005558:	f000 fd17 	bl	8005f8a <USBD_GetEpDesc>
 800555c:	6178      	str	r0, [r7, #20]
 800555e:	2101      	movs	r1, #1
 8005560:	4815      	ldr	r0, [pc, #84]	; (80055b8 <USBD_CDC_GetHSCfgDesc+0x6c>)
 8005562:	f000 fd12 	bl	8005f8a <USBD_GetEpDesc>
 8005566:	6138      	str	r0, [r7, #16]
 8005568:	2181      	movs	r1, #129	; 0x81
 800556a:	4813      	ldr	r0, [pc, #76]	; (80055b8 <USBD_CDC_GetHSCfgDesc+0x6c>)
 800556c:	f000 fd0d 	bl	8005f8a <USBD_GetEpDesc>
 8005570:	60f8      	str	r0, [r7, #12]
 8005572:	697b      	ldr	r3, [r7, #20]
 8005574:	2b00      	cmp	r3, #0
 8005576:	d002      	beq.n	800557e <USBD_CDC_GetHSCfgDesc+0x32>
 8005578:	697b      	ldr	r3, [r7, #20]
 800557a:	2210      	movs	r2, #16
 800557c:	719a      	strb	r2, [r3, #6]
 800557e:	693b      	ldr	r3, [r7, #16]
 8005580:	2b00      	cmp	r3, #0
 8005582:	d006      	beq.n	8005592 <USBD_CDC_GetHSCfgDesc+0x46>
 8005584:	693b      	ldr	r3, [r7, #16]
 8005586:	2200      	movs	r2, #0
 8005588:	711a      	strb	r2, [r3, #4]
 800558a:	2200      	movs	r2, #0
 800558c:	f042 0202 	orr.w	r2, r2, #2
 8005590:	715a      	strb	r2, [r3, #5]
 8005592:	68fb      	ldr	r3, [r7, #12]
 8005594:	2b00      	cmp	r3, #0
 8005596:	d006      	beq.n	80055a6 <USBD_CDC_GetHSCfgDesc+0x5a>
 8005598:	68fb      	ldr	r3, [r7, #12]
 800559a:	2200      	movs	r2, #0
 800559c:	711a      	strb	r2, [r3, #4]
 800559e:	2200      	movs	r2, #0
 80055a0:	f042 0202 	orr.w	r2, r2, #2
 80055a4:	715a      	strb	r2, [r3, #5]
 80055a6:	687b      	ldr	r3, [r7, #4]
 80055a8:	2243      	movs	r2, #67	; 0x43
 80055aa:	801a      	strh	r2, [r3, #0]
 80055ac:	4b02      	ldr	r3, [pc, #8]	; (80055b8 <USBD_CDC_GetHSCfgDesc+0x6c>)
 80055ae:	4618      	mov	r0, r3
 80055b0:	3718      	adds	r7, #24
 80055b2:	46bd      	mov	sp, r7
 80055b4:	bd80      	pop	{r7, pc}
 80055b6:	bf00      	nop
 80055b8:	20000098 	.word	0x20000098

080055bc <USBD_CDC_GetOtherSpeedCfgDesc>:
 80055bc:	b580      	push	{r7, lr}
 80055be:	b086      	sub	sp, #24
 80055c0:	af00      	add	r7, sp, #0
 80055c2:	6078      	str	r0, [r7, #4]
 80055c4:	2182      	movs	r1, #130	; 0x82
 80055c6:	4818      	ldr	r0, [pc, #96]	; (8005628 <USBD_CDC_GetOtherSpeedCfgDesc+0x6c>)
 80055c8:	f000 fcdf 	bl	8005f8a <USBD_GetEpDesc>
 80055cc:	6178      	str	r0, [r7, #20]
 80055ce:	2101      	movs	r1, #1
 80055d0:	4815      	ldr	r0, [pc, #84]	; (8005628 <USBD_CDC_GetOtherSpeedCfgDesc+0x6c>)
 80055d2:	f000 fcda 	bl	8005f8a <USBD_GetEpDesc>
 80055d6:	6138      	str	r0, [r7, #16]
 80055d8:	2181      	movs	r1, #129	; 0x81
 80055da:	4813      	ldr	r0, [pc, #76]	; (8005628 <USBD_CDC_GetOtherSpeedCfgDesc+0x6c>)
 80055dc:	f000 fcd5 	bl	8005f8a <USBD_GetEpDesc>
 80055e0:	60f8      	str	r0, [r7, #12]
 80055e2:	697b      	ldr	r3, [r7, #20]
 80055e4:	2b00      	cmp	r3, #0
 80055e6:	d002      	beq.n	80055ee <USBD_CDC_GetOtherSpeedCfgDesc+0x32>
 80055e8:	697b      	ldr	r3, [r7, #20]
 80055ea:	2210      	movs	r2, #16
 80055ec:	719a      	strb	r2, [r3, #6]
 80055ee:	693b      	ldr	r3, [r7, #16]
 80055f0:	2b00      	cmp	r3, #0
 80055f2:	d006      	beq.n	8005602 <USBD_CDC_GetOtherSpeedCfgDesc+0x46>
 80055f4:	693b      	ldr	r3, [r7, #16]
 80055f6:	2200      	movs	r2, #0
 80055f8:	f042 0240 	orr.w	r2, r2, #64	; 0x40
 80055fc:	711a      	strb	r2, [r3, #4]
 80055fe:	2200      	movs	r2, #0
 8005600:	715a      	strb	r2, [r3, #5]
 8005602:	68fb      	ldr	r3, [r7, #12]
 8005604:	2b00      	cmp	r3, #0
 8005606:	d006      	beq.n	8005616 <USBD_CDC_GetOtherSpeedCfgDesc+0x5a>
 8005608:	68fb      	ldr	r3, [r7, #12]
 800560a:	2200      	movs	r2, #0
 800560c:	f042 0240 	orr.w	r2, r2, #64	; 0x40
 8005610:	711a      	strb	r2, [r3, #4]
 8005612:	2200      	movs	r2, #0
 8005614:	715a      	strb	r2, [r3, #5]
 8005616:	687b      	ldr	r3, [r7, #4]
 8005618:	2243      	movs	r2, #67	; 0x43
 800561a:	801a      	strh	r2, [r3, #0]
 800561c:	4b02      	ldr	r3, [pc, #8]	; (8005628 <USBD_CDC_GetOtherSpeedCfgDesc+0x6c>)
 800561e:	4618      	mov	r0, r3
 8005620:	3718      	adds	r7, #24
 8005622:	46bd      	mov	sp, r7
 8005624:	bd80      	pop	{r7, pc}
 8005626:	bf00      	nop
 8005628:	20000098 	.word	0x20000098

0800562c <USBD_CDC_GetDeviceQualifierDescriptor>:
 800562c:	b480      	push	{r7}
 800562e:	b083      	sub	sp, #12
 8005630:	af00      	add	r7, sp, #0
 8005632:	6078      	str	r0, [r7, #4]
 8005634:	687b      	ldr	r3, [r7, #4]
 8005636:	220a      	movs	r2, #10
 8005638:	801a      	strh	r2, [r3, #0]
 800563a:	4b03      	ldr	r3, [pc, #12]	; (8005648 <USBD_CDC_GetDeviceQualifierDescriptor+0x1c>)
 800563c:	4618      	mov	r0, r3
 800563e:	370c      	adds	r7, #12
 8005640:	46bd      	mov	sp, r7
 8005642:	f85d 7b04 	ldr.w	r7, [sp], #4
 8005646:	4770      	bx	lr
 8005648:	20000054 	.word	0x20000054

0800564c <USBD_CDC_RegisterInterface>:
 800564c:	b480      	push	{r7}
 800564e:	b083      	sub	sp, #12
 8005650:	af00      	add	r7, sp, #0
 8005652:	6078      	str	r0, [r7, #4]
 8005654:	6039      	str	r1, [r7, #0]
 8005656:	683b      	ldr	r3, [r7, #0]
 8005658:	2b00      	cmp	r3, #0
 800565a:	d101      	bne.n	8005660 <USBD_CDC_RegisterInterface+0x14>
 800565c:	2303      	movs	r3, #3
 800565e:	e009      	b.n	8005674 <USBD_CDC_RegisterInterface+0x28>
 8005660:	687b      	ldr	r3, [r7, #4]
 8005662:	f8d3 32d4 	ldr.w	r3, [r3, #724]	; 0x2d4
 8005666:	687a      	ldr	r2, [r7, #4]
 8005668:	33b0      	adds	r3, #176	; 0xb0
 800566a:	009b      	lsls	r3, r3, #2
 800566c:	4413      	add	r3, r2
 800566e:	683a      	ldr	r2, [r7, #0]
 8005670:	605a      	str	r2, [r3, #4]
 8005672:	2300      	movs	r3, #0
 8005674:	4618      	mov	r0, r3
 8005676:	370c      	adds	r7, #12
 8005678:	46bd      	mov	sp, r7
 800567a:	f85d 7b04 	ldr.w	r7, [sp], #4
 800567e:	4770      	bx	lr

08005680 <USBD_CDC_SetTxBuffer>:
 8005680:	b480      	push	{r7}
 8005682:	b087      	sub	sp, #28
 8005684:	af00      	add	r7, sp, #0
 8005686:	60f8      	str	r0, [r7, #12]
 8005688:	60b9      	str	r1, [r7, #8]
 800568a:	607a      	str	r2, [r7, #4]
 800568c:	68fb      	ldr	r3, [r7, #12]
 800568e:	f8d3 22d4 	ldr.w	r2, [r3, #724]	; 0x2d4
 8005692:	68fb      	ldr	r3, [r7, #12]
 8005694:	32b0      	adds	r2, #176	; 0xb0
 8005696:	f853 3022 	ldr.w	r3, [r3, r2, lsl #2]
 800569a:	617b      	str	r3, [r7, #20]
 800569c:	697b      	ldr	r3, [r7, #20]
 800569e:	2b00      	cmp	r3, #0
 80056a0:	d101      	bne.n	80056a6 <USBD_CDC_SetTxBuffer+0x26>
 80056a2:	2303      	movs	r3, #3
 80056a4:	e008      	b.n	80056b8 <USBD_CDC_SetTxBuffer+0x38>
 80056a6:	697b      	ldr	r3, [r7, #20]
 80056a8:	68ba      	ldr	r2, [r7, #8]
 80056aa:	f8c3 2208 	str.w	r2, [r3, #520]	; 0x208
 80056ae:	697b      	ldr	r3, [r7, #20]
 80056b0:	687a      	ldr	r2, [r7, #4]
 80056b2:	f8c3 2210 	str.w	r2, [r3, #528]	; 0x210
 80056b6:	2300      	movs	r3, #0
 80056b8:	4618      	mov	r0, r3
 80056ba:	371c      	adds	r7, #28
 80056bc:	46bd      	mov	sp, r7
 80056be:	f85d 7b04 	ldr.w	r7, [sp], #4
 80056c2:	4770      	bx	lr

080056c4 <USBD_CDC_SetRxBuffer>:
 80056c4:	b480      	push	{r7}
 80056c6:	b085      	sub	sp, #20
 80056c8:	af00      	add	r7, sp, #0
 80056ca:	6078      	str	r0, [r7, #4]
 80056cc:	6039      	str	r1, [r7, #0]
 80056ce:	687b      	ldr	r3, [r7, #4]
 80056d0:	f8d3 22d4 	ldr.w	r2, [r3, #724]	; 0x2d4
 80056d4:	687b      	ldr	r3, [r7, #4]
 80056d6:	32b0      	adds	r2, #176	; 0xb0
 80056d8:	f853 3022 	ldr.w	r3, [r3, r2, lsl #2]
 80056dc:	60fb      	str	r3, [r7, #12]
 80056de:	68fb      	ldr	r3, [r7, #12]
 80056e0:	2b00      	cmp	r3, #0
 80056e2:	d101      	bne.n	80056e8 <USBD_CDC_SetRxBuffer+0x24>
 80056e4:	2303      	movs	r3, #3
 80056e6:	e004      	b.n	80056f2 <USBD_CDC_SetRxBuffer+0x2e>
 80056e8:	68fb      	ldr	r3, [r7, #12]
 80056ea:	683a      	ldr	r2, [r7, #0]
 80056ec:	f8c3 2204 	str.w	r2, [r3, #516]	; 0x204
 80056f0:	2300      	movs	r3, #0
 80056f2:	4618      	mov	r0, r3
 80056f4:	3714      	adds	r7, #20
 80056f6:	46bd      	mov	sp, r7
 80056f8:	f85d 7b04 	ldr.w	r7, [sp], #4
 80056fc:	4770      	bx	lr
	...

08005700 <USBD_CDC_TransmitPacket>:
 8005700:	b580      	push	{r7, lr}
 8005702:	b084      	sub	sp, #16
 8005704:	af00      	add	r7, sp, #0
 8005706:	6078      	str	r0, [r7, #4]
 8005708:	687b      	ldr	r3, [r7, #4]
 800570a:	f8d3 22d4 	ldr.w	r2, [r3, #724]	; 0x2d4
 800570e:	687b      	ldr	r3, [r7, #4]
 8005710:	32b0      	adds	r2, #176	; 0xb0
 8005712:	f853 3022 	ldr.w	r3, [r3, r2, lsl #2]
 8005716:	60bb      	str	r3, [r7, #8]
 8005718:	2301      	movs	r3, #1
 800571a:	73fb      	strb	r3, [r7, #15]
 800571c:	687b      	ldr	r3, [r7, #4]
 800571e:	f8d3 22d4 	ldr.w	r2, [r3, #724]	; 0x2d4
 8005722:	687b      	ldr	r3, [r7, #4]
 8005724:	32b0      	adds	r2, #176	; 0xb0
 8005726:	f853 3022 	ldr.w	r3, [r3, r2, lsl #2]
 800572a:	2b00      	cmp	r3, #0
 800572c:	d101      	bne.n	8005732 <USBD_CDC_TransmitPacket+0x32>
 800572e:	2303      	movs	r3, #3
 8005730:	e025      	b.n	800577e <USBD_CDC_TransmitPacket+0x7e>
 8005732:	68bb      	ldr	r3, [r7, #8]
 8005734:	f8d3 3214 	ldr.w	r3, [r3, #532]	; 0x214
 8005738:	2b00      	cmp	r3, #0
 800573a:	d11f      	bne.n	800577c <USBD_CDC_TransmitPacket+0x7c>
 800573c:	68bb      	ldr	r3, [r7, #8]
 800573e:	2201      	movs	r2, #1
 8005740:	f8c3 2214 	str.w	r2, [r3, #532]	; 0x214
 8005744:	4b10      	ldr	r3, [pc, #64]	; (8005788 <USBD_CDC_TransmitPacket+0x88>)
 8005746:	781b      	ldrb	r3, [r3, #0]
 8005748:	f003 020f 	and.w	r2, r3, #15
 800574c:	68bb      	ldr	r3, [r7, #8]
 800574e:	f8d3 1210 	ldr.w	r1, [r3, #528]	; 0x210
 8005752:	6878      	ldr	r0, [r7, #4]
 8005754:	4613      	mov	r3, r2
 8005756:	009b      	lsls	r3, r3, #2
 8005758:	4413      	add	r3, r2
 800575a:	009b      	lsls	r3, r3, #2
 800575c:	4403      	add	r3, r0
 800575e:	3318      	adds	r3, #24
 8005760:	6019      	str	r1, [r3, #0]
 8005762:	4b09      	ldr	r3, [pc, #36]	; (8005788 <USBD_CDC_TransmitPacket+0x88>)
 8005764:	7819      	ldrb	r1, [r3, #0]
 8005766:	68bb      	ldr	r3, [r7, #8]
 8005768:	f8d3 2208 	ldr.w	r2, [r3, #520]	; 0x208
 800576c:	68bb      	ldr	r3, [r7, #8]
 800576e:	f8d3 3210 	ldr.w	r3, [r3, #528]	; 0x210
 8005772:	6878      	ldr	r0, [r7, #4]
 8005774:	f001 ffb3 	bl	80076de <USBD_LL_Transmit>
 8005778:	2300      	movs	r3, #0
 800577a:	73fb      	strb	r3, [r7, #15]
 800577c:	7bfb      	ldrb	r3, [r7, #15]
 800577e:	4618      	mov	r0, r3
 8005780:	3710      	adds	r7, #16
 8005782:	46bd      	mov	sp, r7
 8005784:	bd80      	pop	{r7, pc}
 8005786:	bf00      	nop
 8005788:	200000db 	.word	0x200000db

0800578c <USBD_CDC_ReceivePacket>:
 800578c:	b580      	push	{r7, lr}
 800578e:	b084      	sub	sp, #16
 8005790:	af00      	add	r7, sp, #0
 8005792:	6078      	str	r0, [r7, #4]
 8005794:	687b      	ldr	r3, [r7, #4]
 8005796:	f8d3 22d4 	ldr.w	r2, [r3, #724]	; 0x2d4
 800579a:	687b      	ldr	r3, [r7, #4]
 800579c:	32b0      	adds	r2, #176	; 0xb0
 800579e:	f853 3022 	ldr.w	r3, [r3, r2, lsl #2]
 80057a2:	60fb      	str	r3, [r7, #12]
 80057a4:	687b      	ldr	r3, [r7, #4]
 80057a6:	f8d3 22d4 	ldr.w	r2, [r3, #724]	; 0x2d4
 80057aa:	687b      	ldr	r3, [r7, #4]
 80057ac:	32b0      	adds	r2, #176	; 0xb0
 80057ae:	f853 3022 	ldr.w	r3, [r3, r2, lsl #2]
 80057b2:	2b00      	cmp	r3, #0
 80057b4:	d101      	bne.n	80057ba <USBD_CDC_ReceivePacket+0x2e>
 80057b6:	2303      	movs	r3, #3
 80057b8:	e018      	b.n	80057ec <USBD_CDC_ReceivePacket+0x60>
 80057ba:	687b      	ldr	r3, [r7, #4]
 80057bc:	7c1b      	ldrb	r3, [r3, #16]
 80057be:	2b00      	cmp	r3, #0
 80057c0:	d10a      	bne.n	80057d8 <USBD_CDC_ReceivePacket+0x4c>
 80057c2:	4b0c      	ldr	r3, [pc, #48]	; (80057f4 <USBD_CDC_ReceivePacket+0x68>)
 80057c4:	7819      	ldrb	r1, [r3, #0]
 80057c6:	68fb      	ldr	r3, [r7, #12]
 80057c8:	f8d3 2204 	ldr.w	r2, [r3, #516]	; 0x204
 80057cc:	f44f 7300 	mov.w	r3, #512	; 0x200
 80057d0:	6878      	ldr	r0, [r7, #4]
 80057d2:	f001 ffa5 	bl	8007720 <USBD_LL_PrepareReceive>
 80057d6:	e008      	b.n	80057ea <USBD_CDC_ReceivePacket+0x5e>
 80057d8:	4b06      	ldr	r3, [pc, #24]	; (80057f4 <USBD_CDC_ReceivePacket+0x68>)
 80057da:	7819      	ldrb	r1, [r3, #0]
 80057dc:	68fb      	ldr	r3, [r7, #12]
 80057de:	f8d3 2204 	ldr.w	r2, [r3, #516]	; 0x204
 80057e2:	2340      	movs	r3, #64	; 0x40
 80057e4:	6878      	ldr	r0, [r7, #4]
 80057e6:	f001 ff9b 	bl	8007720 <USBD_LL_PrepareReceive>
 80057ea:	2300      	movs	r3, #0
 80057ec:	4618      	mov	r0, r3
 80057ee:	3710      	adds	r7, #16
 80057f0:	46bd      	mov	sp, r7
 80057f2:	bd80      	pop	{r7, pc}
 80057f4:	200000dc 	.word	0x200000dc

080057f8 <USBD_Init>:
 80057f8:	b580      	push	{r7, lr}
 80057fa:	b086      	sub	sp, #24
 80057fc:	af00      	add	r7, sp, #0
 80057fe:	60f8      	str	r0, [r7, #12]
 8005800:	60b9      	str	r1, [r7, #8]
 8005802:	4613      	mov	r3, r2
 8005804:	71fb      	strb	r3, [r7, #7]
 8005806:	68fb      	ldr	r3, [r7, #12]
 8005808:	2b00      	cmp	r3, #0
 800580a:	d101      	bne.n	8005810 <USBD_Init+0x18>
 800580c:	2303      	movs	r3, #3
 800580e:	e01f      	b.n	8005850 <USBD_Init+0x58>
 8005810:	68fb      	ldr	r3, [r7, #12]
 8005812:	2200      	movs	r2, #0
 8005814:	f8c3 22b8 	str.w	r2, [r3, #696]	; 0x2b8
 8005818:	68fb      	ldr	r3, [r7, #12]
 800581a:	2200      	movs	r2, #0
 800581c:	f8c3 22c4 	str.w	r2, [r3, #708]	; 0x2c4
 8005820:	68fb      	ldr	r3, [r7, #12]
 8005822:	2200      	movs	r2, #0
 8005824:	f8c3 22d0 	str.w	r2, [r3, #720]	; 0x2d0
 8005828:	68bb      	ldr	r3, [r7, #8]
 800582a:	2b00      	cmp	r3, #0
 800582c:	d003      	beq.n	8005836 <USBD_Init+0x3e>
 800582e:	68fb      	ldr	r3, [r7, #12]
 8005830:	68ba      	ldr	r2, [r7, #8]
 8005832:	f8c3 22b4 	str.w	r2, [r3, #692]	; 0x2b4
 8005836:	68fb      	ldr	r3, [r7, #12]
 8005838:	2201      	movs	r2, #1
 800583a:	f883 229c 	strb.w	r2, [r3, #668]	; 0x29c
 800583e:	68fb      	ldr	r3, [r7, #12]
 8005840:	79fa      	ldrb	r2, [r7, #7]
 8005842:	701a      	strb	r2, [r3, #0]
 8005844:	68f8      	ldr	r0, [r7, #12]
 8005846:	f001 fe15 	bl	8007474 <USBD_LL_Init>
 800584a:	4603      	mov	r3, r0
 800584c:	75fb      	strb	r3, [r7, #23]
 800584e:	7dfb      	ldrb	r3, [r7, #23]
 8005850:	4618      	mov	r0, r3
 8005852:	3718      	adds	r7, #24
 8005854:	46bd      	mov	sp, r7
 8005856:	bd80      	pop	{r7, pc}

08005858 <USBD_RegisterClass>:
 8005858:	b580      	push	{r7, lr}
 800585a:	b084      	sub	sp, #16
 800585c:	af00      	add	r7, sp, #0
 800585e:	6078      	str	r0, [r7, #4]
 8005860:	6039      	str	r1, [r7, #0]
 8005862:	2300      	movs	r3, #0
 8005864:	81fb      	strh	r3, [r7, #14]
 8005866:	683b      	ldr	r3, [r7, #0]
 8005868:	2b00      	cmp	r3, #0
 800586a:	d101      	bne.n	8005870 <USBD_RegisterClass+0x18>
 800586c:	2303      	movs	r3, #3
 800586e:	e025      	b.n	80058bc <USBD_RegisterClass+0x64>
 8005870:	687b      	ldr	r3, [r7, #4]
 8005872:	683a      	ldr	r2, [r7, #0]
 8005874:	f8c3 22b8 	str.w	r2, [r3, #696]	; 0x2b8
 8005878:	687b      	ldr	r3, [r7, #4]
 800587a:	f8d3 22d4 	ldr.w	r2, [r3, #724]	; 0x2d4
 800587e:	687b      	ldr	r3, [r7, #4]
 8005880:	32ae      	adds	r2, #174	; 0xae
 8005882:	f853 3022 	ldr.w	r3, [r3, r2, lsl #2]
 8005886:	6adb      	ldr	r3, [r3, #44]	; 0x2c
 8005888:	2b00      	cmp	r3, #0
 800588a:	d00f      	beq.n	80058ac <USBD_RegisterClass+0x54>
 800588c:	687b      	ldr	r3, [r7, #4]
 800588e:	f8d3 22d4 	ldr.w	r2, [r3, #724]	; 0x2d4
 8005892:	687b      	ldr	r3, [r7, #4]
 8005894:	32ae      	adds	r2, #174	; 0xae
 8005896:	f853 3022 	ldr.w	r3, [r3, r2, lsl #2]
 800589a:	6adb      	ldr	r3, [r3, #44]	; 0x2c
 800589c:	f107 020e 	add.w	r2, r7, #14
 80058a0:	4610      	mov	r0, r2
 80058a2:	4798      	blx	r3
 80058a4:	4602      	mov	r2, r0
 80058a6:	687b      	ldr	r3, [r7, #4]
 80058a8:	f8c3 22d0 	str.w	r2, [r3, #720]	; 0x2d0
 80058ac:	687b      	ldr	r3, [r7, #4]
 80058ae:	f8d3 32d8 	ldr.w	r3, [r3, #728]	; 0x2d8
 80058b2:	1c5a      	adds	r2, r3, #1
 80058b4:	687b      	ldr	r3, [r7, #4]
 80058b6:	f8c3 22d8 	str.w	r2, [r3, #728]	; 0x2d8
 80058ba:	2300      	movs	r3, #0
 80058bc:	4618      	mov	r0, r3
 80058be:	3710      	adds	r7, #16
 80058c0:	46bd      	mov	sp, r7
 80058c2:	bd80      	pop	{r7, pc}

080058c4 <USBD_Start>:
 80058c4:	b580      	push	{r7, lr}
 80058c6:	b082      	sub	sp, #8
 80058c8:	af00      	add	r7, sp, #0
 80058ca:	6078      	str	r0, [r7, #4]
 80058cc:	6878      	ldr	r0, [r7, #4]
 80058ce:	f001 fe1d 	bl	800750c <USBD_LL_Start>
 80058d2:	4603      	mov	r3, r0
 80058d4:	4618      	mov	r0, r3
 80058d6:	3708      	adds	r7, #8
 80058d8:	46bd      	mov	sp, r7
 80058da:	bd80      	pop	{r7, pc}

080058dc <USBD_RunTestMode>:
 80058dc:	b480      	push	{r7}
 80058de:	b083      	sub	sp, #12
 80058e0:	af00      	add	r7, sp, #0
 80058e2:	6078      	str	r0, [r7, #4]
 80058e4:	2300      	movs	r3, #0
 80058e6:	4618      	mov	r0, r3
 80058e8:	370c      	adds	r7, #12
 80058ea:	46bd      	mov	sp, r7
 80058ec:	f85d 7b04 	ldr.w	r7, [sp], #4
 80058f0:	4770      	bx	lr

080058f2 <USBD_SetClassConfig>:
 80058f2:	b580      	push	{r7, lr}
 80058f4:	b084      	sub	sp, #16
 80058f6:	af00      	add	r7, sp, #0
 80058f8:	6078      	str	r0, [r7, #4]
 80058fa:	460b      	mov	r3, r1
 80058fc:	70fb      	strb	r3, [r7, #3]
 80058fe:	2300      	movs	r3, #0
 8005900:	73fb      	strb	r3, [r7, #15]
 8005902:	687b      	ldr	r3, [r7, #4]
 8005904:	f8d3 32b8 	ldr.w	r3, [r3, #696]	; 0x2b8
 8005908:	2b00      	cmp	r3, #0
 800590a:	d009      	beq.n	8005920 <USBD_SetClassConfig+0x2e>
 800590c:	687b      	ldr	r3, [r7, #4]
 800590e:	f8d3 32b8 	ldr.w	r3, [r3, #696]	; 0x2b8
 8005912:	681b      	ldr	r3, [r3, #0]
 8005914:	78fa      	ldrb	r2, [r7, #3]
 8005916:	4611      	mov	r1, r2
 8005918:	6878      	ldr	r0, [r7, #4]
 800591a:	4798      	blx	r3
 800591c:	4603      	mov	r3, r0
 800591e:	73fb      	strb	r3, [r7, #15]
 8005920:	7bfb      	ldrb	r3, [r7, #15]
 8005922:	4618      	mov	r0, r3
 8005924:	3710      	adds	r7, #16
 8005926:	46bd      	mov	sp, r7
 8005928:	bd80      	pop	{r7, pc}

0800592a <USBD_ClrClassConfig>:
 800592a:	b580      	push	{r7, lr}
 800592c:	b084      	sub	sp, #16
 800592e:	af00      	add	r7, sp, #0
 8005930:	6078      	str	r0, [r7, #4]
 8005932:	460b      	mov	r3, r1
 8005934:	70fb      	strb	r3, [r7, #3]
 8005936:	2300      	movs	r3, #0
 8005938:	73fb      	strb	r3, [r7, #15]
 800593a:	687b      	ldr	r3, [r7, #4]
 800593c:	f8d3 32b8 	ldr.w	r3, [r3, #696]	; 0x2b8
 8005940:	685b      	ldr	r3, [r3, #4]
 8005942:	78fa      	ldrb	r2, [r7, #3]
 8005944:	4611      	mov	r1, r2
 8005946:	6878      	ldr	r0, [r7, #4]
 8005948:	4798      	blx	r3
 800594a:	4603      	mov	r3, r0
 800594c:	2b00      	cmp	r3, #0
 800594e:	d001      	beq.n	8005954 <USBD_ClrClassConfig+0x2a>
 8005950:	2303      	movs	r3, #3
 8005952:	73fb      	strb	r3, [r7, #15]
 8005954:	7bfb      	ldrb	r3, [r7, #15]
 8005956:	4618      	mov	r0, r3
 8005958:	3710      	adds	r7, #16
 800595a:	46bd      	mov	sp, r7
 800595c:	bd80      	pop	{r7, pc}

0800595e <USBD_LL_SetupStage>:
 800595e:	b580      	push	{r7, lr}
 8005960:	b084      	sub	sp, #16
 8005962:	af00      	add	r7, sp, #0
 8005964:	6078      	str	r0, [r7, #4]
 8005966:	6039      	str	r1, [r7, #0]
 8005968:	687b      	ldr	r3, [r7, #4]
 800596a:	f203 23aa 	addw	r3, r3, #682	; 0x2aa
 800596e:	6839      	ldr	r1, [r7, #0]
 8005970:	4618      	mov	r0, r3
 8005972:	f001 f908 	bl	8006b86 <USBD_ParseSetupRequest>
 8005976:	687b      	ldr	r3, [r7, #4]
 8005978:	2201      	movs	r2, #1
 800597a:	f8c3 2294 	str.w	r2, [r3, #660]	; 0x294
 800597e:	687b      	ldr	r3, [r7, #4]
 8005980:	f8b3 32b0 	ldrh.w	r3, [r3, #688]	; 0x2b0
 8005984:	461a      	mov	r2, r3
 8005986:	687b      	ldr	r3, [r7, #4]
 8005988:	f8c3 2298 	str.w	r2, [r3, #664]	; 0x298
 800598c:	687b      	ldr	r3, [r7, #4]
 800598e:	f893 32aa 	ldrb.w	r3, [r3, #682]	; 0x2aa
 8005992:	f003 031f 	and.w	r3, r3, #31
 8005996:	2b02      	cmp	r3, #2
 8005998:	d01a      	beq.n	80059d0 <USBD_LL_SetupStage+0x72>
 800599a:	2b02      	cmp	r3, #2
 800599c:	d822      	bhi.n	80059e4 <USBD_LL_SetupStage+0x86>
 800599e:	2b00      	cmp	r3, #0
 80059a0:	d002      	beq.n	80059a8 <USBD_LL_SetupStage+0x4a>
 80059a2:	2b01      	cmp	r3, #1
 80059a4:	d00a      	beq.n	80059bc <USBD_LL_SetupStage+0x5e>
 80059a6:	e01d      	b.n	80059e4 <USBD_LL_SetupStage+0x86>
 80059a8:	687b      	ldr	r3, [r7, #4]
 80059aa:	f203 23aa 	addw	r3, r3, #682	; 0x2aa
 80059ae:	4619      	mov	r1, r3
 80059b0:	6878      	ldr	r0, [r7, #4]
 80059b2:	f000 fb5f 	bl	8006074 <USBD_StdDevReq>
 80059b6:	4603      	mov	r3, r0
 80059b8:	73fb      	strb	r3, [r7, #15]
 80059ba:	e020      	b.n	80059fe <USBD_LL_SetupStage+0xa0>
 80059bc:	687b      	ldr	r3, [r7, #4]
 80059be:	f203 23aa 	addw	r3, r3, #682	; 0x2aa
 80059c2:	4619      	mov	r1, r3
 80059c4:	6878      	ldr	r0, [r7, #4]
 80059c6:	f000 fbc7 	bl	8006158 <USBD_StdItfReq>
 80059ca:	4603      	mov	r3, r0
 80059cc:	73fb      	strb	r3, [r7, #15]
 80059ce:	e016      	b.n	80059fe <USBD_LL_SetupStage+0xa0>
 80059d0:	687b      	ldr	r3, [r7, #4]
 80059d2:	f203 23aa 	addw	r3, r3, #682	; 0x2aa
 80059d6:	4619      	mov	r1, r3
 80059d8:	6878      	ldr	r0, [r7, #4]
 80059da:	f000 fc29 	bl	8006230 <USBD_StdEPReq>
 80059de:	4603      	mov	r3, r0
 80059e0:	73fb      	strb	r3, [r7, #15]
 80059e2:	e00c      	b.n	80059fe <USBD_LL_SetupStage+0xa0>
 80059e4:	687b      	ldr	r3, [r7, #4]
 80059e6:	f893 32aa 	ldrb.w	r3, [r3, #682]	; 0x2aa
 80059ea:	f023 037f 	bic.w	r3, r3, #127	; 0x7f
 80059ee:	b2db      	uxtb	r3, r3
 80059f0:	4619      	mov	r1, r3
 80059f2:	6878      	ldr	r0, [r7, #4]
 80059f4:	f001 fdea 	bl	80075cc <USBD_LL_StallEP>
 80059f8:	4603      	mov	r3, r0
 80059fa:	73fb      	strb	r3, [r7, #15]
 80059fc:	bf00      	nop
 80059fe:	7bfb      	ldrb	r3, [r7, #15]
 8005a00:	4618      	mov	r0, r3
 8005a02:	3710      	adds	r7, #16
 8005a04:	46bd      	mov	sp, r7
 8005a06:	bd80      	pop	{r7, pc}

08005a08 <USBD_LL_DataOutStage>:
 8005a08:	b580      	push	{r7, lr}
 8005a0a:	b086      	sub	sp, #24
 8005a0c:	af00      	add	r7, sp, #0
 8005a0e:	60f8      	str	r0, [r7, #12]
 8005a10:	460b      	mov	r3, r1
 8005a12:	607a      	str	r2, [r7, #4]
 8005a14:	72fb      	strb	r3, [r7, #11]
 8005a16:	2300      	movs	r3, #0
 8005a18:	75fb      	strb	r3, [r7, #23]
 8005a1a:	7afb      	ldrb	r3, [r7, #11]
 8005a1c:	2b00      	cmp	r3, #0
 8005a1e:	d16e      	bne.n	8005afe <USBD_LL_DataOutStage+0xf6>
 8005a20:	68fb      	ldr	r3, [r7, #12]
 8005a22:	f503 73aa 	add.w	r3, r3, #340	; 0x154
 8005a26:	613b      	str	r3, [r7, #16]
 8005a28:	68fb      	ldr	r3, [r7, #12]
 8005a2a:	f8d3 3294 	ldr.w	r3, [r3, #660]	; 0x294
 8005a2e:	2b03      	cmp	r3, #3
 8005a30:	f040 8098 	bne.w	8005b64 <USBD_LL_DataOutStage+0x15c>
 8005a34:	693b      	ldr	r3, [r7, #16]
 8005a36:	689a      	ldr	r2, [r3, #8]
 8005a38:	693b      	ldr	r3, [r7, #16]
 8005a3a:	68db      	ldr	r3, [r3, #12]
 8005a3c:	429a      	cmp	r2, r3
 8005a3e:	d913      	bls.n	8005a68 <USBD_LL_DataOutStage+0x60>
 8005a40:	693b      	ldr	r3, [r7, #16]
 8005a42:	689a      	ldr	r2, [r3, #8]
 8005a44:	693b      	ldr	r3, [r7, #16]
 8005a46:	68db      	ldr	r3, [r3, #12]
 8005a48:	1ad2      	subs	r2, r2, r3
 8005a4a:	693b      	ldr	r3, [r7, #16]
 8005a4c:	609a      	str	r2, [r3, #8]
 8005a4e:	693b      	ldr	r3, [r7, #16]
 8005a50:	68da      	ldr	r2, [r3, #12]
 8005a52:	693b      	ldr	r3, [r7, #16]
 8005a54:	689b      	ldr	r3, [r3, #8]
 8005a56:	4293      	cmp	r3, r2
 8005a58:	bf28      	it	cs
 8005a5a:	4613      	movcs	r3, r2
 8005a5c:	461a      	mov	r2, r3
 8005a5e:	6879      	ldr	r1, [r7, #4]
 8005a60:	68f8      	ldr	r0, [r7, #12]
 8005a62:	f001 f984 	bl	8006d6e <USBD_CtlContinueRx>
 8005a66:	e07d      	b.n	8005b64 <USBD_LL_DataOutStage+0x15c>
 8005a68:	68fb      	ldr	r3, [r7, #12]
 8005a6a:	f893 32aa 	ldrb.w	r3, [r3, #682]	; 0x2aa
 8005a6e:	f003 031f 	and.w	r3, r3, #31
 8005a72:	2b02      	cmp	r3, #2
 8005a74:	d014      	beq.n	8005aa0 <USBD_LL_DataOutStage+0x98>
 8005a76:	2b02      	cmp	r3, #2
 8005a78:	d81d      	bhi.n	8005ab6 <USBD_LL_DataOutStage+0xae>
 8005a7a:	2b00      	cmp	r3, #0
 8005a7c:	d002      	beq.n	8005a84 <USBD_LL_DataOutStage+0x7c>
 8005a7e:	2b01      	cmp	r3, #1
 8005a80:	d003      	beq.n	8005a8a <USBD_LL_DataOutStage+0x82>
 8005a82:	e018      	b.n	8005ab6 <USBD_LL_DataOutStage+0xae>
 8005a84:	2300      	movs	r3, #0
 8005a86:	75bb      	strb	r3, [r7, #22]
 8005a88:	e018      	b.n	8005abc <USBD_LL_DataOutStage+0xb4>
 8005a8a:	68fb      	ldr	r3, [r7, #12]
 8005a8c:	f8b3 32ae 	ldrh.w	r3, [r3, #686]	; 0x2ae
 8005a90:	b2db      	uxtb	r3, r3
 8005a92:	4619      	mov	r1, r3
 8005a94:	68f8      	ldr	r0, [r7, #12]
 8005a96:	f000 fa5e 	bl	8005f56 <USBD_CoreFindIF>
 8005a9a:	4603      	mov	r3, r0
 8005a9c:	75bb      	strb	r3, [r7, #22]
 8005a9e:	e00d      	b.n	8005abc <USBD_LL_DataOutStage+0xb4>
 8005aa0:	68fb      	ldr	r3, [r7, #12]
 8005aa2:	f8b3 32ae 	ldrh.w	r3, [r3, #686]	; 0x2ae
 8005aa6:	b2db      	uxtb	r3, r3
 8005aa8:	4619      	mov	r1, r3
 8005aaa:	68f8      	ldr	r0, [r7, #12]
 8005aac:	f000 fa60 	bl	8005f70 <USBD_CoreFindEP>
 8005ab0:	4603      	mov	r3, r0
 8005ab2:	75bb      	strb	r3, [r7, #22]
 8005ab4:	e002      	b.n	8005abc <USBD_LL_DataOutStage+0xb4>
 8005ab6:	2300      	movs	r3, #0
 8005ab8:	75bb      	strb	r3, [r7, #22]
 8005aba:	bf00      	nop
 8005abc:	7dbb      	ldrb	r3, [r7, #22]
 8005abe:	2b00      	cmp	r3, #0
 8005ac0:	d119      	bne.n	8005af6 <USBD_LL_DataOutStage+0xee>
 8005ac2:	68fb      	ldr	r3, [r7, #12]
 8005ac4:	f893 329c 	ldrb.w	r3, [r3, #668]	; 0x29c
 8005ac8:	b2db      	uxtb	r3, r3
 8005aca:	2b03      	cmp	r3, #3
 8005acc:	d113      	bne.n	8005af6 <USBD_LL_DataOutStage+0xee>
 8005ace:	7dba      	ldrb	r2, [r7, #22]
 8005ad0:	68fb      	ldr	r3, [r7, #12]
 8005ad2:	32ae      	adds	r2, #174	; 0xae
 8005ad4:	f853 3022 	ldr.w	r3, [r3, r2, lsl #2]
 8005ad8:	691b      	ldr	r3, [r3, #16]
 8005ada:	2b00      	cmp	r3, #0
 8005adc:	d00b      	beq.n	8005af6 <USBD_LL_DataOutStage+0xee>
 8005ade:	7dba      	ldrb	r2, [r7, #22]
 8005ae0:	68fb      	ldr	r3, [r7, #12]
 8005ae2:	f8c3 22d4 	str.w	r2, [r3, #724]	; 0x2d4
 8005ae6:	7dba      	ldrb	r2, [r7, #22]
 8005ae8:	68fb      	ldr	r3, [r7, #12]
 8005aea:	32ae      	adds	r2, #174	; 0xae
 8005aec:	f853 3022 	ldr.w	r3, [r3, r2, lsl #2]
 8005af0:	691b      	ldr	r3, [r3, #16]
 8005af2:	68f8      	ldr	r0, [r7, #12]
 8005af4:	4798      	blx	r3
 8005af6:	68f8      	ldr	r0, [r7, #12]
 8005af8:	f001 f94a 	bl	8006d90 <USBD_CtlSendStatus>
 8005afc:	e032      	b.n	8005b64 <USBD_LL_DataOutStage+0x15c>
 8005afe:	7afb      	ldrb	r3, [r7, #11]
 8005b00:	f003 037f 	and.w	r3, r3, #127	; 0x7f
 8005b04:	b2db      	uxtb	r3, r3
 8005b06:	4619      	mov	r1, r3
 8005b08:	68f8      	ldr	r0, [r7, #12]
 8005b0a:	f000 fa31 	bl	8005f70 <USBD_CoreFindEP>
 8005b0e:	4603      	mov	r3, r0
 8005b10:	75bb      	strb	r3, [r7, #22]
 8005b12:	7dbb      	ldrb	r3, [r7, #22]
 8005b14:	2bff      	cmp	r3, #255	; 0xff
 8005b16:	d025      	beq.n	8005b64 <USBD_LL_DataOutStage+0x15c>
 8005b18:	7dbb      	ldrb	r3, [r7, #22]
 8005b1a:	2b00      	cmp	r3, #0
 8005b1c:	d122      	bne.n	8005b64 <USBD_LL_DataOutStage+0x15c>
 8005b1e:	68fb      	ldr	r3, [r7, #12]
 8005b20:	f893 329c 	ldrb.w	r3, [r3, #668]	; 0x29c
 8005b24:	b2db      	uxtb	r3, r3
 8005b26:	2b03      	cmp	r3, #3
 8005b28:	d117      	bne.n	8005b5a <USBD_LL_DataOutStage+0x152>
 8005b2a:	7dba      	ldrb	r2, [r7, #22]
 8005b2c:	68fb      	ldr	r3, [r7, #12]
 8005b2e:	32ae      	adds	r2, #174	; 0xae
 8005b30:	f853 3022 	ldr.w	r3, [r3, r2, lsl #2]
 8005b34:	699b      	ldr	r3, [r3, #24]
 8005b36:	2b00      	cmp	r3, #0
 8005b38:	d00f      	beq.n	8005b5a <USBD_LL_DataOutStage+0x152>
 8005b3a:	7dba      	ldrb	r2, [r7, #22]
 8005b3c:	68fb      	ldr	r3, [r7, #12]
 8005b3e:	f8c3 22d4 	str.w	r2, [r3, #724]	; 0x2d4
 8005b42:	7dba      	ldrb	r2, [r7, #22]
 8005b44:	68fb      	ldr	r3, [r7, #12]
 8005b46:	32ae      	adds	r2, #174	; 0xae
 8005b48:	f853 3022 	ldr.w	r3, [r3, r2, lsl #2]
 8005b4c:	699b      	ldr	r3, [r3, #24]
 8005b4e:	7afa      	ldrb	r2, [r7, #11]
 8005b50:	4611      	mov	r1, r2
 8005b52:	68f8      	ldr	r0, [r7, #12]
 8005b54:	4798      	blx	r3
 8005b56:	4603      	mov	r3, r0
 8005b58:	75fb      	strb	r3, [r7, #23]
 8005b5a:	7dfb      	ldrb	r3, [r7, #23]
 8005b5c:	2b00      	cmp	r3, #0
 8005b5e:	d001      	beq.n	8005b64 <USBD_LL_DataOutStage+0x15c>
 8005b60:	7dfb      	ldrb	r3, [r7, #23]
 8005b62:	e000      	b.n	8005b66 <USBD_LL_DataOutStage+0x15e>
 8005b64:	2300      	movs	r3, #0
 8005b66:	4618      	mov	r0, r3
 8005b68:	3718      	adds	r7, #24
 8005b6a:	46bd      	mov	sp, r7
 8005b6c:	bd80      	pop	{r7, pc}

08005b6e <USBD_LL_DataInStage>:
 8005b6e:	b580      	push	{r7, lr}
 8005b70:	b086      	sub	sp, #24
 8005b72:	af00      	add	r7, sp, #0
 8005b74:	60f8      	str	r0, [r7, #12]
 8005b76:	460b      	mov	r3, r1
 8005b78:	607a      	str	r2, [r7, #4]
 8005b7a:	72fb      	strb	r3, [r7, #11]
 8005b7c:	7afb      	ldrb	r3, [r7, #11]
 8005b7e:	2b00      	cmp	r3, #0
 8005b80:	d16f      	bne.n	8005c62 <USBD_LL_DataInStage+0xf4>
 8005b82:	68fb      	ldr	r3, [r7, #12]
 8005b84:	3314      	adds	r3, #20
 8005b86:	613b      	str	r3, [r7, #16]
 8005b88:	68fb      	ldr	r3, [r7, #12]
 8005b8a:	f8d3 3294 	ldr.w	r3, [r3, #660]	; 0x294
 8005b8e:	2b02      	cmp	r3, #2
 8005b90:	d15a      	bne.n	8005c48 <USBD_LL_DataInStage+0xda>
 8005b92:	693b      	ldr	r3, [r7, #16]
 8005b94:	689a      	ldr	r2, [r3, #8]
 8005b96:	693b      	ldr	r3, [r7, #16]
 8005b98:	68db      	ldr	r3, [r3, #12]
 8005b9a:	429a      	cmp	r2, r3
 8005b9c:	d914      	bls.n	8005bc8 <USBD_LL_DataInStage+0x5a>
 8005b9e:	693b      	ldr	r3, [r7, #16]
 8005ba0:	689a      	ldr	r2, [r3, #8]
 8005ba2:	693b      	ldr	r3, [r7, #16]
 8005ba4:	68db      	ldr	r3, [r3, #12]
 8005ba6:	1ad2      	subs	r2, r2, r3
 8005ba8:	693b      	ldr	r3, [r7, #16]
 8005baa:	609a      	str	r2, [r3, #8]
 8005bac:	693b      	ldr	r3, [r7, #16]
 8005bae:	689b      	ldr	r3, [r3, #8]
 8005bb0:	461a      	mov	r2, r3
 8005bb2:	6879      	ldr	r1, [r7, #4]
 8005bb4:	68f8      	ldr	r0, [r7, #12]
 8005bb6:	f001 f8ac 	bl	8006d12 <USBD_CtlContinueSendData>
 8005bba:	2300      	movs	r3, #0
 8005bbc:	2200      	movs	r2, #0
 8005bbe:	2100      	movs	r1, #0
 8005bc0:	68f8      	ldr	r0, [r7, #12]
 8005bc2:	f001 fdad 	bl	8007720 <USBD_LL_PrepareReceive>
 8005bc6:	e03f      	b.n	8005c48 <USBD_LL_DataInStage+0xda>
 8005bc8:	693b      	ldr	r3, [r7, #16]
 8005bca:	68da      	ldr	r2, [r3, #12]
 8005bcc:	693b      	ldr	r3, [r7, #16]
 8005bce:	689b      	ldr	r3, [r3, #8]
 8005bd0:	429a      	cmp	r2, r3
 8005bd2:	d11c      	bne.n	8005c0e <USBD_LL_DataInStage+0xa0>
 8005bd4:	693b      	ldr	r3, [r7, #16]
 8005bd6:	685a      	ldr	r2, [r3, #4]
 8005bd8:	693b      	ldr	r3, [r7, #16]
 8005bda:	68db      	ldr	r3, [r3, #12]
 8005bdc:	429a      	cmp	r2, r3
 8005bde:	d316      	bcc.n	8005c0e <USBD_LL_DataInStage+0xa0>
 8005be0:	693b      	ldr	r3, [r7, #16]
 8005be2:	685a      	ldr	r2, [r3, #4]
 8005be4:	68fb      	ldr	r3, [r7, #12]
 8005be6:	f8d3 3298 	ldr.w	r3, [r3, #664]	; 0x298
 8005bea:	429a      	cmp	r2, r3
 8005bec:	d20f      	bcs.n	8005c0e <USBD_LL_DataInStage+0xa0>
 8005bee:	2200      	movs	r2, #0
 8005bf0:	2100      	movs	r1, #0
 8005bf2:	68f8      	ldr	r0, [r7, #12]
 8005bf4:	f001 f88d 	bl	8006d12 <USBD_CtlContinueSendData>
 8005bf8:	68fb      	ldr	r3, [r7, #12]
 8005bfa:	2200      	movs	r2, #0
 8005bfc:	f8c3 2298 	str.w	r2, [r3, #664]	; 0x298
 8005c00:	2300      	movs	r3, #0
 8005c02:	2200      	movs	r2, #0
 8005c04:	2100      	movs	r1, #0
 8005c06:	68f8      	ldr	r0, [r7, #12]
 8005c08:	f001 fd8a 	bl	8007720 <USBD_LL_PrepareReceive>
 8005c0c:	e01c      	b.n	8005c48 <USBD_LL_DataInStage+0xda>
 8005c0e:	68fb      	ldr	r3, [r7, #12]
 8005c10:	f893 329c 	ldrb.w	r3, [r3, #668]	; 0x29c
 8005c14:	b2db      	uxtb	r3, r3
 8005c16:	2b03      	cmp	r3, #3
 8005c18:	d10f      	bne.n	8005c3a <USBD_LL_DataInStage+0xcc>
 8005c1a:	68fb      	ldr	r3, [r7, #12]
 8005c1c:	f8d3 32b8 	ldr.w	r3, [r3, #696]	; 0x2b8
 8005c20:	68db      	ldr	r3, [r3, #12]
 8005c22:	2b00      	cmp	r3, #0
 8005c24:	d009      	beq.n	8005c3a <USBD_LL_DataInStage+0xcc>
 8005c26:	68fb      	ldr	r3, [r7, #12]
 8005c28:	2200      	movs	r2, #0
 8005c2a:	f8c3 22d4 	str.w	r2, [r3, #724]	; 0x2d4
 8005c2e:	68fb      	ldr	r3, [r7, #12]
 8005c30:	f8d3 32b8 	ldr.w	r3, [r3, #696]	; 0x2b8
 8005c34:	68db      	ldr	r3, [r3, #12]
 8005c36:	68f8      	ldr	r0, [r7, #12]
 8005c38:	4798      	blx	r3
 8005c3a:	2180      	movs	r1, #128	; 0x80
 8005c3c:	68f8      	ldr	r0, [r7, #12]
 8005c3e:	f001 fcc5 	bl	80075cc <USBD_LL_StallEP>
 8005c42:	68f8      	ldr	r0, [r7, #12]
 8005c44:	f001 f8b7 	bl	8006db6 <USBD_CtlReceiveStatus>
 8005c48:	68fb      	ldr	r3, [r7, #12]
 8005c4a:	f893 32a0 	ldrb.w	r3, [r3, #672]	; 0x2a0
 8005c4e:	2b00      	cmp	r3, #0
 8005c50:	d03a      	beq.n	8005cc8 <USBD_LL_DataInStage+0x15a>
 8005c52:	68f8      	ldr	r0, [r7, #12]
 8005c54:	f7ff fe42 	bl	80058dc <USBD_RunTestMode>
 8005c58:	68fb      	ldr	r3, [r7, #12]
 8005c5a:	2200      	movs	r2, #0
 8005c5c:	f883 22a0 	strb.w	r2, [r3, #672]	; 0x2a0
 8005c60:	e032      	b.n	8005cc8 <USBD_LL_DataInStage+0x15a>
 8005c62:	7afb      	ldrb	r3, [r7, #11]
 8005c64:	f063 037f 	orn	r3, r3, #127	; 0x7f
 8005c68:	b2db      	uxtb	r3, r3
 8005c6a:	4619      	mov	r1, r3
 8005c6c:	68f8      	ldr	r0, [r7, #12]
 8005c6e:	f000 f97f 	bl	8005f70 <USBD_CoreFindEP>
 8005c72:	4603      	mov	r3, r0
 8005c74:	75fb      	strb	r3, [r7, #23]
 8005c76:	7dfb      	ldrb	r3, [r7, #23]
 8005c78:	2bff      	cmp	r3, #255	; 0xff
 8005c7a:	d025      	beq.n	8005cc8 <USBD_LL_DataInStage+0x15a>
 8005c7c:	7dfb      	ldrb	r3, [r7, #23]
 8005c7e:	2b00      	cmp	r3, #0
 8005c80:	d122      	bne.n	8005cc8 <USBD_LL_DataInStage+0x15a>
 8005c82:	68fb      	ldr	r3, [r7, #12]
 8005c84:	f893 329c 	ldrb.w	r3, [r3, #668]	; 0x29c
 8005c88:	b2db      	uxtb	r3, r3
 8005c8a:	2b03      	cmp	r3, #3
 8005c8c:	d11c      	bne.n	8005cc8 <USBD_LL_DataInStage+0x15a>
 8005c8e:	7dfa      	ldrb	r2, [r7, #23]
 8005c90:	68fb      	ldr	r3, [r7, #12]
 8005c92:	32ae      	adds	r2, #174	; 0xae
 8005c94:	f853 3022 	ldr.w	r3, [r3, r2, lsl #2]
 8005c98:	695b      	ldr	r3, [r3, #20]
 8005c9a:	2b00      	cmp	r3, #0
 8005c9c:	d014      	beq.n	8005cc8 <USBD_LL_DataInStage+0x15a>
 8005c9e:	7dfa      	ldrb	r2, [r7, #23]
 8005ca0:	68fb      	ldr	r3, [r7, #12]
 8005ca2:	f8c3 22d4 	str.w	r2, [r3, #724]	; 0x2d4
 8005ca6:	7dfa      	ldrb	r2, [r7, #23]
 8005ca8:	68fb      	ldr	r3, [r7, #12]
 8005caa:	32ae      	adds	r2, #174	; 0xae
 8005cac:	f853 3022 	ldr.w	r3, [r3, r2, lsl #2]
 8005cb0:	695b      	ldr	r3, [r3, #20]
 8005cb2:	7afa      	ldrb	r2, [r7, #11]
 8005cb4:	4611      	mov	r1, r2
 8005cb6:	68f8      	ldr	r0, [r7, #12]
 8005cb8:	4798      	blx	r3
 8005cba:	4603      	mov	r3, r0
 8005cbc:	75bb      	strb	r3, [r7, #22]
 8005cbe:	7dbb      	ldrb	r3, [r7, #22]
 8005cc0:	2b00      	cmp	r3, #0
 8005cc2:	d001      	beq.n	8005cc8 <USBD_LL_DataInStage+0x15a>
 8005cc4:	7dbb      	ldrb	r3, [r7, #22]
 8005cc6:	e000      	b.n	8005cca <USBD_LL_DataInStage+0x15c>
 8005cc8:	2300      	movs	r3, #0
 8005cca:	4618      	mov	r0, r3
 8005ccc:	3718      	adds	r7, #24
 8005cce:	46bd      	mov	sp, r7
 8005cd0:	bd80      	pop	{r7, pc}

08005cd2 <USBD_LL_Reset>:
 8005cd2:	b580      	push	{r7, lr}
 8005cd4:	b084      	sub	sp, #16
 8005cd6:	af00      	add	r7, sp, #0
 8005cd8:	6078      	str	r0, [r7, #4]
 8005cda:	2300      	movs	r3, #0
 8005cdc:	73fb      	strb	r3, [r7, #15]
 8005cde:	687b      	ldr	r3, [r7, #4]
 8005ce0:	2201      	movs	r2, #1
 8005ce2:	f883 229c 	strb.w	r2, [r3, #668]	; 0x29c
 8005ce6:	687b      	ldr	r3, [r7, #4]
 8005ce8:	2200      	movs	r2, #0
 8005cea:	f8c3 2294 	str.w	r2, [r3, #660]	; 0x294
 8005cee:	687b      	ldr	r3, [r7, #4]
 8005cf0:	2200      	movs	r2, #0
 8005cf2:	605a      	str	r2, [r3, #4]
 8005cf4:	687b      	ldr	r3, [r7, #4]
 8005cf6:	2200      	movs	r2, #0
 8005cf8:	f8c3 22a4 	str.w	r2, [r3, #676]	; 0x2a4
 8005cfc:	687b      	ldr	r3, [r7, #4]
 8005cfe:	2200      	movs	r2, #0
 8005d00:	f883 22a0 	strb.w	r2, [r3, #672]	; 0x2a0
 8005d04:	687b      	ldr	r3, [r7, #4]
 8005d06:	f8d3 32b8 	ldr.w	r3, [r3, #696]	; 0x2b8
 8005d0a:	2b00      	cmp	r3, #0
 8005d0c:	d014      	beq.n	8005d38 <USBD_LL_Reset+0x66>
 8005d0e:	687b      	ldr	r3, [r7, #4]
 8005d10:	f8d3 32b8 	ldr.w	r3, [r3, #696]	; 0x2b8
 8005d14:	685b      	ldr	r3, [r3, #4]
 8005d16:	2b00      	cmp	r3, #0
 8005d18:	d00e      	beq.n	8005d38 <USBD_LL_Reset+0x66>
 8005d1a:	687b      	ldr	r3, [r7, #4]
 8005d1c:	f8d3 32b8 	ldr.w	r3, [r3, #696]	; 0x2b8
 8005d20:	685b      	ldr	r3, [r3, #4]
 8005d22:	687a      	ldr	r2, [r7, #4]
 8005d24:	6852      	ldr	r2, [r2, #4]
 8005d26:	b2d2      	uxtb	r2, r2
 8005d28:	4611      	mov	r1, r2
 8005d2a:	6878      	ldr	r0, [r7, #4]
 8005d2c:	4798      	blx	r3
 8005d2e:	4603      	mov	r3, r0
 8005d30:	2b00      	cmp	r3, #0
 8005d32:	d001      	beq.n	8005d38 <USBD_LL_Reset+0x66>
 8005d34:	2303      	movs	r3, #3
 8005d36:	73fb      	strb	r3, [r7, #15]
 8005d38:	2340      	movs	r3, #64	; 0x40
 8005d3a:	2200      	movs	r2, #0
 8005d3c:	2100      	movs	r1, #0
 8005d3e:	6878      	ldr	r0, [r7, #4]
 8005d40:	f001 fbff 	bl	8007542 <USBD_LL_OpenEP>
 8005d44:	687b      	ldr	r3, [r7, #4]
 8005d46:	2201      	movs	r2, #1
 8005d48:	f8a3 2164 	strh.w	r2, [r3, #356]	; 0x164
 8005d4c:	687b      	ldr	r3, [r7, #4]
 8005d4e:	2240      	movs	r2, #64	; 0x40
 8005d50:	f8c3 2160 	str.w	r2, [r3, #352]	; 0x160
 8005d54:	2340      	movs	r3, #64	; 0x40
 8005d56:	2200      	movs	r2, #0
 8005d58:	2180      	movs	r1, #128	; 0x80
 8005d5a:	6878      	ldr	r0, [r7, #4]
 8005d5c:	f001 fbf1 	bl	8007542 <USBD_LL_OpenEP>
 8005d60:	687b      	ldr	r3, [r7, #4]
 8005d62:	2201      	movs	r2, #1
 8005d64:	849a      	strh	r2, [r3, #36]	; 0x24
 8005d66:	687b      	ldr	r3, [r7, #4]
 8005d68:	2240      	movs	r2, #64	; 0x40
 8005d6a:	621a      	str	r2, [r3, #32]
 8005d6c:	7bfb      	ldrb	r3, [r7, #15]
 8005d6e:	4618      	mov	r0, r3
 8005d70:	3710      	adds	r7, #16
 8005d72:	46bd      	mov	sp, r7
 8005d74:	bd80      	pop	{r7, pc}

08005d76 <USBD_LL_SetSpeed>:
 8005d76:	b480      	push	{r7}
 8005d78:	b083      	sub	sp, #12
 8005d7a:	af00      	add	r7, sp, #0
 8005d7c:	6078      	str	r0, [r7, #4]
 8005d7e:	460b      	mov	r3, r1
 8005d80:	70fb      	strb	r3, [r7, #3]
 8005d82:	687b      	ldr	r3, [r7, #4]
 8005d84:	78fa      	ldrb	r2, [r7, #3]
 8005d86:	741a      	strb	r2, [r3, #16]
 8005d88:	2300      	movs	r3, #0
 8005d8a:	4618      	mov	r0, r3
 8005d8c:	370c      	adds	r7, #12
 8005d8e:	46bd      	mov	sp, r7
 8005d90:	f85d 7b04 	ldr.w	r7, [sp], #4
 8005d94:	4770      	bx	lr

08005d96 <USBD_LL_Suspend>:
 8005d96:	b480      	push	{r7}
 8005d98:	b083      	sub	sp, #12
 8005d9a:	af00      	add	r7, sp, #0
 8005d9c:	6078      	str	r0, [r7, #4]
 8005d9e:	687b      	ldr	r3, [r7, #4]
 8005da0:	f893 329c 	ldrb.w	r3, [r3, #668]	; 0x29c
 8005da4:	b2da      	uxtb	r2, r3
 8005da6:	687b      	ldr	r3, [r7, #4]
 8005da8:	f883 229d 	strb.w	r2, [r3, #669]	; 0x29d
 8005dac:	687b      	ldr	r3, [r7, #4]
 8005dae:	2204      	movs	r2, #4
 8005db0:	f883 229c 	strb.w	r2, [r3, #668]	; 0x29c
 8005db4:	2300      	movs	r3, #0
 8005db6:	4618      	mov	r0, r3
 8005db8:	370c      	adds	r7, #12
 8005dba:	46bd      	mov	sp, r7
 8005dbc:	f85d 7b04 	ldr.w	r7, [sp], #4
 8005dc0:	4770      	bx	lr

08005dc2 <USBD_LL_Resume>:
 8005dc2:	b480      	push	{r7}
 8005dc4:	b083      	sub	sp, #12
 8005dc6:	af00      	add	r7, sp, #0
 8005dc8:	6078      	str	r0, [r7, #4]
 8005dca:	687b      	ldr	r3, [r7, #4]
 8005dcc:	f893 329c 	ldrb.w	r3, [r3, #668]	; 0x29c
 8005dd0:	b2db      	uxtb	r3, r3
 8005dd2:	2b04      	cmp	r3, #4
 8005dd4:	d106      	bne.n	8005de4 <USBD_LL_Resume+0x22>
 8005dd6:	687b      	ldr	r3, [r7, #4]
 8005dd8:	f893 329d 	ldrb.w	r3, [r3, #669]	; 0x29d
 8005ddc:	b2da      	uxtb	r2, r3
 8005dde:	687b      	ldr	r3, [r7, #4]
 8005de0:	f883 229c 	strb.w	r2, [r3, #668]	; 0x29c
 8005de4:	2300      	movs	r3, #0
 8005de6:	4618      	mov	r0, r3
 8005de8:	370c      	adds	r7, #12
 8005dea:	46bd      	mov	sp, r7
 8005dec:	f85d 7b04 	ldr.w	r7, [sp], #4
 8005df0:	4770      	bx	lr

08005df2 <USBD_LL_SOF>:
 8005df2:	b580      	push	{r7, lr}
 8005df4:	b082      	sub	sp, #8
 8005df6:	af00      	add	r7, sp, #0
 8005df8:	6078      	str	r0, [r7, #4]
 8005dfa:	687b      	ldr	r3, [r7, #4]
 8005dfc:	f893 329c 	ldrb.w	r3, [r3, #668]	; 0x29c
 8005e00:	b2db      	uxtb	r3, r3
 8005e02:	2b03      	cmp	r3, #3
 8005e04:	d110      	bne.n	8005e28 <USBD_LL_SOF+0x36>
 8005e06:	687b      	ldr	r3, [r7, #4]
 8005e08:	f8d3 32b8 	ldr.w	r3, [r3, #696]	; 0x2b8
 8005e0c:	2b00      	cmp	r3, #0
 8005e0e:	d00b      	beq.n	8005e28 <USBD_LL_SOF+0x36>
 8005e10:	687b      	ldr	r3, [r7, #4]
 8005e12:	f8d3 32b8 	ldr.w	r3, [r3, #696]	; 0x2b8
 8005e16:	69db      	ldr	r3, [r3, #28]
 8005e18:	2b00      	cmp	r3, #0
 8005e1a:	d005      	beq.n	8005e28 <USBD_LL_SOF+0x36>
 8005e1c:	687b      	ldr	r3, [r7, #4]
 8005e1e:	f8d3 32b8 	ldr.w	r3, [r3, #696]	; 0x2b8
 8005e22:	69db      	ldr	r3, [r3, #28]
 8005e24:	6878      	ldr	r0, [r7, #4]
 8005e26:	4798      	blx	r3
 8005e28:	2300      	movs	r3, #0
 8005e2a:	4618      	mov	r0, r3
 8005e2c:	3708      	adds	r7, #8
 8005e2e:	46bd      	mov	sp, r7
 8005e30:	bd80      	pop	{r7, pc}

08005e32 <USBD_LL_IsoINIncomplete>:
 8005e32:	b580      	push	{r7, lr}
 8005e34:	b082      	sub	sp, #8
 8005e36:	af00      	add	r7, sp, #0
 8005e38:	6078      	str	r0, [r7, #4]
 8005e3a:	460b      	mov	r3, r1
 8005e3c:	70fb      	strb	r3, [r7, #3]
 8005e3e:	687b      	ldr	r3, [r7, #4]
 8005e40:	f8d3 22d4 	ldr.w	r2, [r3, #724]	; 0x2d4
 8005e44:	687b      	ldr	r3, [r7, #4]
 8005e46:	32ae      	adds	r2, #174	; 0xae
 8005e48:	f853 3022 	ldr.w	r3, [r3, r2, lsl #2]
 8005e4c:	2b00      	cmp	r3, #0
 8005e4e:	d101      	bne.n	8005e54 <USBD_LL_IsoINIncomplete+0x22>
 8005e50:	2303      	movs	r3, #3
 8005e52:	e01c      	b.n	8005e8e <USBD_LL_IsoINIncomplete+0x5c>
 8005e54:	687b      	ldr	r3, [r7, #4]
 8005e56:	f893 329c 	ldrb.w	r3, [r3, #668]	; 0x29c
 8005e5a:	b2db      	uxtb	r3, r3
 8005e5c:	2b03      	cmp	r3, #3
 8005e5e:	d115      	bne.n	8005e8c <USBD_LL_IsoINIncomplete+0x5a>
 8005e60:	687b      	ldr	r3, [r7, #4]
 8005e62:	f8d3 22d4 	ldr.w	r2, [r3, #724]	; 0x2d4
 8005e66:	687b      	ldr	r3, [r7, #4]
 8005e68:	32ae      	adds	r2, #174	; 0xae
 8005e6a:	f853 3022 	ldr.w	r3, [r3, r2, lsl #2]
 8005e6e:	6a1b      	ldr	r3, [r3, #32]
 8005e70:	2b00      	cmp	r3, #0
 8005e72:	d00b      	beq.n	8005e8c <USBD_LL_IsoINIncomplete+0x5a>
 8005e74:	687b      	ldr	r3, [r7, #4]
 8005e76:	f8d3 22d4 	ldr.w	r2, [r3, #724]	; 0x2d4
 8005e7a:	687b      	ldr	r3, [r7, #4]
 8005e7c:	32ae      	adds	r2, #174	; 0xae
 8005e7e:	f853 3022 	ldr.w	r3, [r3, r2, lsl #2]
 8005e82:	6a1b      	ldr	r3, [r3, #32]
 8005e84:	78fa      	ldrb	r2, [r7, #3]
 8005e86:	4611      	mov	r1, r2
 8005e88:	6878      	ldr	r0, [r7, #4]
 8005e8a:	4798      	blx	r3
 8005e8c:	2300      	movs	r3, #0
 8005e8e:	4618      	mov	r0, r3
 8005e90:	3708      	adds	r7, #8
 8005e92:	46bd      	mov	sp, r7
 8005e94:	bd80      	pop	{r7, pc}

08005e96 <USBD_LL_IsoOUTIncomplete>:
 8005e96:	b580      	push	{r7, lr}
 8005e98:	b082      	sub	sp, #8
 8005e9a:	af00      	add	r7, sp, #0
 8005e9c:	6078      	str	r0, [r7, #4]
 8005e9e:	460b      	mov	r3, r1
 8005ea0:	70fb      	strb	r3, [r7, #3]
 8005ea2:	687b      	ldr	r3, [r7, #4]
 8005ea4:	f8d3 22d4 	ldr.w	r2, [r3, #724]	; 0x2d4
 8005ea8:	687b      	ldr	r3, [r7, #4]
 8005eaa:	32ae      	adds	r2, #174	; 0xae
 8005eac:	f853 3022 	ldr.w	r3, [r3, r2, lsl #2]
 8005eb0:	2b00      	cmp	r3, #0
 8005eb2:	d101      	bne.n	8005eb8 <USBD_LL_IsoOUTIncomplete+0x22>
 8005eb4:	2303      	movs	r3, #3
 8005eb6:	e01c      	b.n	8005ef2 <USBD_LL_IsoOUTIncomplete+0x5c>
 8005eb8:	687b      	ldr	r3, [r7, #4]
 8005eba:	f893 329c 	ldrb.w	r3, [r3, #668]	; 0x29c
 8005ebe:	b2db      	uxtb	r3, r3
 8005ec0:	2b03      	cmp	r3, #3
 8005ec2:	d115      	bne.n	8005ef0 <USBD_LL_IsoOUTIncomplete+0x5a>
 8005ec4:	687b      	ldr	r3, [r7, #4]
 8005ec6:	f8d3 22d4 	ldr.w	r2, [r3, #724]	; 0x2d4
 8005eca:	687b      	ldr	r3, [r7, #4]
 8005ecc:	32ae      	adds	r2, #174	; 0xae
 8005ece:	f853 3022 	ldr.w	r3, [r3, r2, lsl #2]
 8005ed2:	6a5b      	ldr	r3, [r3, #36]	; 0x24
 8005ed4:	2b00      	cmp	r3, #0
 8005ed6:	d00b      	beq.n	8005ef0 <USBD_LL_IsoOUTIncomplete+0x5a>
 8005ed8:	687b      	ldr	r3, [r7, #4]
 8005eda:	f8d3 22d4 	ldr.w	r2, [r3, #724]	; 0x2d4
 8005ede:	687b      	ldr	r3, [r7, #4]
 8005ee0:	32ae      	adds	r2, #174	; 0xae
 8005ee2:	f853 3022 	ldr.w	r3, [r3, r2, lsl #2]
 8005ee6:	6a5b      	ldr	r3, [r3, #36]	; 0x24
 8005ee8:	78fa      	ldrb	r2, [r7, #3]
 8005eea:	4611      	mov	r1, r2
 8005eec:	6878      	ldr	r0, [r7, #4]
 8005eee:	4798      	blx	r3
 8005ef0:	2300      	movs	r3, #0
 8005ef2:	4618      	mov	r0, r3
 8005ef4:	3708      	adds	r7, #8
 8005ef6:	46bd      	mov	sp, r7
 8005ef8:	bd80      	pop	{r7, pc}

08005efa <USBD_LL_DevConnected>:
 8005efa:	b480      	push	{r7}
 8005efc:	b083      	sub	sp, #12
 8005efe:	af00      	add	r7, sp, #0
 8005f00:	6078      	str	r0, [r7, #4]
 8005f02:	2300      	movs	r3, #0
 8005f04:	4618      	mov	r0, r3
 8005f06:	370c      	adds	r7, #12
 8005f08:	46bd      	mov	sp, r7
 8005f0a:	f85d 7b04 	ldr.w	r7, [sp], #4
 8005f0e:	4770      	bx	lr

08005f10 <USBD_LL_DevDisconnected>:
 8005f10:	b580      	push	{r7, lr}
 8005f12:	b084      	sub	sp, #16
 8005f14:	af00      	add	r7, sp, #0
 8005f16:	6078      	str	r0, [r7, #4]
 8005f18:	2300      	movs	r3, #0
 8005f1a:	73fb      	strb	r3, [r7, #15]
 8005f1c:	687b      	ldr	r3, [r7, #4]
 8005f1e:	2201      	movs	r2, #1
 8005f20:	f883 229c 	strb.w	r2, [r3, #668]	; 0x29c
 8005f24:	687b      	ldr	r3, [r7, #4]
 8005f26:	f8d3 32b8 	ldr.w	r3, [r3, #696]	; 0x2b8
 8005f2a:	2b00      	cmp	r3, #0
 8005f2c:	d00e      	beq.n	8005f4c <USBD_LL_DevDisconnected+0x3c>
 8005f2e:	687b      	ldr	r3, [r7, #4]
 8005f30:	f8d3 32b8 	ldr.w	r3, [r3, #696]	; 0x2b8
 8005f34:	685b      	ldr	r3, [r3, #4]
 8005f36:	687a      	ldr	r2, [r7, #4]
 8005f38:	6852      	ldr	r2, [r2, #4]
 8005f3a:	b2d2      	uxtb	r2, r2
 8005f3c:	4611      	mov	r1, r2
 8005f3e:	6878      	ldr	r0, [r7, #4]
 8005f40:	4798      	blx	r3
 8005f42:	4603      	mov	r3, r0
 8005f44:	2b00      	cmp	r3, #0
 8005f46:	d001      	beq.n	8005f4c <USBD_LL_DevDisconnected+0x3c>
 8005f48:	2303      	movs	r3, #3
 8005f4a:	73fb      	strb	r3, [r7, #15]
 8005f4c:	7bfb      	ldrb	r3, [r7, #15]
 8005f4e:	4618      	mov	r0, r3
 8005f50:	3710      	adds	r7, #16
 8005f52:	46bd      	mov	sp, r7
 8005f54:	bd80      	pop	{r7, pc}

08005f56 <USBD_CoreFindIF>:
 8005f56:	b480      	push	{r7}
 8005f58:	b083      	sub	sp, #12
 8005f5a:	af00      	add	r7, sp, #0
 8005f5c:	6078      	str	r0, [r7, #4]
 8005f5e:	460b      	mov	r3, r1
 8005f60:	70fb      	strb	r3, [r7, #3]
 8005f62:	2300      	movs	r3, #0
 8005f64:	4618      	mov	r0, r3
 8005f66:	370c      	adds	r7, #12
 8005f68:	46bd      	mov	sp, r7
 8005f6a:	f85d 7b04 	ldr.w	r7, [sp], #4
 8005f6e:	4770      	bx	lr

08005f70 <USBD_CoreFindEP>:
 8005f70:	b480      	push	{r7}
 8005f72:	b083      	sub	sp, #12
 8005f74:	af00      	add	r7, sp, #0
 8005f76:	6078      	str	r0, [r7, #4]
 8005f78:	460b      	mov	r3, r1
 8005f7a:	70fb      	strb	r3, [r7, #3]
 8005f7c:	2300      	movs	r3, #0
 8005f7e:	4618      	mov	r0, r3
 8005f80:	370c      	adds	r7, #12
 8005f82:	46bd      	mov	sp, r7
 8005f84:	f85d 7b04 	ldr.w	r7, [sp], #4
 8005f88:	4770      	bx	lr

08005f8a <USBD_GetEpDesc>:
 8005f8a:	b580      	push	{r7, lr}
 8005f8c:	b086      	sub	sp, #24
 8005f8e:	af00      	add	r7, sp, #0
 8005f90:	6078      	str	r0, [r7, #4]
 8005f92:	460b      	mov	r3, r1
 8005f94:	70fb      	strb	r3, [r7, #3]
 8005f96:	687b      	ldr	r3, [r7, #4]
 8005f98:	617b      	str	r3, [r7, #20]
 8005f9a:	687b      	ldr	r3, [r7, #4]
 8005f9c:	60fb      	str	r3, [r7, #12]
 8005f9e:	2300      	movs	r3, #0
 8005fa0:	613b      	str	r3, [r7, #16]
 8005fa2:	68fb      	ldr	r3, [r7, #12]
 8005fa4:	885b      	ldrh	r3, [r3, #2]
 8005fa6:	b29a      	uxth	r2, r3
 8005fa8:	68fb      	ldr	r3, [r7, #12]
 8005faa:	781b      	ldrb	r3, [r3, #0]
 8005fac:	b29b      	uxth	r3, r3
 8005fae:	429a      	cmp	r2, r3
 8005fb0:	d920      	bls.n	8005ff4 <USBD_GetEpDesc+0x6a>
 8005fb2:	68fb      	ldr	r3, [r7, #12]
 8005fb4:	781b      	ldrb	r3, [r3, #0]
 8005fb6:	b29b      	uxth	r3, r3
 8005fb8:	817b      	strh	r3, [r7, #10]
 8005fba:	e013      	b.n	8005fe4 <USBD_GetEpDesc+0x5a>
 8005fbc:	f107 030a 	add.w	r3, r7, #10
 8005fc0:	4619      	mov	r1, r3
 8005fc2:	6978      	ldr	r0, [r7, #20]
 8005fc4:	f000 f81b 	bl	8005ffe <USBD_GetNextDesc>
 8005fc8:	6178      	str	r0, [r7, #20]
 8005fca:	697b      	ldr	r3, [r7, #20]
 8005fcc:	785b      	ldrb	r3, [r3, #1]
 8005fce:	2b05      	cmp	r3, #5
 8005fd0:	d108      	bne.n	8005fe4 <USBD_GetEpDesc+0x5a>
 8005fd2:	697b      	ldr	r3, [r7, #20]
 8005fd4:	613b      	str	r3, [r7, #16]
 8005fd6:	693b      	ldr	r3, [r7, #16]
 8005fd8:	789b      	ldrb	r3, [r3, #2]
 8005fda:	78fa      	ldrb	r2, [r7, #3]
 8005fdc:	429a      	cmp	r2, r3
 8005fde:	d008      	beq.n	8005ff2 <USBD_GetEpDesc+0x68>
 8005fe0:	2300      	movs	r3, #0
 8005fe2:	613b      	str	r3, [r7, #16]
 8005fe4:	68fb      	ldr	r3, [r7, #12]
 8005fe6:	885b      	ldrh	r3, [r3, #2]
 8005fe8:	b29a      	uxth	r2, r3
 8005fea:	897b      	ldrh	r3, [r7, #10]
 8005fec:	429a      	cmp	r2, r3
 8005fee:	d8e5      	bhi.n	8005fbc <USBD_GetEpDesc+0x32>
 8005ff0:	e000      	b.n	8005ff4 <USBD_GetEpDesc+0x6a>
 8005ff2:	bf00      	nop
 8005ff4:	693b      	ldr	r3, [r7, #16]
 8005ff6:	4618      	mov	r0, r3
 8005ff8:	3718      	adds	r7, #24
 8005ffa:	46bd      	mov	sp, r7
 8005ffc:	bd80      	pop	{r7, pc}

08005ffe <USBD_GetNextDesc>:
 8005ffe:	b480      	push	{r7}
 8006000:	b085      	sub	sp, #20
 8006002:	af00      	add	r7, sp, #0
 8006004:	6078      	str	r0, [r7, #4]
 8006006:	6039      	str	r1, [r7, #0]
 8006008:	687b      	ldr	r3, [r7, #4]
 800600a:	60fb      	str	r3, [r7, #12]
 800600c:	683b      	ldr	r3, [r7, #0]
 800600e:	881a      	ldrh	r2, [r3, #0]
 8006010:	68fb      	ldr	r3, [r7, #12]
 8006012:	781b      	ldrb	r3, [r3, #0]
 8006014:	b29b      	uxth	r3, r3
 8006016:	4413      	add	r3, r2
 8006018:	b29a      	uxth	r2, r3
 800601a:	683b      	ldr	r3, [r7, #0]
 800601c:	801a      	strh	r2, [r3, #0]
 800601e:	68fb      	ldr	r3, [r7, #12]
 8006020:	781b      	ldrb	r3, [r3, #0]
 8006022:	461a      	mov	r2, r3
 8006024:	687b      	ldr	r3, [r7, #4]
 8006026:	4413      	add	r3, r2
 8006028:	60fb      	str	r3, [r7, #12]
 800602a:	68fb      	ldr	r3, [r7, #12]
 800602c:	4618      	mov	r0, r3
 800602e:	3714      	adds	r7, #20
 8006030:	46bd      	mov	sp, r7
 8006032:	f85d 7b04 	ldr.w	r7, [sp], #4
 8006036:	4770      	bx	lr

08006038 <SWAPBYTE>:
 8006038:	b480      	push	{r7}
 800603a:	b087      	sub	sp, #28
 800603c:	af00      	add	r7, sp, #0
 800603e:	6078      	str	r0, [r7, #4]
 8006040:	687b      	ldr	r3, [r7, #4]
 8006042:	617b      	str	r3, [r7, #20]
 8006044:	697b      	ldr	r3, [r7, #20]
 8006046:	781b      	ldrb	r3, [r3, #0]
 8006048:	827b      	strh	r3, [r7, #18]
 800604a:	697b      	ldr	r3, [r7, #20]
 800604c:	3301      	adds	r3, #1
 800604e:	617b      	str	r3, [r7, #20]
 8006050:	697b      	ldr	r3, [r7, #20]
 8006052:	781b      	ldrb	r3, [r3, #0]
 8006054:	823b      	strh	r3, [r7, #16]
 8006056:	8a3b      	ldrh	r3, [r7, #16]
 8006058:	021b      	lsls	r3, r3, #8
 800605a:	b21a      	sxth	r2, r3
 800605c:	f9b7 3012 	ldrsh.w	r3, [r7, #18]
 8006060:	4313      	orrs	r3, r2
 8006062:	b21b      	sxth	r3, r3
 8006064:	81fb      	strh	r3, [r7, #14]
 8006066:	89fb      	ldrh	r3, [r7, #14]
 8006068:	4618      	mov	r0, r3
 800606a:	371c      	adds	r7, #28
 800606c:	46bd      	mov	sp, r7
 800606e:	f85d 7b04 	ldr.w	r7, [sp], #4
 8006072:	4770      	bx	lr

08006074 <USBD_StdDevReq>:
 8006074:	b580      	push	{r7, lr}
 8006076:	b084      	sub	sp, #16
 8006078:	af00      	add	r7, sp, #0
 800607a:	6078      	str	r0, [r7, #4]
 800607c:	6039      	str	r1, [r7, #0]
 800607e:	2300      	movs	r3, #0
 8006080:	73fb      	strb	r3, [r7, #15]
 8006082:	683b      	ldr	r3, [r7, #0]
 8006084:	781b      	ldrb	r3, [r3, #0]
 8006086:	f003 0360 	and.w	r3, r3, #96	; 0x60
 800608a:	2b40      	cmp	r3, #64	; 0x40
 800608c:	d005      	beq.n	800609a <USBD_StdDevReq+0x26>
 800608e:	2b40      	cmp	r3, #64	; 0x40
 8006090:	d857      	bhi.n	8006142 <USBD_StdDevReq+0xce>
 8006092:	2b00      	cmp	r3, #0
 8006094:	d00f      	beq.n	80060b6 <USBD_StdDevReq+0x42>
 8006096:	2b20      	cmp	r3, #32
 8006098:	d153      	bne.n	8006142 <USBD_StdDevReq+0xce>
 800609a:	687b      	ldr	r3, [r7, #4]
 800609c:	f8d3 22d4 	ldr.w	r2, [r3, #724]	; 0x2d4
 80060a0:	687b      	ldr	r3, [r7, #4]
 80060a2:	32ae      	adds	r2, #174	; 0xae
 80060a4:	f853 3022 	ldr.w	r3, [r3, r2, lsl #2]
 80060a8:	689b      	ldr	r3, [r3, #8]
 80060aa:	6839      	ldr	r1, [r7, #0]
 80060ac:	6878      	ldr	r0, [r7, #4]
 80060ae:	4798      	blx	r3
 80060b0:	4603      	mov	r3, r0
 80060b2:	73fb      	strb	r3, [r7, #15]
 80060b4:	e04a      	b.n	800614c <USBD_StdDevReq+0xd8>
 80060b6:	683b      	ldr	r3, [r7, #0]
 80060b8:	785b      	ldrb	r3, [r3, #1]
 80060ba:	2b09      	cmp	r3, #9
 80060bc:	d83b      	bhi.n	8006136 <USBD_StdDevReq+0xc2>
 80060be:	a201      	add	r2, pc, #4	; (adr r2, 80060c4 <USBD_StdDevReq+0x50>)
 80060c0:	f852 f023 	ldr.w	pc, [r2, r3, lsl #2]
 80060c4:	08006119 	.word	0x08006119
 80060c8:	0800612d 	.word	0x0800612d
 80060cc:	08006137 	.word	0x08006137
 80060d0:	08006123 	.word	0x08006123
 80060d4:	08006137 	.word	0x08006137
 80060d8:	080060f7 	.word	0x080060f7
 80060dc:	080060ed 	.word	0x080060ed
 80060e0:	08006137 	.word	0x08006137
 80060e4:	0800610f 	.word	0x0800610f
 80060e8:	08006101 	.word	0x08006101
 80060ec:	6839      	ldr	r1, [r7, #0]
 80060ee:	6878      	ldr	r0, [r7, #4]
 80060f0:	f000 fa3c 	bl	800656c <USBD_GetDescriptor>
 80060f4:	e024      	b.n	8006140 <USBD_StdDevReq+0xcc>
 80060f6:	6839      	ldr	r1, [r7, #0]
 80060f8:	6878      	ldr	r0, [r7, #4]
 80060fa:	f000 fba1 	bl	8006840 <USBD_SetAddress>
 80060fe:	e01f      	b.n	8006140 <USBD_StdDevReq+0xcc>
 8006100:	6839      	ldr	r1, [r7, #0]
 8006102:	6878      	ldr	r0, [r7, #4]
 8006104:	f000 fbe0 	bl	80068c8 <USBD_SetConfig>
 8006108:	4603      	mov	r3, r0
 800610a:	73fb      	strb	r3, [r7, #15]
 800610c:	e018      	b.n	8006140 <USBD_StdDevReq+0xcc>
 800610e:	6839      	ldr	r1, [r7, #0]
 8006110:	6878      	ldr	r0, [r7, #4]
 8006112:	f000 fc83 	bl	8006a1c <USBD_GetConfig>
 8006116:	e013      	b.n	8006140 <USBD_StdDevReq+0xcc>
 8006118:	6839      	ldr	r1, [r7, #0]
 800611a:	6878      	ldr	r0, [r7, #4]
 800611c:	f000 fcb4 	bl	8006a88 <USBD_GetStatus>
 8006120:	e00e      	b.n	8006140 <USBD_StdDevReq+0xcc>
 8006122:	6839      	ldr	r1, [r7, #0]
 8006124:	6878      	ldr	r0, [r7, #4]
 8006126:	f000 fce3 	bl	8006af0 <USBD_SetFeature>
 800612a:	e009      	b.n	8006140 <USBD_StdDevReq+0xcc>
 800612c:	6839      	ldr	r1, [r7, #0]
 800612e:	6878      	ldr	r0, [r7, #4]
 8006130:	f000 fd07 	bl	8006b42 <USBD_ClrFeature>
 8006134:	e004      	b.n	8006140 <USBD_StdDevReq+0xcc>
 8006136:	6839      	ldr	r1, [r7, #0]
 8006138:	6878      	ldr	r0, [r7, #4]
 800613a:	f000 fd5e 	bl	8006bfa <USBD_CtlError>
 800613e:	bf00      	nop
 8006140:	e004      	b.n	800614c <USBD_StdDevReq+0xd8>
 8006142:	6839      	ldr	r1, [r7, #0]
 8006144:	6878      	ldr	r0, [r7, #4]
 8006146:	f000 fd58 	bl	8006bfa <USBD_CtlError>
 800614a:	bf00      	nop
 800614c:	7bfb      	ldrb	r3, [r7, #15]
 800614e:	4618      	mov	r0, r3
 8006150:	3710      	adds	r7, #16
 8006152:	46bd      	mov	sp, r7
 8006154:	bd80      	pop	{r7, pc}
 8006156:	bf00      	nop

08006158 <USBD_StdItfReq>:
 8006158:	b580      	push	{r7, lr}
 800615a:	b084      	sub	sp, #16
 800615c:	af00      	add	r7, sp, #0
 800615e:	6078      	str	r0, [r7, #4]
 8006160:	6039      	str	r1, [r7, #0]
 8006162:	2300      	movs	r3, #0
 8006164:	73fb      	strb	r3, [r7, #15]
 8006166:	683b      	ldr	r3, [r7, #0]
 8006168:	781b      	ldrb	r3, [r3, #0]
 800616a:	f003 0360 	and.w	r3, r3, #96	; 0x60
 800616e:	2b40      	cmp	r3, #64	; 0x40
 8006170:	d005      	beq.n	800617e <USBD_StdItfReq+0x26>
 8006172:	2b40      	cmp	r3, #64	; 0x40
 8006174:	d852      	bhi.n	800621c <USBD_StdItfReq+0xc4>
 8006176:	2b00      	cmp	r3, #0
 8006178:	d001      	beq.n	800617e <USBD_StdItfReq+0x26>
 800617a:	2b20      	cmp	r3, #32
 800617c:	d14e      	bne.n	800621c <USBD_StdItfReq+0xc4>
 800617e:	687b      	ldr	r3, [r7, #4]
 8006180:	f893 329c 	ldrb.w	r3, [r3, #668]	; 0x29c
 8006184:	b2db      	uxtb	r3, r3
 8006186:	3b01      	subs	r3, #1
 8006188:	2b02      	cmp	r3, #2
 800618a:	d840      	bhi.n	800620e <USBD_StdItfReq+0xb6>
 800618c:	683b      	ldr	r3, [r7, #0]
 800618e:	889b      	ldrh	r3, [r3, #4]
 8006190:	b2db      	uxtb	r3, r3
 8006192:	2b01      	cmp	r3, #1
 8006194:	d836      	bhi.n	8006204 <USBD_StdItfReq+0xac>
 8006196:	683b      	ldr	r3, [r7, #0]
 8006198:	889b      	ldrh	r3, [r3, #4]
 800619a:	b2db      	uxtb	r3, r3
 800619c:	4619      	mov	r1, r3
 800619e:	6878      	ldr	r0, [r7, #4]
 80061a0:	f7ff fed9 	bl	8005f56 <USBD_CoreFindIF>
 80061a4:	4603      	mov	r3, r0
 80061a6:	73bb      	strb	r3, [r7, #14]
 80061a8:	7bbb      	ldrb	r3, [r7, #14]
 80061aa:	2bff      	cmp	r3, #255	; 0xff
 80061ac:	d01d      	beq.n	80061ea <USBD_StdItfReq+0x92>
 80061ae:	7bbb      	ldrb	r3, [r7, #14]
 80061b0:	2b00      	cmp	r3, #0
 80061b2:	d11a      	bne.n	80061ea <USBD_StdItfReq+0x92>
 80061b4:	7bba      	ldrb	r2, [r7, #14]
 80061b6:	687b      	ldr	r3, [r7, #4]
 80061b8:	32ae      	adds	r2, #174	; 0xae
 80061ba:	f853 3022 	ldr.w	r3, [r3, r2, lsl #2]
 80061be:	689b      	ldr	r3, [r3, #8]
 80061c0:	2b00      	cmp	r3, #0
 80061c2:	d00f      	beq.n	80061e4 <USBD_StdItfReq+0x8c>
 80061c4:	7bba      	ldrb	r2, [r7, #14]
 80061c6:	687b      	ldr	r3, [r7, #4]
 80061c8:	f8c3 22d4 	str.w	r2, [r3, #724]	; 0x2d4
 80061cc:	7bba      	ldrb	r2, [r7, #14]
 80061ce:	687b      	ldr	r3, [r7, #4]
 80061d0:	32ae      	adds	r2, #174	; 0xae
 80061d2:	f853 3022 	ldr.w	r3, [r3, r2, lsl #2]
 80061d6:	689b      	ldr	r3, [r3, #8]
 80061d8:	6839      	ldr	r1, [r7, #0]
 80061da:	6878      	ldr	r0, [r7, #4]
 80061dc:	4798      	blx	r3
 80061de:	4603      	mov	r3, r0
 80061e0:	73fb      	strb	r3, [r7, #15]
 80061e2:	e004      	b.n	80061ee <USBD_StdItfReq+0x96>
 80061e4:	2303      	movs	r3, #3
 80061e6:	73fb      	strb	r3, [r7, #15]
 80061e8:	e001      	b.n	80061ee <USBD_StdItfReq+0x96>
 80061ea:	2303      	movs	r3, #3
 80061ec:	73fb      	strb	r3, [r7, #15]
 80061ee:	683b      	ldr	r3, [r7, #0]
 80061f0:	88db      	ldrh	r3, [r3, #6]
 80061f2:	2b00      	cmp	r3, #0
 80061f4:	d110      	bne.n	8006218 <USBD_StdItfReq+0xc0>
 80061f6:	7bfb      	ldrb	r3, [r7, #15]
 80061f8:	2b00      	cmp	r3, #0
 80061fa:	d10d      	bne.n	8006218 <USBD_StdItfReq+0xc0>
 80061fc:	6878      	ldr	r0, [r7, #4]
 80061fe:	f000 fdc7 	bl	8006d90 <USBD_CtlSendStatus>
 8006202:	e009      	b.n	8006218 <USBD_StdItfReq+0xc0>
 8006204:	6839      	ldr	r1, [r7, #0]
 8006206:	6878      	ldr	r0, [r7, #4]
 8006208:	f000 fcf7 	bl	8006bfa <USBD_CtlError>
 800620c:	e004      	b.n	8006218 <USBD_StdItfReq+0xc0>
 800620e:	6839      	ldr	r1, [r7, #0]
 8006210:	6878      	ldr	r0, [r7, #4]
 8006212:	f000 fcf2 	bl	8006bfa <USBD_CtlError>
 8006216:	e000      	b.n	800621a <USBD_StdItfReq+0xc2>
 8006218:	bf00      	nop
 800621a:	e004      	b.n	8006226 <USBD_StdItfReq+0xce>
 800621c:	6839      	ldr	r1, [r7, #0]
 800621e:	6878      	ldr	r0, [r7, #4]
 8006220:	f000 fceb 	bl	8006bfa <USBD_CtlError>
 8006224:	bf00      	nop
 8006226:	7bfb      	ldrb	r3, [r7, #15]
 8006228:	4618      	mov	r0, r3
 800622a:	3710      	adds	r7, #16
 800622c:	46bd      	mov	sp, r7
 800622e:	bd80      	pop	{r7, pc}

08006230 <USBD_StdEPReq>:
 8006230:	b580      	push	{r7, lr}
 8006232:	b084      	sub	sp, #16
 8006234:	af00      	add	r7, sp, #0
 8006236:	6078      	str	r0, [r7, #4]
 8006238:	6039      	str	r1, [r7, #0]
 800623a:	2300      	movs	r3, #0
 800623c:	73fb      	strb	r3, [r7, #15]
 800623e:	683b      	ldr	r3, [r7, #0]
 8006240:	889b      	ldrh	r3, [r3, #4]
 8006242:	73bb      	strb	r3, [r7, #14]
 8006244:	683b      	ldr	r3, [r7, #0]
 8006246:	781b      	ldrb	r3, [r3, #0]
 8006248:	f003 0360 	and.w	r3, r3, #96	; 0x60
 800624c:	2b40      	cmp	r3, #64	; 0x40
 800624e:	d007      	beq.n	8006260 <USBD_StdEPReq+0x30>
 8006250:	2b40      	cmp	r3, #64	; 0x40
 8006252:	f200 817f 	bhi.w	8006554 <USBD_StdEPReq+0x324>
 8006256:	2b00      	cmp	r3, #0
 8006258:	d02a      	beq.n	80062b0 <USBD_StdEPReq+0x80>
 800625a:	2b20      	cmp	r3, #32
 800625c:	f040 817a 	bne.w	8006554 <USBD_StdEPReq+0x324>
 8006260:	7bbb      	ldrb	r3, [r7, #14]
 8006262:	4619      	mov	r1, r3
 8006264:	6878      	ldr	r0, [r7, #4]
 8006266:	f7ff fe83 	bl	8005f70 <USBD_CoreFindEP>
 800626a:	4603      	mov	r3, r0
 800626c:	737b      	strb	r3, [r7, #13]
 800626e:	7b7b      	ldrb	r3, [r7, #13]
 8006270:	2bff      	cmp	r3, #255	; 0xff
 8006272:	f000 8174 	beq.w	800655e <USBD_StdEPReq+0x32e>
 8006276:	7b7b      	ldrb	r3, [r7, #13]
 8006278:	2b00      	cmp	r3, #0
 800627a:	f040 8170 	bne.w	800655e <USBD_StdEPReq+0x32e>
 800627e:	7b7a      	ldrb	r2, [r7, #13]
 8006280:	687b      	ldr	r3, [r7, #4]
 8006282:	f8c3 22d4 	str.w	r2, [r3, #724]	; 0x2d4
 8006286:	7b7a      	ldrb	r2, [r7, #13]
 8006288:	687b      	ldr	r3, [r7, #4]
 800628a:	32ae      	adds	r2, #174	; 0xae
 800628c:	f853 3022 	ldr.w	r3, [r3, r2, lsl #2]
 8006290:	689b      	ldr	r3, [r3, #8]
 8006292:	2b00      	cmp	r3, #0
 8006294:	f000 8163 	beq.w	800655e <USBD_StdEPReq+0x32e>
 8006298:	7b7a      	ldrb	r2, [r7, #13]
 800629a:	687b      	ldr	r3, [r7, #4]
 800629c:	32ae      	adds	r2, #174	; 0xae
 800629e:	f853 3022 	ldr.w	r3, [r3, r2, lsl #2]
 80062a2:	689b      	ldr	r3, [r3, #8]
 80062a4:	6839      	ldr	r1, [r7, #0]
 80062a6:	6878      	ldr	r0, [r7, #4]
 80062a8:	4798      	blx	r3
 80062aa:	4603      	mov	r3, r0
 80062ac:	73fb      	strb	r3, [r7, #15]
 80062ae:	e156      	b.n	800655e <USBD_StdEPReq+0x32e>
 80062b0:	683b      	ldr	r3, [r7, #0]
 80062b2:	785b      	ldrb	r3, [r3, #1]
 80062b4:	2b03      	cmp	r3, #3
 80062b6:	d008      	beq.n	80062ca <USBD_StdEPReq+0x9a>
 80062b8:	2b03      	cmp	r3, #3
 80062ba:	f300 8145 	bgt.w	8006548 <USBD_StdEPReq+0x318>
 80062be:	2b00      	cmp	r3, #0
 80062c0:	f000 809b 	beq.w	80063fa <USBD_StdEPReq+0x1ca>
 80062c4:	2b01      	cmp	r3, #1
 80062c6:	d03c      	beq.n	8006342 <USBD_StdEPReq+0x112>
 80062c8:	e13e      	b.n	8006548 <USBD_StdEPReq+0x318>
 80062ca:	687b      	ldr	r3, [r7, #4]
 80062cc:	f893 329c 	ldrb.w	r3, [r3, #668]	; 0x29c
 80062d0:	b2db      	uxtb	r3, r3
 80062d2:	2b02      	cmp	r3, #2
 80062d4:	d002      	beq.n	80062dc <USBD_StdEPReq+0xac>
 80062d6:	2b03      	cmp	r3, #3
 80062d8:	d016      	beq.n	8006308 <USBD_StdEPReq+0xd8>
 80062da:	e02c      	b.n	8006336 <USBD_StdEPReq+0x106>
 80062dc:	7bbb      	ldrb	r3, [r7, #14]
 80062de:	2b00      	cmp	r3, #0
 80062e0:	d00d      	beq.n	80062fe <USBD_StdEPReq+0xce>
 80062e2:	7bbb      	ldrb	r3, [r7, #14]
 80062e4:	2b80      	cmp	r3, #128	; 0x80
 80062e6:	d00a      	beq.n	80062fe <USBD_StdEPReq+0xce>
 80062e8:	7bbb      	ldrb	r3, [r7, #14]
 80062ea:	4619      	mov	r1, r3
 80062ec:	6878      	ldr	r0, [r7, #4]
 80062ee:	f001 f96d 	bl	80075cc <USBD_LL_StallEP>
 80062f2:	2180      	movs	r1, #128	; 0x80
 80062f4:	6878      	ldr	r0, [r7, #4]
 80062f6:	f001 f969 	bl	80075cc <USBD_LL_StallEP>
 80062fa:	bf00      	nop
 80062fc:	e020      	b.n	8006340 <USBD_StdEPReq+0x110>
 80062fe:	6839      	ldr	r1, [r7, #0]
 8006300:	6878      	ldr	r0, [r7, #4]
 8006302:	f000 fc7a 	bl	8006bfa <USBD_CtlError>
 8006306:	e01b      	b.n	8006340 <USBD_StdEPReq+0x110>
 8006308:	683b      	ldr	r3, [r7, #0]
 800630a:	885b      	ldrh	r3, [r3, #2]
 800630c:	2b00      	cmp	r3, #0
 800630e:	d10e      	bne.n	800632e <USBD_StdEPReq+0xfe>
 8006310:	7bbb      	ldrb	r3, [r7, #14]
 8006312:	2b00      	cmp	r3, #0
 8006314:	d00b      	beq.n	800632e <USBD_StdEPReq+0xfe>
 8006316:	7bbb      	ldrb	r3, [r7, #14]
 8006318:	2b80      	cmp	r3, #128	; 0x80
 800631a:	d008      	beq.n	800632e <USBD_StdEPReq+0xfe>
 800631c:	683b      	ldr	r3, [r7, #0]
 800631e:	88db      	ldrh	r3, [r3, #6]
 8006320:	2b00      	cmp	r3, #0
 8006322:	d104      	bne.n	800632e <USBD_StdEPReq+0xfe>
 8006324:	7bbb      	ldrb	r3, [r7, #14]
 8006326:	4619      	mov	r1, r3
 8006328:	6878      	ldr	r0, [r7, #4]
 800632a:	f001 f94f 	bl	80075cc <USBD_LL_StallEP>
 800632e:	6878      	ldr	r0, [r7, #4]
 8006330:	f000 fd2e 	bl	8006d90 <USBD_CtlSendStatus>
 8006334:	e004      	b.n	8006340 <USBD_StdEPReq+0x110>
 8006336:	6839      	ldr	r1, [r7, #0]
 8006338:	6878      	ldr	r0, [r7, #4]
 800633a:	f000 fc5e 	bl	8006bfa <USBD_CtlError>
 800633e:	bf00      	nop
 8006340:	e107      	b.n	8006552 <USBD_StdEPReq+0x322>
 8006342:	687b      	ldr	r3, [r7, #4]
 8006344:	f893 329c 	ldrb.w	r3, [r3, #668]	; 0x29c
 8006348:	b2db      	uxtb	r3, r3
 800634a:	2b02      	cmp	r3, #2
 800634c:	d002      	beq.n	8006354 <USBD_StdEPReq+0x124>
 800634e:	2b03      	cmp	r3, #3
 8006350:	d016      	beq.n	8006380 <USBD_StdEPReq+0x150>
 8006352:	e04b      	b.n	80063ec <USBD_StdEPReq+0x1bc>
 8006354:	7bbb      	ldrb	r3, [r7, #14]
 8006356:	2b00      	cmp	r3, #0
 8006358:	d00d      	beq.n	8006376 <USBD_StdEPReq+0x146>
 800635a:	7bbb      	ldrb	r3, [r7, #14]
 800635c:	2b80      	cmp	r3, #128	; 0x80
 800635e:	d00a      	beq.n	8006376 <USBD_StdEPReq+0x146>
 8006360:	7bbb      	ldrb	r3, [r7, #14]
 8006362:	4619      	mov	r1, r3
 8006364:	6878      	ldr	r0, [r7, #4]
 8006366:	f001 f931 	bl	80075cc <USBD_LL_StallEP>
 800636a:	2180      	movs	r1, #128	; 0x80
 800636c:	6878      	ldr	r0, [r7, #4]
 800636e:	f001 f92d 	bl	80075cc <USBD_LL_StallEP>
 8006372:	bf00      	nop
 8006374:	e040      	b.n	80063f8 <USBD_StdEPReq+0x1c8>
 8006376:	6839      	ldr	r1, [r7, #0]
 8006378:	6878      	ldr	r0, [r7, #4]
 800637a:	f000 fc3e 	bl	8006bfa <USBD_CtlError>
 800637e:	e03b      	b.n	80063f8 <USBD_StdEPReq+0x1c8>
 8006380:	683b      	ldr	r3, [r7, #0]
 8006382:	885b      	ldrh	r3, [r3, #2]
 8006384:	2b00      	cmp	r3, #0
 8006386:	d136      	bne.n	80063f6 <USBD_StdEPReq+0x1c6>
 8006388:	7bbb      	ldrb	r3, [r7, #14]
 800638a:	f003 037f 	and.w	r3, r3, #127	; 0x7f
 800638e:	2b00      	cmp	r3, #0
 8006390:	d004      	beq.n	800639c <USBD_StdEPReq+0x16c>
 8006392:	7bbb      	ldrb	r3, [r7, #14]
 8006394:	4619      	mov	r1, r3
 8006396:	6878      	ldr	r0, [r7, #4]
 8006398:	f001 f937 	bl	800760a <USBD_LL_ClearStallEP>
 800639c:	6878      	ldr	r0, [r7, #4]
 800639e:	f000 fcf7 	bl	8006d90 <USBD_CtlSendStatus>
 80063a2:	7bbb      	ldrb	r3, [r7, #14]
 80063a4:	4619      	mov	r1, r3
 80063a6:	6878      	ldr	r0, [r7, #4]
 80063a8:	f7ff fde2 	bl	8005f70 <USBD_CoreFindEP>
 80063ac:	4603      	mov	r3, r0
 80063ae:	737b      	strb	r3, [r7, #13]
 80063b0:	7b7b      	ldrb	r3, [r7, #13]
 80063b2:	2bff      	cmp	r3, #255	; 0xff
 80063b4:	d01f      	beq.n	80063f6 <USBD_StdEPReq+0x1c6>
 80063b6:	7b7b      	ldrb	r3, [r7, #13]
 80063b8:	2b00      	cmp	r3, #0
 80063ba:	d11c      	bne.n	80063f6 <USBD_StdEPReq+0x1c6>
 80063bc:	7b7a      	ldrb	r2, [r7, #13]
 80063be:	687b      	ldr	r3, [r7, #4]
 80063c0:	f8c3 22d4 	str.w	r2, [r3, #724]	; 0x2d4
 80063c4:	7b7a      	ldrb	r2, [r7, #13]
 80063c6:	687b      	ldr	r3, [r7, #4]
 80063c8:	32ae      	adds	r2, #174	; 0xae
 80063ca:	f853 3022 	ldr.w	r3, [r3, r2, lsl #2]
 80063ce:	689b      	ldr	r3, [r3, #8]
 80063d0:	2b00      	cmp	r3, #0
 80063d2:	d010      	beq.n	80063f6 <USBD_StdEPReq+0x1c6>
 80063d4:	7b7a      	ldrb	r2, [r7, #13]
 80063d6:	687b      	ldr	r3, [r7, #4]
 80063d8:	32ae      	adds	r2, #174	; 0xae
 80063da:	f853 3022 	ldr.w	r3, [r3, r2, lsl #2]
 80063de:	689b      	ldr	r3, [r3, #8]
 80063e0:	6839      	ldr	r1, [r7, #0]
 80063e2:	6878      	ldr	r0, [r7, #4]
 80063e4:	4798      	blx	r3
 80063e6:	4603      	mov	r3, r0
 80063e8:	73fb      	strb	r3, [r7, #15]
 80063ea:	e004      	b.n	80063f6 <USBD_StdEPReq+0x1c6>
 80063ec:	6839      	ldr	r1, [r7, #0]
 80063ee:	6878      	ldr	r0, [r7, #4]
 80063f0:	f000 fc03 	bl	8006bfa <USBD_CtlError>
 80063f4:	e000      	b.n	80063f8 <USBD_StdEPReq+0x1c8>
 80063f6:	bf00      	nop
 80063f8:	e0ab      	b.n	8006552 <USBD_StdEPReq+0x322>
 80063fa:	687b      	ldr	r3, [r7, #4]
 80063fc:	f893 329c 	ldrb.w	r3, [r3, #668]	; 0x29c
 8006400:	b2db      	uxtb	r3, r3
 8006402:	2b02      	cmp	r3, #2
 8006404:	d002      	beq.n	800640c <USBD_StdEPReq+0x1dc>
 8006406:	2b03      	cmp	r3, #3
 8006408:	d032      	beq.n	8006470 <USBD_StdEPReq+0x240>
 800640a:	e097      	b.n	800653c <USBD_StdEPReq+0x30c>
 800640c:	7bbb      	ldrb	r3, [r7, #14]
 800640e:	2b00      	cmp	r3, #0
 8006410:	d007      	beq.n	8006422 <USBD_StdEPReq+0x1f2>
 8006412:	7bbb      	ldrb	r3, [r7, #14]
 8006414:	2b80      	cmp	r3, #128	; 0x80
 8006416:	d004      	beq.n	8006422 <USBD_StdEPReq+0x1f2>
 8006418:	6839      	ldr	r1, [r7, #0]
 800641a:	6878      	ldr	r0, [r7, #4]
 800641c:	f000 fbed 	bl	8006bfa <USBD_CtlError>
 8006420:	e091      	b.n	8006546 <USBD_StdEPReq+0x316>
 8006422:	f997 300e 	ldrsb.w	r3, [r7, #14]
 8006426:	2b00      	cmp	r3, #0
 8006428:	da0b      	bge.n	8006442 <USBD_StdEPReq+0x212>
 800642a:	7bbb      	ldrb	r3, [r7, #14]
 800642c:	f003 027f 	and.w	r2, r3, #127	; 0x7f
 8006430:	4613      	mov	r3, r2
 8006432:	009b      	lsls	r3, r3, #2
 8006434:	4413      	add	r3, r2
 8006436:	009b      	lsls	r3, r3, #2
 8006438:	3310      	adds	r3, #16
 800643a:	687a      	ldr	r2, [r7, #4]
 800643c:	4413      	add	r3, r2
 800643e:	3304      	adds	r3, #4
 8006440:	e00b      	b.n	800645a <USBD_StdEPReq+0x22a>
 8006442:	7bbb      	ldrb	r3, [r7, #14]
 8006444:	f003 027f 	and.w	r2, r3, #127	; 0x7f
 8006448:	4613      	mov	r3, r2
 800644a:	009b      	lsls	r3, r3, #2
 800644c:	4413      	add	r3, r2
 800644e:	009b      	lsls	r3, r3, #2
 8006450:	f503 73a8 	add.w	r3, r3, #336	; 0x150
 8006454:	687a      	ldr	r2, [r7, #4]
 8006456:	4413      	add	r3, r2
 8006458:	3304      	adds	r3, #4
 800645a:	60bb      	str	r3, [r7, #8]
 800645c:	68bb      	ldr	r3, [r7, #8]
 800645e:	2200      	movs	r2, #0
 8006460:	601a      	str	r2, [r3, #0]
 8006462:	68bb      	ldr	r3, [r7, #8]
 8006464:	2202      	movs	r2, #2
 8006466:	4619      	mov	r1, r3
 8006468:	6878      	ldr	r0, [r7, #4]
 800646a:	f000 fc37 	bl	8006cdc <USBD_CtlSendData>
 800646e:	e06a      	b.n	8006546 <USBD_StdEPReq+0x316>
 8006470:	f997 300e 	ldrsb.w	r3, [r7, #14]
 8006474:	2b00      	cmp	r3, #0
 8006476:	da11      	bge.n	800649c <USBD_StdEPReq+0x26c>
 8006478:	7bbb      	ldrb	r3, [r7, #14]
 800647a:	f003 020f 	and.w	r2, r3, #15
 800647e:	6879      	ldr	r1, [r7, #4]
 8006480:	4613      	mov	r3, r2
 8006482:	009b      	lsls	r3, r3, #2
 8006484:	4413      	add	r3, r2
 8006486:	009b      	lsls	r3, r3, #2
 8006488:	440b      	add	r3, r1
 800648a:	3324      	adds	r3, #36	; 0x24
 800648c:	881b      	ldrh	r3, [r3, #0]
 800648e:	2b00      	cmp	r3, #0
 8006490:	d117      	bne.n	80064c2 <USBD_StdEPReq+0x292>
 8006492:	6839      	ldr	r1, [r7, #0]
 8006494:	6878      	ldr	r0, [r7, #4]
 8006496:	f000 fbb0 	bl	8006bfa <USBD_CtlError>
 800649a:	e054      	b.n	8006546 <USBD_StdEPReq+0x316>
 800649c:	7bbb      	ldrb	r3, [r7, #14]
 800649e:	f003 020f 	and.w	r2, r3, #15
 80064a2:	6879      	ldr	r1, [r7, #4]
 80064a4:	4613      	mov	r3, r2
 80064a6:	009b      	lsls	r3, r3, #2
 80064a8:	4413      	add	r3, r2
 80064aa:	009b      	lsls	r3, r3, #2
 80064ac:	440b      	add	r3, r1
 80064ae:	f503 73b2 	add.w	r3, r3, #356	; 0x164
 80064b2:	881b      	ldrh	r3, [r3, #0]
 80064b4:	2b00      	cmp	r3, #0
 80064b6:	d104      	bne.n	80064c2 <USBD_StdEPReq+0x292>
 80064b8:	6839      	ldr	r1, [r7, #0]
 80064ba:	6878      	ldr	r0, [r7, #4]
 80064bc:	f000 fb9d 	bl	8006bfa <USBD_CtlError>
 80064c0:	e041      	b.n	8006546 <USBD_StdEPReq+0x316>
 80064c2:	f997 300e 	ldrsb.w	r3, [r7, #14]
 80064c6:	2b00      	cmp	r3, #0
 80064c8:	da0b      	bge.n	80064e2 <USBD_StdEPReq+0x2b2>
 80064ca:	7bbb      	ldrb	r3, [r7, #14]
 80064cc:	f003 027f 	and.w	r2, r3, #127	; 0x7f
 80064d0:	4613      	mov	r3, r2
 80064d2:	009b      	lsls	r3, r3, #2
 80064d4:	4413      	add	r3, r2
 80064d6:	009b      	lsls	r3, r3, #2
 80064d8:	3310      	adds	r3, #16
 80064da:	687a      	ldr	r2, [r7, #4]
 80064dc:	4413      	add	r3, r2
 80064de:	3304      	adds	r3, #4
 80064e0:	e00b      	b.n	80064fa <USBD_StdEPReq+0x2ca>
 80064e2:	7bbb      	ldrb	r3, [r7, #14]
 80064e4:	f003 027f 	and.w	r2, r3, #127	; 0x7f
 80064e8:	4613      	mov	r3, r2
 80064ea:	009b      	lsls	r3, r3, #2
 80064ec:	4413      	add	r3, r2
 80064ee:	009b      	lsls	r3, r3, #2
 80064f0:	f503 73a8 	add.w	r3, r3, #336	; 0x150
 80064f4:	687a      	ldr	r2, [r7, #4]
 80064f6:	4413      	add	r3, r2
 80064f8:	3304      	adds	r3, #4
 80064fa:	60bb      	str	r3, [r7, #8]
 80064fc:	7bbb      	ldrb	r3, [r7, #14]
 80064fe:	2b00      	cmp	r3, #0
 8006500:	d002      	beq.n	8006508 <USBD_StdEPReq+0x2d8>
 8006502:	7bbb      	ldrb	r3, [r7, #14]
 8006504:	2b80      	cmp	r3, #128	; 0x80
 8006506:	d103      	bne.n	8006510 <USBD_StdEPReq+0x2e0>
 8006508:	68bb      	ldr	r3, [r7, #8]
 800650a:	2200      	movs	r2, #0
 800650c:	601a      	str	r2, [r3, #0]
 800650e:	e00e      	b.n	800652e <USBD_StdEPReq+0x2fe>
 8006510:	7bbb      	ldrb	r3, [r7, #14]
 8006512:	4619      	mov	r1, r3
 8006514:	6878      	ldr	r0, [r7, #4]
 8006516:	f001 f897 	bl	8007648 <USBD_LL_IsStallEP>
 800651a:	4603      	mov	r3, r0
 800651c:	2b00      	cmp	r3, #0
 800651e:	d003      	beq.n	8006528 <USBD_StdEPReq+0x2f8>
 8006520:	68bb      	ldr	r3, [r7, #8]
 8006522:	2201      	movs	r2, #1
 8006524:	601a      	str	r2, [r3, #0]
 8006526:	e002      	b.n	800652e <USBD_StdEPReq+0x2fe>
 8006528:	68bb      	ldr	r3, [r7, #8]
 800652a:	2200      	movs	r2, #0
 800652c:	601a      	str	r2, [r3, #0]
 800652e:	68bb      	ldr	r3, [r7, #8]
 8006530:	2202      	movs	r2, #2
 8006532:	4619      	mov	r1, r3
 8006534:	6878      	ldr	r0, [r7, #4]
 8006536:	f000 fbd1 	bl	8006cdc <USBD_CtlSendData>
 800653a:	e004      	b.n	8006546 <USBD_StdEPReq+0x316>
 800653c:	6839      	ldr	r1, [r7, #0]
 800653e:	6878      	ldr	r0, [r7, #4]
 8006540:	f000 fb5b 	bl	8006bfa <USBD_CtlError>
 8006544:	bf00      	nop
 8006546:	e004      	b.n	8006552 <USBD_StdEPReq+0x322>
 8006548:	6839      	ldr	r1, [r7, #0]
 800654a:	6878      	ldr	r0, [r7, #4]
 800654c:	f000 fb55 	bl	8006bfa <USBD_CtlError>
 8006550:	bf00      	nop
 8006552:	e005      	b.n	8006560 <USBD_StdEPReq+0x330>
 8006554:	6839      	ldr	r1, [r7, #0]
 8006556:	6878      	ldr	r0, [r7, #4]
 8006558:	f000 fb4f 	bl	8006bfa <USBD_CtlError>
 800655c:	e000      	b.n	8006560 <USBD_StdEPReq+0x330>
 800655e:	bf00      	nop
 8006560:	7bfb      	ldrb	r3, [r7, #15]
 8006562:	4618      	mov	r0, r3
 8006564:	3710      	adds	r7, #16
 8006566:	46bd      	mov	sp, r7
 8006568:	bd80      	pop	{r7, pc}
	...

0800656c <USBD_GetDescriptor>:
 800656c:	b580      	push	{r7, lr}
 800656e:	b084      	sub	sp, #16
 8006570:	af00      	add	r7, sp, #0
 8006572:	6078      	str	r0, [r7, #4]
 8006574:	6039      	str	r1, [r7, #0]
 8006576:	2300      	movs	r3, #0
 8006578:	813b      	strh	r3, [r7, #8]
 800657a:	2300      	movs	r3, #0
 800657c:	60fb      	str	r3, [r7, #12]
 800657e:	2300      	movs	r3, #0
 8006580:	72fb      	strb	r3, [r7, #11]
 8006582:	683b      	ldr	r3, [r7, #0]
 8006584:	885b      	ldrh	r3, [r3, #2]
 8006586:	0a1b      	lsrs	r3, r3, #8
 8006588:	b29b      	uxth	r3, r3
 800658a:	3b01      	subs	r3, #1
 800658c:	2b06      	cmp	r3, #6
 800658e:	f200 8128 	bhi.w	80067e2 <USBD_GetDescriptor+0x276>
 8006592:	a201      	add	r2, pc, #4	; (adr r2, 8006598 <USBD_GetDescriptor+0x2c>)
 8006594:	f852 f023 	ldr.w	pc, [r2, r3, lsl #2]
 8006598:	080065b5 	.word	0x080065b5
 800659c:	080065cd 	.word	0x080065cd
 80065a0:	0800660d 	.word	0x0800660d
 80065a4:	080067e3 	.word	0x080067e3
 80065a8:	080067e3 	.word	0x080067e3
 80065ac:	08006783 	.word	0x08006783
 80065b0:	080067af 	.word	0x080067af
 80065b4:	687b      	ldr	r3, [r7, #4]
 80065b6:	f8d3 32b4 	ldr.w	r3, [r3, #692]	; 0x2b4
 80065ba:	681b      	ldr	r3, [r3, #0]
 80065bc:	687a      	ldr	r2, [r7, #4]
 80065be:	7c12      	ldrb	r2, [r2, #16]
 80065c0:	f107 0108 	add.w	r1, r7, #8
 80065c4:	4610      	mov	r0, r2
 80065c6:	4798      	blx	r3
 80065c8:	60f8      	str	r0, [r7, #12]
 80065ca:	e112      	b.n	80067f2 <USBD_GetDescriptor+0x286>
 80065cc:	687b      	ldr	r3, [r7, #4]
 80065ce:	7c1b      	ldrb	r3, [r3, #16]
 80065d0:	2b00      	cmp	r3, #0
 80065d2:	d10d      	bne.n	80065f0 <USBD_GetDescriptor+0x84>
 80065d4:	687b      	ldr	r3, [r7, #4]
 80065d6:	f8d3 32b8 	ldr.w	r3, [r3, #696]	; 0x2b8
 80065da:	6a9b      	ldr	r3, [r3, #40]	; 0x28
 80065dc:	f107 0208 	add.w	r2, r7, #8
 80065e0:	4610      	mov	r0, r2
 80065e2:	4798      	blx	r3
 80065e4:	60f8      	str	r0, [r7, #12]
 80065e6:	68fb      	ldr	r3, [r7, #12]
 80065e8:	3301      	adds	r3, #1
 80065ea:	2202      	movs	r2, #2
 80065ec:	701a      	strb	r2, [r3, #0]
 80065ee:	e100      	b.n	80067f2 <USBD_GetDescriptor+0x286>
 80065f0:	687b      	ldr	r3, [r7, #4]
 80065f2:	f8d3 32b8 	ldr.w	r3, [r3, #696]	; 0x2b8
 80065f6:	6adb      	ldr	r3, [r3, #44]	; 0x2c
 80065f8:	f107 0208 	add.w	r2, r7, #8
 80065fc:	4610      	mov	r0, r2
 80065fe:	4798      	blx	r3
 8006600:	60f8      	str	r0, [r7, #12]
 8006602:	68fb      	ldr	r3, [r7, #12]
 8006604:	3301      	adds	r3, #1
 8006606:	2202      	movs	r2, #2
 8006608:	701a      	strb	r2, [r3, #0]
 800660a:	e0f2      	b.n	80067f2 <USBD_GetDescriptor+0x286>
 800660c:	683b      	ldr	r3, [r7, #0]
 800660e:	885b      	ldrh	r3, [r3, #2]
 8006610:	b2db      	uxtb	r3, r3
 8006612:	2b05      	cmp	r3, #5
 8006614:	f200 80ac 	bhi.w	8006770 <USBD_GetDescriptor+0x204>
 8006618:	a201      	add	r2, pc, #4	; (adr r2, 8006620 <USBD_GetDescriptor+0xb4>)
 800661a:	f852 f023 	ldr.w	pc, [r2, r3, lsl #2]
 800661e:	bf00      	nop
 8006620:	08006639 	.word	0x08006639
 8006624:	0800666d 	.word	0x0800666d
 8006628:	080066a1 	.word	0x080066a1
 800662c:	080066d5 	.word	0x080066d5
 8006630:	08006709 	.word	0x08006709
 8006634:	0800673d 	.word	0x0800673d
 8006638:	687b      	ldr	r3, [r7, #4]
 800663a:	f8d3 32b4 	ldr.w	r3, [r3, #692]	; 0x2b4
 800663e:	685b      	ldr	r3, [r3, #4]
 8006640:	2b00      	cmp	r3, #0
 8006642:	d00b      	beq.n	800665c <USBD_GetDescriptor+0xf0>
 8006644:	687b      	ldr	r3, [r7, #4]
 8006646:	f8d3 32b4 	ldr.w	r3, [r3, #692]	; 0x2b4
 800664a:	685b      	ldr	r3, [r3, #4]
 800664c:	687a      	ldr	r2, [r7, #4]
 800664e:	7c12      	ldrb	r2, [r2, #16]
 8006650:	f107 0108 	add.w	r1, r7, #8
 8006654:	4610      	mov	r0, r2
 8006656:	4798      	blx	r3
 8006658:	60f8      	str	r0, [r7, #12]
 800665a:	e091      	b.n	8006780 <USBD_GetDescriptor+0x214>
 800665c:	6839      	ldr	r1, [r7, #0]
 800665e:	6878      	ldr	r0, [r7, #4]
 8006660:	f000 facb 	bl	8006bfa <USBD_CtlError>
 8006664:	7afb      	ldrb	r3, [r7, #11]
 8006666:	3301      	adds	r3, #1
 8006668:	72fb      	strb	r3, [r7, #11]
 800666a:	e089      	b.n	8006780 <USBD_GetDescriptor+0x214>
 800666c:	687b      	ldr	r3, [r7, #4]
 800666e:	f8d3 32b4 	ldr.w	r3, [r3, #692]	; 0x2b4
 8006672:	689b      	ldr	r3, [r3, #8]
 8006674:	2b00      	cmp	r3, #0
 8006676:	d00b      	beq.n	8006690 <USBD_GetDescriptor+0x124>
 8006678:	687b      	ldr	r3, [r7, #4]
 800667a:	f8d3 32b4 	ldr.w	r3, [r3, #692]	; 0x2b4
 800667e:	689b      	ldr	r3, [r3, #8]
 8006680:	687a      	ldr	r2, [r7, #4]
 8006682:	7c12      	ldrb	r2, [r2, #16]
 8006684:	f107 0108 	add.w	r1, r7, #8
 8006688:	4610      	mov	r0, r2
 800668a:	4798      	blx	r3
 800668c:	60f8      	str	r0, [r7, #12]
 800668e:	e077      	b.n	8006780 <USBD_GetDescriptor+0x214>
 8006690:	6839      	ldr	r1, [r7, #0]
 8006692:	6878      	ldr	r0, [r7, #4]
 8006694:	f000 fab1 	bl	8006bfa <USBD_CtlError>
 8006698:	7afb      	ldrb	r3, [r7, #11]
 800669a:	3301      	adds	r3, #1
 800669c:	72fb      	strb	r3, [r7, #11]
 800669e:	e06f      	b.n	8006780 <USBD_GetDescriptor+0x214>
 80066a0:	687b      	ldr	r3, [r7, #4]
 80066a2:	f8d3 32b4 	ldr.w	r3, [r3, #692]	; 0x2b4
 80066a6:	68db      	ldr	r3, [r3, #12]
 80066a8:	2b00      	cmp	r3, #0
 80066aa:	d00b      	beq.n	80066c4 <USBD_GetDescriptor+0x158>
 80066ac:	687b      	ldr	r3, [r7, #4]
 80066ae:	f8d3 32b4 	ldr.w	r3, [r3, #692]	; 0x2b4
 80066b2:	68db      	ldr	r3, [r3, #12]
 80066b4:	687a      	ldr	r2, [r7, #4]
 80066b6:	7c12      	ldrb	r2, [r2, #16]
 80066b8:	f107 0108 	add.w	r1, r7, #8
 80066bc:	4610      	mov	r0, r2
 80066be:	4798      	blx	r3
 80066c0:	60f8      	str	r0, [r7, #12]
 80066c2:	e05d      	b.n	8006780 <USBD_GetDescriptor+0x214>
 80066c4:	6839      	ldr	r1, [r7, #0]
 80066c6:	6878      	ldr	r0, [r7, #4]
 80066c8:	f000 fa97 	bl	8006bfa <USBD_CtlError>
 80066cc:	7afb      	ldrb	r3, [r7, #11]
 80066ce:	3301      	adds	r3, #1
 80066d0:	72fb      	strb	r3, [r7, #11]
 80066d2:	e055      	b.n	8006780 <USBD_GetDescriptor+0x214>
 80066d4:	687b      	ldr	r3, [r7, #4]
 80066d6:	f8d3 32b4 	ldr.w	r3, [r3, #692]	; 0x2b4
 80066da:	691b      	ldr	r3, [r3, #16]
 80066dc:	2b00      	cmp	r3, #0
 80066de:	d00b      	beq.n	80066f8 <USBD_GetDescriptor+0x18c>
 80066e0:	687b      	ldr	r3, [r7, #4]
 80066e2:	f8d3 32b4 	ldr.w	r3, [r3, #692]	; 0x2b4
 80066e6:	691b      	ldr	r3, [r3, #16]
 80066e8:	687a      	ldr	r2, [r7, #4]
 80066ea:	7c12      	ldrb	r2, [r2, #16]
 80066ec:	f107 0108 	add.w	r1, r7, #8
 80066f0:	4610      	mov	r0, r2
 80066f2:	4798      	blx	r3
 80066f4:	60f8      	str	r0, [r7, #12]
 80066f6:	e043      	b.n	8006780 <USBD_GetDescriptor+0x214>
 80066f8:	6839      	ldr	r1, [r7, #0]
 80066fa:	6878      	ldr	r0, [r7, #4]
 80066fc:	f000 fa7d 	bl	8006bfa <USBD_CtlError>
 8006700:	7afb      	ldrb	r3, [r7, #11]
 8006702:	3301      	adds	r3, #1
 8006704:	72fb      	strb	r3, [r7, #11]
 8006706:	e03b      	b.n	8006780 <USBD_GetDescriptor+0x214>
 8006708:	687b      	ldr	r3, [r7, #4]
 800670a:	f8d3 32b4 	ldr.w	r3, [r3, #692]	; 0x2b4
 800670e:	695b      	ldr	r3, [r3, #20]
 8006710:	2b00      	cmp	r3, #0
 8006712:	d00b      	beq.n	800672c <USBD_GetDescriptor+0x1c0>
 8006714:	687b      	ldr	r3, [r7, #4]
 8006716:	f8d3 32b4 	ldr.w	r3, [r3, #692]	; 0x2b4
 800671a:	695b      	ldr	r3, [r3, #20]
 800671c:	687a      	ldr	r2, [r7, #4]
 800671e:	7c12      	ldrb	r2, [r2, #16]
 8006720:	f107 0108 	add.w	r1, r7, #8
 8006724:	4610      	mov	r0, r2
 8006726:	4798      	blx	r3
 8006728:	60f8      	str	r0, [r7, #12]
 800672a:	e029      	b.n	8006780 <USBD_GetDescriptor+0x214>
 800672c:	6839      	ldr	r1, [r7, #0]
 800672e:	6878      	ldr	r0, [r7, #4]
 8006730:	f000 fa63 	bl	8006bfa <USBD_CtlError>
 8006734:	7afb      	ldrb	r3, [r7, #11]
 8006736:	3301      	adds	r3, #1
 8006738:	72fb      	strb	r3, [r7, #11]
 800673a:	e021      	b.n	8006780 <USBD_GetDescriptor+0x214>
 800673c:	687b      	ldr	r3, [r7, #4]
 800673e:	f8d3 32b4 	ldr.w	r3, [r3, #692]	; 0x2b4
 8006742:	699b      	ldr	r3, [r3, #24]
 8006744:	2b00      	cmp	r3, #0
 8006746:	d00b      	beq.n	8006760 <USBD_GetDescriptor+0x1f4>
 8006748:	687b      	ldr	r3, [r7, #4]
 800674a:	f8d3 32b4 	ldr.w	r3, [r3, #692]	; 0x2b4
 800674e:	699b      	ldr	r3, [r3, #24]
 8006750:	687a      	ldr	r2, [r7, #4]
 8006752:	7c12      	ldrb	r2, [r2, #16]
 8006754:	f107 0108 	add.w	r1, r7, #8
 8006758:	4610      	mov	r0, r2
 800675a:	4798      	blx	r3
 800675c:	60f8      	str	r0, [r7, #12]
 800675e:	e00f      	b.n	8006780 <USBD_GetDescriptor+0x214>
 8006760:	6839      	ldr	r1, [r7, #0]
 8006762:	6878      	ldr	r0, [r7, #4]
 8006764:	f000 fa49 	bl	8006bfa <USBD_CtlError>
 8006768:	7afb      	ldrb	r3, [r7, #11]
 800676a:	3301      	adds	r3, #1
 800676c:	72fb      	strb	r3, [r7, #11]
 800676e:	e007      	b.n	8006780 <USBD_GetDescriptor+0x214>
 8006770:	6839      	ldr	r1, [r7, #0]
 8006772:	6878      	ldr	r0, [r7, #4]
 8006774:	f000 fa41 	bl	8006bfa <USBD_CtlError>
 8006778:	7afb      	ldrb	r3, [r7, #11]
 800677a:	3301      	adds	r3, #1
 800677c:	72fb      	strb	r3, [r7, #11]
 800677e:	bf00      	nop
 8006780:	e037      	b.n	80067f2 <USBD_GetDescriptor+0x286>
 8006782:	687b      	ldr	r3, [r7, #4]
 8006784:	7c1b      	ldrb	r3, [r3, #16]
 8006786:	2b00      	cmp	r3, #0
 8006788:	d109      	bne.n	800679e <USBD_GetDescriptor+0x232>
 800678a:	687b      	ldr	r3, [r7, #4]
 800678c:	f8d3 32b8 	ldr.w	r3, [r3, #696]	; 0x2b8
 8006790:	6b5b      	ldr	r3, [r3, #52]	; 0x34
 8006792:	f107 0208 	add.w	r2, r7, #8
 8006796:	4610      	mov	r0, r2
 8006798:	4798      	blx	r3
 800679a:	60f8      	str	r0, [r7, #12]
 800679c:	e029      	b.n	80067f2 <USBD_GetDescriptor+0x286>
 800679e:	6839      	ldr	r1, [r7, #0]
 80067a0:	6878      	ldr	r0, [r7, #4]
 80067a2:	f000 fa2a 	bl	8006bfa <USBD_CtlError>
 80067a6:	7afb      	ldrb	r3, [r7, #11]
 80067a8:	3301      	adds	r3, #1
 80067aa:	72fb      	strb	r3, [r7, #11]
 80067ac:	e021      	b.n	80067f2 <USBD_GetDescriptor+0x286>
 80067ae:	687b      	ldr	r3, [r7, #4]
 80067b0:	7c1b      	ldrb	r3, [r3, #16]
 80067b2:	2b00      	cmp	r3, #0
 80067b4:	d10d      	bne.n	80067d2 <USBD_GetDescriptor+0x266>
 80067b6:	687b      	ldr	r3, [r7, #4]
 80067b8:	f8d3 32b8 	ldr.w	r3, [r3, #696]	; 0x2b8
 80067bc:	6b1b      	ldr	r3, [r3, #48]	; 0x30
 80067be:	f107 0208 	add.w	r2, r7, #8
 80067c2:	4610      	mov	r0, r2
 80067c4:	4798      	blx	r3
 80067c6:	60f8      	str	r0, [r7, #12]
 80067c8:	68fb      	ldr	r3, [r7, #12]
 80067ca:	3301      	adds	r3, #1
 80067cc:	2207      	movs	r2, #7
 80067ce:	701a      	strb	r2, [r3, #0]
 80067d0:	e00f      	b.n	80067f2 <USBD_GetDescriptor+0x286>
 80067d2:	6839      	ldr	r1, [r7, #0]
 80067d4:	6878      	ldr	r0, [r7, #4]
 80067d6:	f000 fa10 	bl	8006bfa <USBD_CtlError>
 80067da:	7afb      	ldrb	r3, [r7, #11]
 80067dc:	3301      	adds	r3, #1
 80067de:	72fb      	strb	r3, [r7, #11]
 80067e0:	e007      	b.n	80067f2 <USBD_GetDescriptor+0x286>
 80067e2:	6839      	ldr	r1, [r7, #0]
 80067e4:	6878      	ldr	r0, [r7, #4]
 80067e6:	f000 fa08 	bl	8006bfa <USBD_CtlError>
 80067ea:	7afb      	ldrb	r3, [r7, #11]
 80067ec:	3301      	adds	r3, #1
 80067ee:	72fb      	strb	r3, [r7, #11]
 80067f0:	bf00      	nop
 80067f2:	7afb      	ldrb	r3, [r7, #11]
 80067f4:	2b00      	cmp	r3, #0
 80067f6:	d11e      	bne.n	8006836 <USBD_GetDescriptor+0x2ca>
 80067f8:	683b      	ldr	r3, [r7, #0]
 80067fa:	88db      	ldrh	r3, [r3, #6]
 80067fc:	2b00      	cmp	r3, #0
 80067fe:	d016      	beq.n	800682e <USBD_GetDescriptor+0x2c2>
 8006800:	893b      	ldrh	r3, [r7, #8]
 8006802:	2b00      	cmp	r3, #0
 8006804:	d00e      	beq.n	8006824 <USBD_GetDescriptor+0x2b8>
 8006806:	683b      	ldr	r3, [r7, #0]
 8006808:	88da      	ldrh	r2, [r3, #6]
 800680a:	893b      	ldrh	r3, [r7, #8]
 800680c:	4293      	cmp	r3, r2
 800680e:	bf28      	it	cs
 8006810:	4613      	movcs	r3, r2
 8006812:	b29b      	uxth	r3, r3
 8006814:	813b      	strh	r3, [r7, #8]
 8006816:	893b      	ldrh	r3, [r7, #8]
 8006818:	461a      	mov	r2, r3
 800681a:	68f9      	ldr	r1, [r7, #12]
 800681c:	6878      	ldr	r0, [r7, #4]
 800681e:	f000 fa5d 	bl	8006cdc <USBD_CtlSendData>
 8006822:	e009      	b.n	8006838 <USBD_GetDescriptor+0x2cc>
 8006824:	6839      	ldr	r1, [r7, #0]
 8006826:	6878      	ldr	r0, [r7, #4]
 8006828:	f000 f9e7 	bl	8006bfa <USBD_CtlError>
 800682c:	e004      	b.n	8006838 <USBD_GetDescriptor+0x2cc>
 800682e:	6878      	ldr	r0, [r7, #4]
 8006830:	f000 faae 	bl	8006d90 <USBD_CtlSendStatus>
 8006834:	e000      	b.n	8006838 <USBD_GetDescriptor+0x2cc>
 8006836:	bf00      	nop
 8006838:	3710      	adds	r7, #16
 800683a:	46bd      	mov	sp, r7
 800683c:	bd80      	pop	{r7, pc}
 800683e:	bf00      	nop

08006840 <USBD_SetAddress>:
 8006840:	b580      	push	{r7, lr}
 8006842:	b084      	sub	sp, #16
 8006844:	af00      	add	r7, sp, #0
 8006846:	6078      	str	r0, [r7, #4]
 8006848:	6039      	str	r1, [r7, #0]
 800684a:	683b      	ldr	r3, [r7, #0]
 800684c:	889b      	ldrh	r3, [r3, #4]
 800684e:	2b00      	cmp	r3, #0
 8006850:	d131      	bne.n	80068b6 <USBD_SetAddress+0x76>
 8006852:	683b      	ldr	r3, [r7, #0]
 8006854:	88db      	ldrh	r3, [r3, #6]
 8006856:	2b00      	cmp	r3, #0
 8006858:	d12d      	bne.n	80068b6 <USBD_SetAddress+0x76>
 800685a:	683b      	ldr	r3, [r7, #0]
 800685c:	885b      	ldrh	r3, [r3, #2]
 800685e:	2b7f      	cmp	r3, #127	; 0x7f
 8006860:	d829      	bhi.n	80068b6 <USBD_SetAddress+0x76>
 8006862:	683b      	ldr	r3, [r7, #0]
 8006864:	885b      	ldrh	r3, [r3, #2]
 8006866:	b2db      	uxtb	r3, r3
 8006868:	f003 037f 	and.w	r3, r3, #127	; 0x7f
 800686c:	73fb      	strb	r3, [r7, #15]
 800686e:	687b      	ldr	r3, [r7, #4]
 8006870:	f893 329c 	ldrb.w	r3, [r3, #668]	; 0x29c
 8006874:	b2db      	uxtb	r3, r3
 8006876:	2b03      	cmp	r3, #3
 8006878:	d104      	bne.n	8006884 <USBD_SetAddress+0x44>
 800687a:	6839      	ldr	r1, [r7, #0]
 800687c:	6878      	ldr	r0, [r7, #4]
 800687e:	f000 f9bc 	bl	8006bfa <USBD_CtlError>
 8006882:	e01d      	b.n	80068c0 <USBD_SetAddress+0x80>
 8006884:	687b      	ldr	r3, [r7, #4]
 8006886:	7bfa      	ldrb	r2, [r7, #15]
 8006888:	f883 229e 	strb.w	r2, [r3, #670]	; 0x29e
 800688c:	7bfb      	ldrb	r3, [r7, #15]
 800688e:	4619      	mov	r1, r3
 8006890:	6878      	ldr	r0, [r7, #4]
 8006892:	f000 ff05 	bl	80076a0 <USBD_LL_SetUSBAddress>
 8006896:	6878      	ldr	r0, [r7, #4]
 8006898:	f000 fa7a 	bl	8006d90 <USBD_CtlSendStatus>
 800689c:	7bfb      	ldrb	r3, [r7, #15]
 800689e:	2b00      	cmp	r3, #0
 80068a0:	d004      	beq.n	80068ac <USBD_SetAddress+0x6c>
 80068a2:	687b      	ldr	r3, [r7, #4]
 80068a4:	2202      	movs	r2, #2
 80068a6:	f883 229c 	strb.w	r2, [r3, #668]	; 0x29c
 80068aa:	e009      	b.n	80068c0 <USBD_SetAddress+0x80>
 80068ac:	687b      	ldr	r3, [r7, #4]
 80068ae:	2201      	movs	r2, #1
 80068b0:	f883 229c 	strb.w	r2, [r3, #668]	; 0x29c
 80068b4:	e004      	b.n	80068c0 <USBD_SetAddress+0x80>
 80068b6:	6839      	ldr	r1, [r7, #0]
 80068b8:	6878      	ldr	r0, [r7, #4]
 80068ba:	f000 f99e 	bl	8006bfa <USBD_CtlError>
 80068be:	bf00      	nop
 80068c0:	bf00      	nop
 80068c2:	3710      	adds	r7, #16
 80068c4:	46bd      	mov	sp, r7
 80068c6:	bd80      	pop	{r7, pc}

080068c8 <USBD_SetConfig>:
 80068c8:	b580      	push	{r7, lr}
 80068ca:	b084      	sub	sp, #16
 80068cc:	af00      	add	r7, sp, #0
 80068ce:	6078      	str	r0, [r7, #4]
 80068d0:	6039      	str	r1, [r7, #0]
 80068d2:	2300      	movs	r3, #0
 80068d4:	73fb      	strb	r3, [r7, #15]
 80068d6:	683b      	ldr	r3, [r7, #0]
 80068d8:	885b      	ldrh	r3, [r3, #2]
 80068da:	b2da      	uxtb	r2, r3
 80068dc:	4b4e      	ldr	r3, [pc, #312]	; (8006a18 <USBD_SetConfig+0x150>)
 80068de:	701a      	strb	r2, [r3, #0]
 80068e0:	4b4d      	ldr	r3, [pc, #308]	; (8006a18 <USBD_SetConfig+0x150>)
 80068e2:	781b      	ldrb	r3, [r3, #0]
 80068e4:	2b01      	cmp	r3, #1
 80068e6:	d905      	bls.n	80068f4 <USBD_SetConfig+0x2c>
 80068e8:	6839      	ldr	r1, [r7, #0]
 80068ea:	6878      	ldr	r0, [r7, #4]
 80068ec:	f000 f985 	bl	8006bfa <USBD_CtlError>
 80068f0:	2303      	movs	r3, #3
 80068f2:	e08c      	b.n	8006a0e <USBD_SetConfig+0x146>
 80068f4:	687b      	ldr	r3, [r7, #4]
 80068f6:	f893 329c 	ldrb.w	r3, [r3, #668]	; 0x29c
 80068fa:	b2db      	uxtb	r3, r3
 80068fc:	2b02      	cmp	r3, #2
 80068fe:	d002      	beq.n	8006906 <USBD_SetConfig+0x3e>
 8006900:	2b03      	cmp	r3, #3
 8006902:	d029      	beq.n	8006958 <USBD_SetConfig+0x90>
 8006904:	e075      	b.n	80069f2 <USBD_SetConfig+0x12a>
 8006906:	4b44      	ldr	r3, [pc, #272]	; (8006a18 <USBD_SetConfig+0x150>)
 8006908:	781b      	ldrb	r3, [r3, #0]
 800690a:	2b00      	cmp	r3, #0
 800690c:	d020      	beq.n	8006950 <USBD_SetConfig+0x88>
 800690e:	4b42      	ldr	r3, [pc, #264]	; (8006a18 <USBD_SetConfig+0x150>)
 8006910:	781b      	ldrb	r3, [r3, #0]
 8006912:	461a      	mov	r2, r3
 8006914:	687b      	ldr	r3, [r7, #4]
 8006916:	605a      	str	r2, [r3, #4]
 8006918:	4b3f      	ldr	r3, [pc, #252]	; (8006a18 <USBD_SetConfig+0x150>)
 800691a:	781b      	ldrb	r3, [r3, #0]
 800691c:	4619      	mov	r1, r3
 800691e:	6878      	ldr	r0, [r7, #4]
 8006920:	f7fe ffe7 	bl	80058f2 <USBD_SetClassConfig>
 8006924:	4603      	mov	r3, r0
 8006926:	73fb      	strb	r3, [r7, #15]
 8006928:	7bfb      	ldrb	r3, [r7, #15]
 800692a:	2b00      	cmp	r3, #0
 800692c:	d008      	beq.n	8006940 <USBD_SetConfig+0x78>
 800692e:	6839      	ldr	r1, [r7, #0]
 8006930:	6878      	ldr	r0, [r7, #4]
 8006932:	f000 f962 	bl	8006bfa <USBD_CtlError>
 8006936:	687b      	ldr	r3, [r7, #4]
 8006938:	2202      	movs	r2, #2
 800693a:	f883 229c 	strb.w	r2, [r3, #668]	; 0x29c
 800693e:	e065      	b.n	8006a0c <USBD_SetConfig+0x144>
 8006940:	6878      	ldr	r0, [r7, #4]
 8006942:	f000 fa25 	bl	8006d90 <USBD_CtlSendStatus>
 8006946:	687b      	ldr	r3, [r7, #4]
 8006948:	2203      	movs	r2, #3
 800694a:	f883 229c 	strb.w	r2, [r3, #668]	; 0x29c
 800694e:	e05d      	b.n	8006a0c <USBD_SetConfig+0x144>
 8006950:	6878      	ldr	r0, [r7, #4]
 8006952:	f000 fa1d 	bl	8006d90 <USBD_CtlSendStatus>
 8006956:	e059      	b.n	8006a0c <USBD_SetConfig+0x144>
 8006958:	4b2f      	ldr	r3, [pc, #188]	; (8006a18 <USBD_SetConfig+0x150>)
 800695a:	781b      	ldrb	r3, [r3, #0]
 800695c:	2b00      	cmp	r3, #0
 800695e:	d112      	bne.n	8006986 <USBD_SetConfig+0xbe>
 8006960:	687b      	ldr	r3, [r7, #4]
 8006962:	2202      	movs	r2, #2
 8006964:	f883 229c 	strb.w	r2, [r3, #668]	; 0x29c
 8006968:	4b2b      	ldr	r3, [pc, #172]	; (8006a18 <USBD_SetConfig+0x150>)
 800696a:	781b      	ldrb	r3, [r3, #0]
 800696c:	461a      	mov	r2, r3
 800696e:	687b      	ldr	r3, [r7, #4]
 8006970:	605a      	str	r2, [r3, #4]
 8006972:	4b29      	ldr	r3, [pc, #164]	; (8006a18 <USBD_SetConfig+0x150>)
 8006974:	781b      	ldrb	r3, [r3, #0]
 8006976:	4619      	mov	r1, r3
 8006978:	6878      	ldr	r0, [r7, #4]
 800697a:	f7fe ffd6 	bl	800592a <USBD_ClrClassConfig>
 800697e:	6878      	ldr	r0, [r7, #4]
 8006980:	f000 fa06 	bl	8006d90 <USBD_CtlSendStatus>
 8006984:	e042      	b.n	8006a0c <USBD_SetConfig+0x144>
 8006986:	4b24      	ldr	r3, [pc, #144]	; (8006a18 <USBD_SetConfig+0x150>)
 8006988:	781b      	ldrb	r3, [r3, #0]
 800698a:	461a      	mov	r2, r3
 800698c:	687b      	ldr	r3, [r7, #4]
 800698e:	685b      	ldr	r3, [r3, #4]
 8006990:	429a      	cmp	r2, r3
 8006992:	d02a      	beq.n	80069ea <USBD_SetConfig+0x122>
 8006994:	687b      	ldr	r3, [r7, #4]
 8006996:	685b      	ldr	r3, [r3, #4]
 8006998:	b2db      	uxtb	r3, r3
 800699a:	4619      	mov	r1, r3
 800699c:	6878      	ldr	r0, [r7, #4]
 800699e:	f7fe ffc4 	bl	800592a <USBD_ClrClassConfig>
 80069a2:	4b1d      	ldr	r3, [pc, #116]	; (8006a18 <USBD_SetConfig+0x150>)
 80069a4:	781b      	ldrb	r3, [r3, #0]
 80069a6:	461a      	mov	r2, r3
 80069a8:	687b      	ldr	r3, [r7, #4]
 80069aa:	605a      	str	r2, [r3, #4]
 80069ac:	4b1a      	ldr	r3, [pc, #104]	; (8006a18 <USBD_SetConfig+0x150>)
 80069ae:	781b      	ldrb	r3, [r3, #0]
 80069b0:	4619      	mov	r1, r3
 80069b2:	6878      	ldr	r0, [r7, #4]
 80069b4:	f7fe ff9d 	bl	80058f2 <USBD_SetClassConfig>
 80069b8:	4603      	mov	r3, r0
 80069ba:	73fb      	strb	r3, [r7, #15]
 80069bc:	7bfb      	ldrb	r3, [r7, #15]
 80069be:	2b00      	cmp	r3, #0
 80069c0:	d00f      	beq.n	80069e2 <USBD_SetConfig+0x11a>
 80069c2:	6839      	ldr	r1, [r7, #0]
 80069c4:	6878      	ldr	r0, [r7, #4]
 80069c6:	f000 f918 	bl	8006bfa <USBD_CtlError>
 80069ca:	687b      	ldr	r3, [r7, #4]
 80069cc:	685b      	ldr	r3, [r3, #4]
 80069ce:	b2db      	uxtb	r3, r3
 80069d0:	4619      	mov	r1, r3
 80069d2:	6878      	ldr	r0, [r7, #4]
 80069d4:	f7fe ffa9 	bl	800592a <USBD_ClrClassConfig>
 80069d8:	687b      	ldr	r3, [r7, #4]
 80069da:	2202      	movs	r2, #2
 80069dc:	f883 229c 	strb.w	r2, [r3, #668]	; 0x29c
 80069e0:	e014      	b.n	8006a0c <USBD_SetConfig+0x144>
 80069e2:	6878      	ldr	r0, [r7, #4]
 80069e4:	f000 f9d4 	bl	8006d90 <USBD_CtlSendStatus>
 80069e8:	e010      	b.n	8006a0c <USBD_SetConfig+0x144>
 80069ea:	6878      	ldr	r0, [r7, #4]
 80069ec:	f000 f9d0 	bl	8006d90 <USBD_CtlSendStatus>
 80069f0:	e00c      	b.n	8006a0c <USBD_SetConfig+0x144>
 80069f2:	6839      	ldr	r1, [r7, #0]
 80069f4:	6878      	ldr	r0, [r7, #4]
 80069f6:	f000 f900 	bl	8006bfa <USBD_CtlError>
 80069fa:	4b07      	ldr	r3, [pc, #28]	; (8006a18 <USBD_SetConfig+0x150>)
 80069fc:	781b      	ldrb	r3, [r3, #0]
 80069fe:	4619      	mov	r1, r3
 8006a00:	6878      	ldr	r0, [r7, #4]
 8006a02:	f7fe ff92 	bl	800592a <USBD_ClrClassConfig>
 8006a06:	2303      	movs	r3, #3
 8006a08:	73fb      	strb	r3, [r7, #15]
 8006a0a:	bf00      	nop
 8006a0c:	7bfb      	ldrb	r3, [r7, #15]
 8006a0e:	4618      	mov	r0, r3
 8006a10:	3710      	adds	r7, #16
 8006a12:	46bd      	mov	sp, r7
 8006a14:	bd80      	pop	{r7, pc}
 8006a16:	bf00      	nop
 8006a18:	200001b4 	.word	0x200001b4

08006a1c <USBD_GetConfig>:
 8006a1c:	b580      	push	{r7, lr}
 8006a1e:	b082      	sub	sp, #8
 8006a20:	af00      	add	r7, sp, #0
 8006a22:	6078      	str	r0, [r7, #4]
 8006a24:	6039      	str	r1, [r7, #0]
 8006a26:	683b      	ldr	r3, [r7, #0]
 8006a28:	88db      	ldrh	r3, [r3, #6]
 8006a2a:	2b01      	cmp	r3, #1
 8006a2c:	d004      	beq.n	8006a38 <USBD_GetConfig+0x1c>
 8006a2e:	6839      	ldr	r1, [r7, #0]
 8006a30:	6878      	ldr	r0, [r7, #4]
 8006a32:	f000 f8e2 	bl	8006bfa <USBD_CtlError>
 8006a36:	e023      	b.n	8006a80 <USBD_GetConfig+0x64>
 8006a38:	687b      	ldr	r3, [r7, #4]
 8006a3a:	f893 329c 	ldrb.w	r3, [r3, #668]	; 0x29c
 8006a3e:	b2db      	uxtb	r3, r3
 8006a40:	2b02      	cmp	r3, #2
 8006a42:	dc02      	bgt.n	8006a4a <USBD_GetConfig+0x2e>
 8006a44:	2b00      	cmp	r3, #0
 8006a46:	dc03      	bgt.n	8006a50 <USBD_GetConfig+0x34>
 8006a48:	e015      	b.n	8006a76 <USBD_GetConfig+0x5a>
 8006a4a:	2b03      	cmp	r3, #3
 8006a4c:	d00b      	beq.n	8006a66 <USBD_GetConfig+0x4a>
 8006a4e:	e012      	b.n	8006a76 <USBD_GetConfig+0x5a>
 8006a50:	687b      	ldr	r3, [r7, #4]
 8006a52:	2200      	movs	r2, #0
 8006a54:	609a      	str	r2, [r3, #8]
 8006a56:	687b      	ldr	r3, [r7, #4]
 8006a58:	3308      	adds	r3, #8
 8006a5a:	2201      	movs	r2, #1
 8006a5c:	4619      	mov	r1, r3
 8006a5e:	6878      	ldr	r0, [r7, #4]
 8006a60:	f000 f93c 	bl	8006cdc <USBD_CtlSendData>
 8006a64:	e00c      	b.n	8006a80 <USBD_GetConfig+0x64>
 8006a66:	687b      	ldr	r3, [r7, #4]
 8006a68:	3304      	adds	r3, #4
 8006a6a:	2201      	movs	r2, #1
 8006a6c:	4619      	mov	r1, r3
 8006a6e:	6878      	ldr	r0, [r7, #4]
 8006a70:	f000 f934 	bl	8006cdc <USBD_CtlSendData>
 8006a74:	e004      	b.n	8006a80 <USBD_GetConfig+0x64>
 8006a76:	6839      	ldr	r1, [r7, #0]
 8006a78:	6878      	ldr	r0, [r7, #4]
 8006a7a:	f000 f8be 	bl	8006bfa <USBD_CtlError>
 8006a7e:	bf00      	nop
 8006a80:	bf00      	nop
 8006a82:	3708      	adds	r7, #8
 8006a84:	46bd      	mov	sp, r7
 8006a86:	bd80      	pop	{r7, pc}

08006a88 <USBD_GetStatus>:
 8006a88:	b580      	push	{r7, lr}
 8006a8a:	b082      	sub	sp, #8
 8006a8c:	af00      	add	r7, sp, #0
 8006a8e:	6078      	str	r0, [r7, #4]
 8006a90:	6039      	str	r1, [r7, #0]
 8006a92:	687b      	ldr	r3, [r7, #4]
 8006a94:	f893 329c 	ldrb.w	r3, [r3, #668]	; 0x29c
 8006a98:	b2db      	uxtb	r3, r3
 8006a9a:	3b01      	subs	r3, #1
 8006a9c:	2b02      	cmp	r3, #2
 8006a9e:	d81e      	bhi.n	8006ade <USBD_GetStatus+0x56>
 8006aa0:	683b      	ldr	r3, [r7, #0]
 8006aa2:	88db      	ldrh	r3, [r3, #6]
 8006aa4:	2b02      	cmp	r3, #2
 8006aa6:	d004      	beq.n	8006ab2 <USBD_GetStatus+0x2a>
 8006aa8:	6839      	ldr	r1, [r7, #0]
 8006aaa:	6878      	ldr	r0, [r7, #4]
 8006aac:	f000 f8a5 	bl	8006bfa <USBD_CtlError>
 8006ab0:	e01a      	b.n	8006ae8 <USBD_GetStatus+0x60>
 8006ab2:	687b      	ldr	r3, [r7, #4]
 8006ab4:	2201      	movs	r2, #1
 8006ab6:	60da      	str	r2, [r3, #12]
 8006ab8:	687b      	ldr	r3, [r7, #4]
 8006aba:	f8d3 32a4 	ldr.w	r3, [r3, #676]	; 0x2a4
 8006abe:	2b00      	cmp	r3, #0
 8006ac0:	d005      	beq.n	8006ace <USBD_GetStatus+0x46>
 8006ac2:	687b      	ldr	r3, [r7, #4]
 8006ac4:	68db      	ldr	r3, [r3, #12]
 8006ac6:	f043 0202 	orr.w	r2, r3, #2
 8006aca:	687b      	ldr	r3, [r7, #4]
 8006acc:	60da      	str	r2, [r3, #12]
 8006ace:	687b      	ldr	r3, [r7, #4]
 8006ad0:	330c      	adds	r3, #12
 8006ad2:	2202      	movs	r2, #2
 8006ad4:	4619      	mov	r1, r3
 8006ad6:	6878      	ldr	r0, [r7, #4]
 8006ad8:	f000 f900 	bl	8006cdc <USBD_CtlSendData>
 8006adc:	e004      	b.n	8006ae8 <USBD_GetStatus+0x60>
 8006ade:	6839      	ldr	r1, [r7, #0]
 8006ae0:	6878      	ldr	r0, [r7, #4]
 8006ae2:	f000 f88a 	bl	8006bfa <USBD_CtlError>
 8006ae6:	bf00      	nop
 8006ae8:	bf00      	nop
 8006aea:	3708      	adds	r7, #8
 8006aec:	46bd      	mov	sp, r7
 8006aee:	bd80      	pop	{r7, pc}

08006af0 <USBD_SetFeature>:
 8006af0:	b580      	push	{r7, lr}
 8006af2:	b082      	sub	sp, #8
 8006af4:	af00      	add	r7, sp, #0
 8006af6:	6078      	str	r0, [r7, #4]
 8006af8:	6039      	str	r1, [r7, #0]
 8006afa:	683b      	ldr	r3, [r7, #0]
 8006afc:	885b      	ldrh	r3, [r3, #2]
 8006afe:	2b01      	cmp	r3, #1
 8006b00:	d107      	bne.n	8006b12 <USBD_SetFeature+0x22>
 8006b02:	687b      	ldr	r3, [r7, #4]
 8006b04:	2201      	movs	r2, #1
 8006b06:	f8c3 22a4 	str.w	r2, [r3, #676]	; 0x2a4
 8006b0a:	6878      	ldr	r0, [r7, #4]
 8006b0c:	f000 f940 	bl	8006d90 <USBD_CtlSendStatus>
 8006b10:	e013      	b.n	8006b3a <USBD_SetFeature+0x4a>
 8006b12:	683b      	ldr	r3, [r7, #0]
 8006b14:	885b      	ldrh	r3, [r3, #2]
 8006b16:	2b02      	cmp	r3, #2
 8006b18:	d10b      	bne.n	8006b32 <USBD_SetFeature+0x42>
 8006b1a:	683b      	ldr	r3, [r7, #0]
 8006b1c:	889b      	ldrh	r3, [r3, #4]
 8006b1e:	0a1b      	lsrs	r3, r3, #8
 8006b20:	b29b      	uxth	r3, r3
 8006b22:	b2da      	uxtb	r2, r3
 8006b24:	687b      	ldr	r3, [r7, #4]
 8006b26:	f883 22a0 	strb.w	r2, [r3, #672]	; 0x2a0
 8006b2a:	6878      	ldr	r0, [r7, #4]
 8006b2c:	f000 f930 	bl	8006d90 <USBD_CtlSendStatus>
 8006b30:	e003      	b.n	8006b3a <USBD_SetFeature+0x4a>
 8006b32:	6839      	ldr	r1, [r7, #0]
 8006b34:	6878      	ldr	r0, [r7, #4]
 8006b36:	f000 f860 	bl	8006bfa <USBD_CtlError>
 8006b3a:	bf00      	nop
 8006b3c:	3708      	adds	r7, #8
 8006b3e:	46bd      	mov	sp, r7
 8006b40:	bd80      	pop	{r7, pc}

08006b42 <USBD_ClrFeature>:
 8006b42:	b580      	push	{r7, lr}
 8006b44:	b082      	sub	sp, #8
 8006b46:	af00      	add	r7, sp, #0
 8006b48:	6078      	str	r0, [r7, #4]
 8006b4a:	6039      	str	r1, [r7, #0]
 8006b4c:	687b      	ldr	r3, [r7, #4]
 8006b4e:	f893 329c 	ldrb.w	r3, [r3, #668]	; 0x29c
 8006b52:	b2db      	uxtb	r3, r3
 8006b54:	3b01      	subs	r3, #1
 8006b56:	2b02      	cmp	r3, #2
 8006b58:	d80b      	bhi.n	8006b72 <USBD_ClrFeature+0x30>
 8006b5a:	683b      	ldr	r3, [r7, #0]
 8006b5c:	885b      	ldrh	r3, [r3, #2]
 8006b5e:	2b01      	cmp	r3, #1
 8006b60:	d10c      	bne.n	8006b7c <USBD_ClrFeature+0x3a>
 8006b62:	687b      	ldr	r3, [r7, #4]
 8006b64:	2200      	movs	r2, #0
 8006b66:	f8c3 22a4 	str.w	r2, [r3, #676]	; 0x2a4
 8006b6a:	6878      	ldr	r0, [r7, #4]
 8006b6c:	f000 f910 	bl	8006d90 <USBD_CtlSendStatus>
 8006b70:	e004      	b.n	8006b7c <USBD_ClrFeature+0x3a>
 8006b72:	6839      	ldr	r1, [r7, #0]
 8006b74:	6878      	ldr	r0, [r7, #4]
 8006b76:	f000 f840 	bl	8006bfa <USBD_CtlError>
 8006b7a:	e000      	b.n	8006b7e <USBD_ClrFeature+0x3c>
 8006b7c:	bf00      	nop
 8006b7e:	bf00      	nop
 8006b80:	3708      	adds	r7, #8
 8006b82:	46bd      	mov	sp, r7
 8006b84:	bd80      	pop	{r7, pc}

08006b86 <USBD_ParseSetupRequest>:
 8006b86:	b580      	push	{r7, lr}
 8006b88:	b084      	sub	sp, #16
 8006b8a:	af00      	add	r7, sp, #0
 8006b8c:	6078      	str	r0, [r7, #4]
 8006b8e:	6039      	str	r1, [r7, #0]
 8006b90:	683b      	ldr	r3, [r7, #0]
 8006b92:	60fb      	str	r3, [r7, #12]
 8006b94:	68fb      	ldr	r3, [r7, #12]
 8006b96:	781a      	ldrb	r2, [r3, #0]
 8006b98:	687b      	ldr	r3, [r7, #4]
 8006b9a:	701a      	strb	r2, [r3, #0]
 8006b9c:	68fb      	ldr	r3, [r7, #12]
 8006b9e:	3301      	adds	r3, #1
 8006ba0:	60fb      	str	r3, [r7, #12]
 8006ba2:	68fb      	ldr	r3, [r7, #12]
 8006ba4:	781a      	ldrb	r2, [r3, #0]
 8006ba6:	687b      	ldr	r3, [r7, #4]
 8006ba8:	705a      	strb	r2, [r3, #1]
 8006baa:	68fb      	ldr	r3, [r7, #12]
 8006bac:	3301      	adds	r3, #1
 8006bae:	60fb      	str	r3, [r7, #12]
 8006bb0:	68f8      	ldr	r0, [r7, #12]
 8006bb2:	f7ff fa41 	bl	8006038 <SWAPBYTE>
 8006bb6:	4603      	mov	r3, r0
 8006bb8:	461a      	mov	r2, r3
 8006bba:	687b      	ldr	r3, [r7, #4]
 8006bbc:	805a      	strh	r2, [r3, #2]
 8006bbe:	68fb      	ldr	r3, [r7, #12]
 8006bc0:	3301      	adds	r3, #1
 8006bc2:	60fb      	str	r3, [r7, #12]
 8006bc4:	68fb      	ldr	r3, [r7, #12]
 8006bc6:	3301      	adds	r3, #1
 8006bc8:	60fb      	str	r3, [r7, #12]
 8006bca:	68f8      	ldr	r0, [r7, #12]
 8006bcc:	f7ff fa34 	bl	8006038 <SWAPBYTE>
 8006bd0:	4603      	mov	r3, r0
 8006bd2:	461a      	mov	r2, r3
 8006bd4:	687b      	ldr	r3, [r7, #4]
 8006bd6:	809a      	strh	r2, [r3, #4]
 8006bd8:	68fb      	ldr	r3, [r7, #12]
 8006bda:	3301      	adds	r3, #1
 8006bdc:	60fb      	str	r3, [r7, #12]
 8006bde:	68fb      	ldr	r3, [r7, #12]
 8006be0:	3301      	adds	r3, #1
 8006be2:	60fb      	str	r3, [r7, #12]
 8006be4:	68f8      	ldr	r0, [r7, #12]
 8006be6:	f7ff fa27 	bl	8006038 <SWAPBYTE>
 8006bea:	4603      	mov	r3, r0
 8006bec:	461a      	mov	r2, r3
 8006bee:	687b      	ldr	r3, [r7, #4]
 8006bf0:	80da      	strh	r2, [r3, #6]
 8006bf2:	bf00      	nop
 8006bf4:	3710      	adds	r7, #16
 8006bf6:	46bd      	mov	sp, r7
 8006bf8:	bd80      	pop	{r7, pc}

08006bfa <USBD_CtlError>:
 8006bfa:	b580      	push	{r7, lr}
 8006bfc:	b082      	sub	sp, #8
 8006bfe:	af00      	add	r7, sp, #0
 8006c00:	6078      	str	r0, [r7, #4]
 8006c02:	6039      	str	r1, [r7, #0]
 8006c04:	2180      	movs	r1, #128	; 0x80
 8006c06:	6878      	ldr	r0, [r7, #4]
 8006c08:	f000 fce0 	bl	80075cc <USBD_LL_StallEP>
 8006c0c:	2100      	movs	r1, #0
 8006c0e:	6878      	ldr	r0, [r7, #4]
 8006c10:	f000 fcdc 	bl	80075cc <USBD_LL_StallEP>
 8006c14:	bf00      	nop
 8006c16:	3708      	adds	r7, #8
 8006c18:	46bd      	mov	sp, r7
 8006c1a:	bd80      	pop	{r7, pc}

08006c1c <USBD_GetString>:
 8006c1c:	b580      	push	{r7, lr}
 8006c1e:	b086      	sub	sp, #24
 8006c20:	af00      	add	r7, sp, #0
 8006c22:	60f8      	str	r0, [r7, #12]
 8006c24:	60b9      	str	r1, [r7, #8]
 8006c26:	607a      	str	r2, [r7, #4]
 8006c28:	2300      	movs	r3, #0
 8006c2a:	75fb      	strb	r3, [r7, #23]
 8006c2c:	68fb      	ldr	r3, [r7, #12]
 8006c2e:	2b00      	cmp	r3, #0
 8006c30:	d036      	beq.n	8006ca0 <USBD_GetString+0x84>
 8006c32:	68fb      	ldr	r3, [r7, #12]
 8006c34:	613b      	str	r3, [r7, #16]
 8006c36:	6938      	ldr	r0, [r7, #16]
 8006c38:	f000 f836 	bl	8006ca8 <USBD_GetLen>
 8006c3c:	4603      	mov	r3, r0
 8006c3e:	3301      	adds	r3, #1
 8006c40:	b29b      	uxth	r3, r3
 8006c42:	005b      	lsls	r3, r3, #1
 8006c44:	b29a      	uxth	r2, r3
 8006c46:	687b      	ldr	r3, [r7, #4]
 8006c48:	801a      	strh	r2, [r3, #0]
 8006c4a:	7dfb      	ldrb	r3, [r7, #23]
 8006c4c:	68ba      	ldr	r2, [r7, #8]
 8006c4e:	4413      	add	r3, r2
 8006c50:	687a      	ldr	r2, [r7, #4]
 8006c52:	7812      	ldrb	r2, [r2, #0]
 8006c54:	701a      	strb	r2, [r3, #0]
 8006c56:	7dfb      	ldrb	r3, [r7, #23]
 8006c58:	3301      	adds	r3, #1
 8006c5a:	75fb      	strb	r3, [r7, #23]
 8006c5c:	7dfb      	ldrb	r3, [r7, #23]
 8006c5e:	68ba      	ldr	r2, [r7, #8]
 8006c60:	4413      	add	r3, r2
 8006c62:	2203      	movs	r2, #3
 8006c64:	701a      	strb	r2, [r3, #0]
 8006c66:	7dfb      	ldrb	r3, [r7, #23]
 8006c68:	3301      	adds	r3, #1
 8006c6a:	75fb      	strb	r3, [r7, #23]
 8006c6c:	e013      	b.n	8006c96 <USBD_GetString+0x7a>
 8006c6e:	7dfb      	ldrb	r3, [r7, #23]
 8006c70:	68ba      	ldr	r2, [r7, #8]
 8006c72:	4413      	add	r3, r2
 8006c74:	693a      	ldr	r2, [r7, #16]
 8006c76:	7812      	ldrb	r2, [r2, #0]
 8006c78:	701a      	strb	r2, [r3, #0]
 8006c7a:	693b      	ldr	r3, [r7, #16]
 8006c7c:	3301      	adds	r3, #1
 8006c7e:	613b      	str	r3, [r7, #16]
 8006c80:	7dfb      	ldrb	r3, [r7, #23]
 8006c82:	3301      	adds	r3, #1
 8006c84:	75fb      	strb	r3, [r7, #23]
 8006c86:	7dfb      	ldrb	r3, [r7, #23]
 8006c88:	68ba      	ldr	r2, [r7, #8]
 8006c8a:	4413      	add	r3, r2
 8006c8c:	2200      	movs	r2, #0
 8006c8e:	701a      	strb	r2, [r3, #0]
 8006c90:	7dfb      	ldrb	r3, [r7, #23]
 8006c92:	3301      	adds	r3, #1
 8006c94:	75fb      	strb	r3, [r7, #23]
 8006c96:	693b      	ldr	r3, [r7, #16]
 8006c98:	781b      	ldrb	r3, [r3, #0]
 8006c9a:	2b00      	cmp	r3, #0
 8006c9c:	d1e7      	bne.n	8006c6e <USBD_GetString+0x52>
 8006c9e:	e000      	b.n	8006ca2 <USBD_GetString+0x86>
 8006ca0:	bf00      	nop
 8006ca2:	3718      	adds	r7, #24
 8006ca4:	46bd      	mov	sp, r7
 8006ca6:	bd80      	pop	{r7, pc}

08006ca8 <USBD_GetLen>:
 8006ca8:	b480      	push	{r7}
 8006caa:	b085      	sub	sp, #20
 8006cac:	af00      	add	r7, sp, #0
 8006cae:	6078      	str	r0, [r7, #4]
 8006cb0:	2300      	movs	r3, #0
 8006cb2:	73fb      	strb	r3, [r7, #15]
 8006cb4:	687b      	ldr	r3, [r7, #4]
 8006cb6:	60bb      	str	r3, [r7, #8]
 8006cb8:	e005      	b.n	8006cc6 <USBD_GetLen+0x1e>
 8006cba:	7bfb      	ldrb	r3, [r7, #15]
 8006cbc:	3301      	adds	r3, #1
 8006cbe:	73fb      	strb	r3, [r7, #15]
 8006cc0:	68bb      	ldr	r3, [r7, #8]
 8006cc2:	3301      	adds	r3, #1
 8006cc4:	60bb      	str	r3, [r7, #8]
 8006cc6:	68bb      	ldr	r3, [r7, #8]
 8006cc8:	781b      	ldrb	r3, [r3, #0]
 8006cca:	2b00      	cmp	r3, #0
 8006ccc:	d1f5      	bne.n	8006cba <USBD_GetLen+0x12>
 8006cce:	7bfb      	ldrb	r3, [r7, #15]
 8006cd0:	4618      	mov	r0, r3
 8006cd2:	3714      	adds	r7, #20
 8006cd4:	46bd      	mov	sp, r7
 8006cd6:	f85d 7b04 	ldr.w	r7, [sp], #4
 8006cda:	4770      	bx	lr

08006cdc <USBD_CtlSendData>:
 8006cdc:	b580      	push	{r7, lr}
 8006cde:	b084      	sub	sp, #16
 8006ce0:	af00      	add	r7, sp, #0
 8006ce2:	60f8      	str	r0, [r7, #12]
 8006ce4:	60b9      	str	r1, [r7, #8]
 8006ce6:	607a      	str	r2, [r7, #4]
 8006ce8:	68fb      	ldr	r3, [r7, #12]
 8006cea:	2202      	movs	r2, #2
 8006cec:	f8c3 2294 	str.w	r2, [r3, #660]	; 0x294
 8006cf0:	68fb      	ldr	r3, [r7, #12]
 8006cf2:	687a      	ldr	r2, [r7, #4]
 8006cf4:	619a      	str	r2, [r3, #24]
 8006cf6:	68fb      	ldr	r3, [r7, #12]
 8006cf8:	687a      	ldr	r2, [r7, #4]
 8006cfa:	61da      	str	r2, [r3, #28]
 8006cfc:	687b      	ldr	r3, [r7, #4]
 8006cfe:	68ba      	ldr	r2, [r7, #8]
 8006d00:	2100      	movs	r1, #0
 8006d02:	68f8      	ldr	r0, [r7, #12]
 8006d04:	f000 fceb 	bl	80076de <USBD_LL_Transmit>
 8006d08:	2300      	movs	r3, #0
 8006d0a:	4618      	mov	r0, r3
 8006d0c:	3710      	adds	r7, #16
 8006d0e:	46bd      	mov	sp, r7
 8006d10:	bd80      	pop	{r7, pc}

08006d12 <USBD_CtlContinueSendData>:
 8006d12:	b580      	push	{r7, lr}
 8006d14:	b084      	sub	sp, #16
 8006d16:	af00      	add	r7, sp, #0
 8006d18:	60f8      	str	r0, [r7, #12]
 8006d1a:	60b9      	str	r1, [r7, #8]
 8006d1c:	607a      	str	r2, [r7, #4]
 8006d1e:	687b      	ldr	r3, [r7, #4]
 8006d20:	68ba      	ldr	r2, [r7, #8]
 8006d22:	2100      	movs	r1, #0
 8006d24:	68f8      	ldr	r0, [r7, #12]
 8006d26:	f000 fcda 	bl	80076de <USBD_LL_Transmit>
 8006d2a:	2300      	movs	r3, #0
 8006d2c:	4618      	mov	r0, r3
 8006d2e:	3710      	adds	r7, #16
 8006d30:	46bd      	mov	sp, r7
 8006d32:	bd80      	pop	{r7, pc}

08006d34 <USBD_CtlPrepareRx>:
 8006d34:	b580      	push	{r7, lr}
 8006d36:	b084      	sub	sp, #16
 8006d38:	af00      	add	r7, sp, #0
 8006d3a:	60f8      	str	r0, [r7, #12]
 8006d3c:	60b9      	str	r1, [r7, #8]
 8006d3e:	607a      	str	r2, [r7, #4]
 8006d40:	68fb      	ldr	r3, [r7, #12]
 8006d42:	2203      	movs	r2, #3
 8006d44:	f8c3 2294 	str.w	r2, [r3, #660]	; 0x294
 8006d48:	68fb      	ldr	r3, [r7, #12]
 8006d4a:	687a      	ldr	r2, [r7, #4]
 8006d4c:	f8c3 2158 	str.w	r2, [r3, #344]	; 0x158
 8006d50:	68fb      	ldr	r3, [r7, #12]
 8006d52:	687a      	ldr	r2, [r7, #4]
 8006d54:	f8c3 215c 	str.w	r2, [r3, #348]	; 0x15c
 8006d58:	687b      	ldr	r3, [r7, #4]
 8006d5a:	68ba      	ldr	r2, [r7, #8]
 8006d5c:	2100      	movs	r1, #0
 8006d5e:	68f8      	ldr	r0, [r7, #12]
 8006d60:	f000 fcde 	bl	8007720 <USBD_LL_PrepareReceive>
 8006d64:	2300      	movs	r3, #0
 8006d66:	4618      	mov	r0, r3
 8006d68:	3710      	adds	r7, #16
 8006d6a:	46bd      	mov	sp, r7
 8006d6c:	bd80      	pop	{r7, pc}

08006d6e <USBD_CtlContinueRx>:
 8006d6e:	b580      	push	{r7, lr}
 8006d70:	b084      	sub	sp, #16
 8006d72:	af00      	add	r7, sp, #0
 8006d74:	60f8      	str	r0, [r7, #12]
 8006d76:	60b9      	str	r1, [r7, #8]
 8006d78:	607a      	str	r2, [r7, #4]
 8006d7a:	687b      	ldr	r3, [r7, #4]
 8006d7c:	68ba      	ldr	r2, [r7, #8]
 8006d7e:	2100      	movs	r1, #0
 8006d80:	68f8      	ldr	r0, [r7, #12]
 8006d82:	f000 fccd 	bl	8007720 <USBD_LL_PrepareReceive>
 8006d86:	2300      	movs	r3, #0
 8006d88:	4618      	mov	r0, r3
 8006d8a:	3710      	adds	r7, #16
 8006d8c:	46bd      	mov	sp, r7
 8006d8e:	bd80      	pop	{r7, pc}

08006d90 <USBD_CtlSendStatus>:
 8006d90:	b580      	push	{r7, lr}
 8006d92:	b082      	sub	sp, #8
 8006d94:	af00      	add	r7, sp, #0
 8006d96:	6078      	str	r0, [r7, #4]
 8006d98:	687b      	ldr	r3, [r7, #4]
 8006d9a:	2204      	movs	r2, #4
 8006d9c:	f8c3 2294 	str.w	r2, [r3, #660]	; 0x294
 8006da0:	2300      	movs	r3, #0
 8006da2:	2200      	movs	r2, #0
 8006da4:	2100      	movs	r1, #0
 8006da6:	6878      	ldr	r0, [r7, #4]
 8006da8:	f000 fc99 	bl	80076de <USBD_LL_Transmit>
 8006dac:	2300      	movs	r3, #0
 8006dae:	4618      	mov	r0, r3
 8006db0:	3708      	adds	r7, #8
 8006db2:	46bd      	mov	sp, r7
 8006db4:	bd80      	pop	{r7, pc}

08006db6 <USBD_CtlReceiveStatus>:
 8006db6:	b580      	push	{r7, lr}
 8006db8:	b082      	sub	sp, #8
 8006dba:	af00      	add	r7, sp, #0
 8006dbc:	6078      	str	r0, [r7, #4]
 8006dbe:	687b      	ldr	r3, [r7, #4]
 8006dc0:	2205      	movs	r2, #5
 8006dc2:	f8c3 2294 	str.w	r2, [r3, #660]	; 0x294
 8006dc6:	2300      	movs	r3, #0
 8006dc8:	2200      	movs	r2, #0
 8006dca:	2100      	movs	r1, #0
 8006dcc:	6878      	ldr	r0, [r7, #4]
 8006dce:	f000 fca7 	bl	8007720 <USBD_LL_PrepareReceive>
 8006dd2:	2300      	movs	r3, #0
 8006dd4:	4618      	mov	r0, r3
 8006dd6:	3708      	adds	r7, #8
 8006dd8:	46bd      	mov	sp, r7
 8006dda:	bd80      	pop	{r7, pc}

08006ddc <MX_USB_DEVICE_Init>:
 8006ddc:	b580      	push	{r7, lr}
 8006dde:	af00      	add	r7, sp, #0
 8006de0:	2200      	movs	r2, #0
 8006de2:	4912      	ldr	r1, [pc, #72]	; (8006e2c <MX_USB_DEVICE_Init+0x50>)
 8006de4:	4812      	ldr	r0, [pc, #72]	; (8006e30 <MX_USB_DEVICE_Init+0x54>)
 8006de6:	f7fe fd07 	bl	80057f8 <USBD_Init>
 8006dea:	4603      	mov	r3, r0
 8006dec:	2b00      	cmp	r3, #0
 8006dee:	d001      	beq.n	8006df4 <MX_USB_DEVICE_Init+0x18>
 8006df0:	f7f9 fd62 	bl	80008b8 <Error_Handler>
 8006df4:	490f      	ldr	r1, [pc, #60]	; (8006e34 <MX_USB_DEVICE_Init+0x58>)
 8006df6:	480e      	ldr	r0, [pc, #56]	; (8006e30 <MX_USB_DEVICE_Init+0x54>)
 8006df8:	f7fe fd2e 	bl	8005858 <USBD_RegisterClass>
 8006dfc:	4603      	mov	r3, r0
 8006dfe:	2b00      	cmp	r3, #0
 8006e00:	d001      	beq.n	8006e06 <MX_USB_DEVICE_Init+0x2a>
 8006e02:	f7f9 fd59 	bl	80008b8 <Error_Handler>
 8006e06:	490c      	ldr	r1, [pc, #48]	; (8006e38 <MX_USB_DEVICE_Init+0x5c>)
 8006e08:	4809      	ldr	r0, [pc, #36]	; (8006e30 <MX_USB_DEVICE_Init+0x54>)
 8006e0a:	f7fe fc1f 	bl	800564c <USBD_CDC_RegisterInterface>
 8006e0e:	4603      	mov	r3, r0
 8006e10:	2b00      	cmp	r3, #0
 8006e12:	d001      	beq.n	8006e18 <MX_USB_DEVICE_Init+0x3c>
 8006e14:	f7f9 fd50 	bl	80008b8 <Error_Handler>
 8006e18:	4805      	ldr	r0, [pc, #20]	; (8006e30 <MX_USB_DEVICE_Init+0x54>)
 8006e1a:	f7fe fd53 	bl	80058c4 <USBD_Start>
 8006e1e:	4603      	mov	r3, r0
 8006e20:	2b00      	cmp	r3, #0
 8006e22:	d001      	beq.n	8006e28 <MX_USB_DEVICE_Init+0x4c>
 8006e24:	f7f9 fd48 	bl	80008b8 <Error_Handler>
 8006e28:	bf00      	nop
 8006e2a:	bd80      	pop	{r7, pc}
 8006e2c:	200000f4 	.word	0x200000f4
 8006e30:	200001b8 	.word	0x200001b8
 8006e34:	20000060 	.word	0x20000060
 8006e38:	200000e0 	.word	0x200000e0

08006e3c <CDC_Init_FS>:
 8006e3c:	b580      	push	{r7, lr}
 8006e3e:	af00      	add	r7, sp, #0
 8006e40:	2200      	movs	r2, #0
 8006e42:	4905      	ldr	r1, [pc, #20]	; (8006e58 <CDC_Init_FS+0x1c>)
 8006e44:	4805      	ldr	r0, [pc, #20]	; (8006e5c <CDC_Init_FS+0x20>)
 8006e46:	f7fe fc1b 	bl	8005680 <USBD_CDC_SetTxBuffer>
 8006e4a:	4905      	ldr	r1, [pc, #20]	; (8006e60 <CDC_Init_FS+0x24>)
 8006e4c:	4803      	ldr	r0, [pc, #12]	; (8006e5c <CDC_Init_FS+0x20>)
 8006e4e:	f7fe fc39 	bl	80056c4 <USBD_CDC_SetRxBuffer>
 8006e52:	2300      	movs	r3, #0
 8006e54:	4618      	mov	r0, r3
 8006e56:	bd80      	pop	{r7, pc}
 8006e58:	20000c94 	.word	0x20000c94
 8006e5c:	200001b8 	.word	0x200001b8
 8006e60:	20000494 	.word	0x20000494

08006e64 <CDC_DeInit_FS>:
 8006e64:	b480      	push	{r7}
 8006e66:	af00      	add	r7, sp, #0
 8006e68:	2300      	movs	r3, #0
 8006e6a:	4618      	mov	r0, r3
 8006e6c:	46bd      	mov	sp, r7
 8006e6e:	f85d 7b04 	ldr.w	r7, [sp], #4
 8006e72:	4770      	bx	lr

08006e74 <CDC_Control_FS>:
 8006e74:	b480      	push	{r7}
 8006e76:	b083      	sub	sp, #12
 8006e78:	af00      	add	r7, sp, #0
 8006e7a:	4603      	mov	r3, r0
 8006e7c:	6039      	str	r1, [r7, #0]
 8006e7e:	71fb      	strb	r3, [r7, #7]
 8006e80:	4613      	mov	r3, r2
 8006e82:	80bb      	strh	r3, [r7, #4]
 8006e84:	79fb      	ldrb	r3, [r7, #7]
 8006e86:	2b23      	cmp	r3, #35	; 0x23
 8006e88:	d84a      	bhi.n	8006f20 <CDC_Control_FS+0xac>
 8006e8a:	a201      	add	r2, pc, #4	; (adr r2, 8006e90 <CDC_Control_FS+0x1c>)
 8006e8c:	f852 f023 	ldr.w	pc, [r2, r3, lsl #2]
 8006e90:	08006f21 	.word	0x08006f21
 8006e94:	08006f21 	.word	0x08006f21
 8006e98:	08006f21 	.word	0x08006f21
 8006e9c:	08006f21 	.word	0x08006f21
 8006ea0:	08006f21 	.word	0x08006f21
 8006ea4:	08006f21 	.word	0x08006f21
 8006ea8:	08006f21 	.word	0x08006f21
 8006eac:	08006f21 	.word	0x08006f21
 8006eb0:	08006f21 	.word	0x08006f21
 8006eb4:	08006f21 	.word	0x08006f21
 8006eb8:	08006f21 	.word	0x08006f21
 8006ebc:	08006f21 	.word	0x08006f21
 8006ec0:	08006f21 	.word	0x08006f21
 8006ec4:	08006f21 	.word	0x08006f21
 8006ec8:	08006f21 	.word	0x08006f21
 8006ecc:	08006f21 	.word	0x08006f21
 8006ed0:	08006f21 	.word	0x08006f21
 8006ed4:	08006f21 	.word	0x08006f21
 8006ed8:	08006f21 	.word	0x08006f21
 8006edc:	08006f21 	.word	0x08006f21
 8006ee0:	08006f21 	.word	0x08006f21
 8006ee4:	08006f21 	.word	0x08006f21
 8006ee8:	08006f21 	.word	0x08006f21
 8006eec:	08006f21 	.word	0x08006f21
 8006ef0:	08006f21 	.word	0x08006f21
 8006ef4:	08006f21 	.word	0x08006f21
 8006ef8:	08006f21 	.word	0x08006f21
 8006efc:	08006f21 	.word	0x08006f21
 8006f00:	08006f21 	.word	0x08006f21
 8006f04:	08006f21 	.word	0x08006f21
 8006f08:	08006f21 	.word	0x08006f21
 8006f0c:	08006f21 	.word	0x08006f21
 8006f10:	08006f21 	.word	0x08006f21
 8006f14:	08006f21 	.word	0x08006f21
 8006f18:	08006f21 	.word	0x08006f21
 8006f1c:	08006f21 	.word	0x08006f21
 8006f20:	bf00      	nop
 8006f22:	2300      	movs	r3, #0
 8006f24:	4618      	mov	r0, r3
 8006f26:	370c      	adds	r7, #12
 8006f28:	46bd      	mov	sp, r7
 8006f2a:	f85d 7b04 	ldr.w	r7, [sp], #4
 8006f2e:	4770      	bx	lr

08006f30 <CDC_Receive_FS>:
 8006f30:	b580      	push	{r7, lr}
 8006f32:	b082      	sub	sp, #8
 8006f34:	af00      	add	r7, sp, #0
 8006f36:	6078      	str	r0, [r7, #4]
 8006f38:	6039      	str	r1, [r7, #0]
 8006f3a:	6879      	ldr	r1, [r7, #4]
 8006f3c:	4805      	ldr	r0, [pc, #20]	; (8006f54 <CDC_Receive_FS+0x24>)
 8006f3e:	f7fe fbc1 	bl	80056c4 <USBD_CDC_SetRxBuffer>
 8006f42:	4804      	ldr	r0, [pc, #16]	; (8006f54 <CDC_Receive_FS+0x24>)
 8006f44:	f7fe fc22 	bl	800578c <USBD_CDC_ReceivePacket>
 8006f48:	2300      	movs	r3, #0
 8006f4a:	4618      	mov	r0, r3
 8006f4c:	3708      	adds	r7, #8
 8006f4e:	46bd      	mov	sp, r7
 8006f50:	bd80      	pop	{r7, pc}
 8006f52:	bf00      	nop
 8006f54:	200001b8 	.word	0x200001b8

08006f58 <CDC_Transmit_FS>:
 8006f58:	b580      	push	{r7, lr}
 8006f5a:	b084      	sub	sp, #16
 8006f5c:	af00      	add	r7, sp, #0
 8006f5e:	6078      	str	r0, [r7, #4]
 8006f60:	460b      	mov	r3, r1
 8006f62:	807b      	strh	r3, [r7, #2]
 8006f64:	2300      	movs	r3, #0
 8006f66:	73fb      	strb	r3, [r7, #15]
 8006f68:	4b0d      	ldr	r3, [pc, #52]	; (8006fa0 <CDC_Transmit_FS+0x48>)
 8006f6a:	f8d3 32bc 	ldr.w	r3, [r3, #700]	; 0x2bc
 8006f6e:	60bb      	str	r3, [r7, #8]
 8006f70:	68bb      	ldr	r3, [r7, #8]
 8006f72:	f8d3 3214 	ldr.w	r3, [r3, #532]	; 0x214
 8006f76:	2b00      	cmp	r3, #0
 8006f78:	d001      	beq.n	8006f7e <CDC_Transmit_FS+0x26>
 8006f7a:	2301      	movs	r3, #1
 8006f7c:	e00b      	b.n	8006f96 <CDC_Transmit_FS+0x3e>
 8006f7e:	887b      	ldrh	r3, [r7, #2]
 8006f80:	461a      	mov	r2, r3
 8006f82:	6879      	ldr	r1, [r7, #4]
 8006f84:	4806      	ldr	r0, [pc, #24]	; (8006fa0 <CDC_Transmit_FS+0x48>)
 8006f86:	f7fe fb7b 	bl	8005680 <USBD_CDC_SetTxBuffer>
 8006f8a:	4805      	ldr	r0, [pc, #20]	; (8006fa0 <CDC_Transmit_FS+0x48>)
 8006f8c:	f7fe fbb8 	bl	8005700 <USBD_CDC_TransmitPacket>
 8006f90:	4603      	mov	r3, r0
 8006f92:	73fb      	strb	r3, [r7, #15]
 8006f94:	7bfb      	ldrb	r3, [r7, #15]
 8006f96:	4618      	mov	r0, r3
 8006f98:	3710      	adds	r7, #16
 8006f9a:	46bd      	mov	sp, r7
 8006f9c:	bd80      	pop	{r7, pc}
 8006f9e:	bf00      	nop
 8006fa0:	200001b8 	.word	0x200001b8

08006fa4 <CDC_TransmitCplt_FS>:
 8006fa4:	b480      	push	{r7}
 8006fa6:	b087      	sub	sp, #28
 8006fa8:	af00      	add	r7, sp, #0
 8006faa:	60f8      	str	r0, [r7, #12]
 8006fac:	60b9      	str	r1, [r7, #8]
 8006fae:	4613      	mov	r3, r2
 8006fb0:	71fb      	strb	r3, [r7, #7]
 8006fb2:	2300      	movs	r3, #0
 8006fb4:	75fb      	strb	r3, [r7, #23]
 8006fb6:	f997 3017 	ldrsb.w	r3, [r7, #23]
 8006fba:	4618      	mov	r0, r3
 8006fbc:	371c      	adds	r7, #28
 8006fbe:	46bd      	mov	sp, r7
 8006fc0:	f85d 7b04 	ldr.w	r7, [sp], #4
 8006fc4:	4770      	bx	lr
	...

08006fc8 <USBD_FS_DeviceDescriptor>:
 8006fc8:	b480      	push	{r7}
 8006fca:	b083      	sub	sp, #12
 8006fcc:	af00      	add	r7, sp, #0
 8006fce:	4603      	mov	r3, r0
 8006fd0:	6039      	str	r1, [r7, #0]
 8006fd2:	71fb      	strb	r3, [r7, #7]
 8006fd4:	683b      	ldr	r3, [r7, #0]
 8006fd6:	2212      	movs	r2, #18
 8006fd8:	801a      	strh	r2, [r3, #0]
 8006fda:	4b03      	ldr	r3, [pc, #12]	; (8006fe8 <USBD_FS_DeviceDescriptor+0x20>)
 8006fdc:	4618      	mov	r0, r3
 8006fde:	370c      	adds	r7, #12
 8006fe0:	46bd      	mov	sp, r7
 8006fe2:	f85d 7b04 	ldr.w	r7, [sp], #4
 8006fe6:	4770      	bx	lr
 8006fe8:	20000110 	.word	0x20000110

08006fec <USBD_FS_LangIDStrDescriptor>:
 8006fec:	b480      	push	{r7}
 8006fee:	b083      	sub	sp, #12
 8006ff0:	af00      	add	r7, sp, #0
 8006ff2:	4603      	mov	r3, r0
 8006ff4:	6039      	str	r1, [r7, #0]
 8006ff6:	71fb      	strb	r3, [r7, #7]
 8006ff8:	683b      	ldr	r3, [r7, #0]
 8006ffa:	2204      	movs	r2, #4
 8006ffc:	801a      	strh	r2, [r3, #0]
 8006ffe:	4b03      	ldr	r3, [pc, #12]	; (800700c <USBD_FS_LangIDStrDescriptor+0x20>)
 8007000:	4618      	mov	r0, r3
 8007002:	370c      	adds	r7, #12
 8007004:	46bd      	mov	sp, r7
 8007006:	f85d 7b04 	ldr.w	r7, [sp], #4
 800700a:	4770      	bx	lr
 800700c:	20000124 	.word	0x20000124

08007010 <USBD_FS_ProductStrDescriptor>:
 8007010:	b580      	push	{r7, lr}
 8007012:	b082      	sub	sp, #8
 8007014:	af00      	add	r7, sp, #0
 8007016:	4603      	mov	r3, r0
 8007018:	6039      	str	r1, [r7, #0]
 800701a:	71fb      	strb	r3, [r7, #7]
 800701c:	79fb      	ldrb	r3, [r7, #7]
 800701e:	2b00      	cmp	r3, #0
 8007020:	d105      	bne.n	800702e <USBD_FS_ProductStrDescriptor+0x1e>
 8007022:	683a      	ldr	r2, [r7, #0]
 8007024:	4907      	ldr	r1, [pc, #28]	; (8007044 <USBD_FS_ProductStrDescriptor+0x34>)
 8007026:	4808      	ldr	r0, [pc, #32]	; (8007048 <USBD_FS_ProductStrDescriptor+0x38>)
 8007028:	f7ff fdf8 	bl	8006c1c <USBD_GetString>
 800702c:	e004      	b.n	8007038 <USBD_FS_ProductStrDescriptor+0x28>
 800702e:	683a      	ldr	r2, [r7, #0]
 8007030:	4904      	ldr	r1, [pc, #16]	; (8007044 <USBD_FS_ProductStrDescriptor+0x34>)
 8007032:	4805      	ldr	r0, [pc, #20]	; (8007048 <USBD_FS_ProductStrDescriptor+0x38>)
 8007034:	f7ff fdf2 	bl	8006c1c <USBD_GetString>
 8007038:	4b02      	ldr	r3, [pc, #8]	; (8007044 <USBD_FS_ProductStrDescriptor+0x34>)
 800703a:	4618      	mov	r0, r3
 800703c:	3708      	adds	r7, #8
 800703e:	46bd      	mov	sp, r7
 8007040:	bd80      	pop	{r7, pc}
 8007042:	bf00      	nop
 8007044:	20001494 	.word	0x20001494
 8007048:	080078d0 	.word	0x080078d0

0800704c <USBD_FS_ManufacturerStrDescriptor>:
 800704c:	b580      	push	{r7, lr}
 800704e:	b082      	sub	sp, #8
 8007050:	af00      	add	r7, sp, #0
 8007052:	4603      	mov	r3, r0
 8007054:	6039      	str	r1, [r7, #0]
 8007056:	71fb      	strb	r3, [r7, #7]
 8007058:	683a      	ldr	r2, [r7, #0]
 800705a:	4904      	ldr	r1, [pc, #16]	; (800706c <USBD_FS_ManufacturerStrDescriptor+0x20>)
 800705c:	4804      	ldr	r0, [pc, #16]	; (8007070 <USBD_FS_ManufacturerStrDescriptor+0x24>)
 800705e:	f7ff fddd 	bl	8006c1c <USBD_GetString>
 8007062:	4b02      	ldr	r3, [pc, #8]	; (800706c <USBD_FS_ManufacturerStrDescriptor+0x20>)
 8007064:	4618      	mov	r0, r3
 8007066:	3708      	adds	r7, #8
 8007068:	46bd      	mov	sp, r7
 800706a:	bd80      	pop	{r7, pc}
 800706c:	20001494 	.word	0x20001494
 8007070:	080078e8 	.word	0x080078e8

08007074 <USBD_FS_SerialStrDescriptor>:
 8007074:	b580      	push	{r7, lr}
 8007076:	b082      	sub	sp, #8
 8007078:	af00      	add	r7, sp, #0
 800707a:	4603      	mov	r3, r0
 800707c:	6039      	str	r1, [r7, #0]
 800707e:	71fb      	strb	r3, [r7, #7]
 8007080:	683b      	ldr	r3, [r7, #0]
 8007082:	221a      	movs	r2, #26
 8007084:	801a      	strh	r2, [r3, #0]
 8007086:	f000 f843 	bl	8007110 <Get_SerialNum>
 800708a:	4b02      	ldr	r3, [pc, #8]	; (8007094 <USBD_FS_SerialStrDescriptor+0x20>)
 800708c:	4618      	mov	r0, r3
 800708e:	3708      	adds	r7, #8
 8007090:	46bd      	mov	sp, r7
 8007092:	bd80      	pop	{r7, pc}
 8007094:	20000128 	.word	0x20000128

08007098 <USBD_FS_ConfigStrDescriptor>:
 8007098:	b580      	push	{r7, lr}
 800709a:	b082      	sub	sp, #8
 800709c:	af00      	add	r7, sp, #0
 800709e:	4603      	mov	r3, r0
 80070a0:	6039      	str	r1, [r7, #0]
 80070a2:	71fb      	strb	r3, [r7, #7]
 80070a4:	79fb      	ldrb	r3, [r7, #7]
 80070a6:	2b00      	cmp	r3, #0
 80070a8:	d105      	bne.n	80070b6 <USBD_FS_ConfigStrDescriptor+0x1e>
 80070aa:	683a      	ldr	r2, [r7, #0]
 80070ac:	4907      	ldr	r1, [pc, #28]	; (80070cc <USBD_FS_ConfigStrDescriptor+0x34>)
 80070ae:	4808      	ldr	r0, [pc, #32]	; (80070d0 <USBD_FS_ConfigStrDescriptor+0x38>)
 80070b0:	f7ff fdb4 	bl	8006c1c <USBD_GetString>
 80070b4:	e004      	b.n	80070c0 <USBD_FS_ConfigStrDescriptor+0x28>
 80070b6:	683a      	ldr	r2, [r7, #0]
 80070b8:	4904      	ldr	r1, [pc, #16]	; (80070cc <USBD_FS_ConfigStrDescriptor+0x34>)
 80070ba:	4805      	ldr	r0, [pc, #20]	; (80070d0 <USBD_FS_ConfigStrDescriptor+0x38>)
 80070bc:	f7ff fdae 	bl	8006c1c <USBD_GetString>
 80070c0:	4b02      	ldr	r3, [pc, #8]	; (80070cc <USBD_FS_ConfigStrDescriptor+0x34>)
 80070c2:	4618      	mov	r0, r3
 80070c4:	3708      	adds	r7, #8
 80070c6:	46bd      	mov	sp, r7
 80070c8:	bd80      	pop	{r7, pc}
 80070ca:	bf00      	nop
 80070cc:	20001494 	.word	0x20001494
 80070d0:	080078fc 	.word	0x080078fc

080070d4 <USBD_FS_InterfaceStrDescriptor>:
 80070d4:	b580      	push	{r7, lr}
 80070d6:	b082      	sub	sp, #8
 80070d8:	af00      	add	r7, sp, #0
 80070da:	4603      	mov	r3, r0
 80070dc:	6039      	str	r1, [r7, #0]
 80070de:	71fb      	strb	r3, [r7, #7]
 80070e0:	79fb      	ldrb	r3, [r7, #7]
 80070e2:	2b00      	cmp	r3, #0
 80070e4:	d105      	bne.n	80070f2 <USBD_FS_InterfaceStrDescriptor+0x1e>
 80070e6:	683a      	ldr	r2, [r7, #0]
 80070e8:	4907      	ldr	r1, [pc, #28]	; (8007108 <USBD_FS_InterfaceStrDescriptor+0x34>)
 80070ea:	4808      	ldr	r0, [pc, #32]	; (800710c <USBD_FS_InterfaceStrDescriptor+0x38>)
 80070ec:	f7ff fd96 	bl	8006c1c <USBD_GetString>
 80070f0:	e004      	b.n	80070fc <USBD_FS_InterfaceStrDescriptor+0x28>
 80070f2:	683a      	ldr	r2, [r7, #0]
 80070f4:	4904      	ldr	r1, [pc, #16]	; (8007108 <USBD_FS_InterfaceStrDescriptor+0x34>)
 80070f6:	4805      	ldr	r0, [pc, #20]	; (800710c <USBD_FS_InterfaceStrDescriptor+0x38>)
 80070f8:	f7ff fd90 	bl	8006c1c <USBD_GetString>
 80070fc:	4b02      	ldr	r3, [pc, #8]	; (8007108 <USBD_FS_InterfaceStrDescriptor+0x34>)
 80070fe:	4618      	mov	r0, r3
 8007100:	3708      	adds	r7, #8
 8007102:	46bd      	mov	sp, r7
 8007104:	bd80      	pop	{r7, pc}
 8007106:	bf00      	nop
 8007108:	20001494 	.word	0x20001494
 800710c:	08007908 	.word	0x08007908

08007110 <Get_SerialNum>:
 8007110:	b580      	push	{r7, lr}
 8007112:	b084      	sub	sp, #16
 8007114:	af00      	add	r7, sp, #0
 8007116:	4b0f      	ldr	r3, [pc, #60]	; (8007154 <Get_SerialNum+0x44>)
 8007118:	681b      	ldr	r3, [r3, #0]
 800711a:	60fb      	str	r3, [r7, #12]
 800711c:	4b0e      	ldr	r3, [pc, #56]	; (8007158 <Get_SerialNum+0x48>)
 800711e:	681b      	ldr	r3, [r3, #0]
 8007120:	60bb      	str	r3, [r7, #8]
 8007122:	4b0e      	ldr	r3, [pc, #56]	; (800715c <Get_SerialNum+0x4c>)
 8007124:	681b      	ldr	r3, [r3, #0]
 8007126:	607b      	str	r3, [r7, #4]
 8007128:	68fa      	ldr	r2, [r7, #12]
 800712a:	687b      	ldr	r3, [r7, #4]
 800712c:	4413      	add	r3, r2
 800712e:	60fb      	str	r3, [r7, #12]
 8007130:	68fb      	ldr	r3, [r7, #12]
 8007132:	2b00      	cmp	r3, #0
 8007134:	d009      	beq.n	800714a <Get_SerialNum+0x3a>
 8007136:	2208      	movs	r2, #8
 8007138:	4909      	ldr	r1, [pc, #36]	; (8007160 <Get_SerialNum+0x50>)
 800713a:	68f8      	ldr	r0, [r7, #12]
 800713c:	f000 f814 	bl	8007168 <IntToUnicode>
 8007140:	2204      	movs	r2, #4
 8007142:	4908      	ldr	r1, [pc, #32]	; (8007164 <Get_SerialNum+0x54>)
 8007144:	68b8      	ldr	r0, [r7, #8]
 8007146:	f000 f80f 	bl	8007168 <IntToUnicode>
 800714a:	bf00      	nop
 800714c:	3710      	adds	r7, #16
 800714e:	46bd      	mov	sp, r7
 8007150:	bd80      	pop	{r7, pc}
 8007152:	bf00      	nop
 8007154:	1fff7a10 	.word	0x1fff7a10
 8007158:	1fff7a14 	.word	0x1fff7a14
 800715c:	1fff7a18 	.word	0x1fff7a18
 8007160:	2000012a 	.word	0x2000012a
 8007164:	2000013a 	.word	0x2000013a

08007168 <IntToUnicode>:
 8007168:	b480      	push	{r7}
 800716a:	b087      	sub	sp, #28
 800716c:	af00      	add	r7, sp, #0
 800716e:	60f8      	str	r0, [r7, #12]
 8007170:	60b9      	str	r1, [r7, #8]
 8007172:	4613      	mov	r3, r2
 8007174:	71fb      	strb	r3, [r7, #7]
 8007176:	2300      	movs	r3, #0
 8007178:	75fb      	strb	r3, [r7, #23]
 800717a:	2300      	movs	r3, #0
 800717c:	75fb      	strb	r3, [r7, #23]
 800717e:	e027      	b.n	80071d0 <IntToUnicode+0x68>
 8007180:	68fb      	ldr	r3, [r7, #12]
 8007182:	0f1b      	lsrs	r3, r3, #28
 8007184:	2b09      	cmp	r3, #9
 8007186:	d80b      	bhi.n	80071a0 <IntToUnicode+0x38>
 8007188:	68fb      	ldr	r3, [r7, #12]
 800718a:	0f1b      	lsrs	r3, r3, #28
 800718c:	b2da      	uxtb	r2, r3
 800718e:	7dfb      	ldrb	r3, [r7, #23]
 8007190:	005b      	lsls	r3, r3, #1
 8007192:	4619      	mov	r1, r3
 8007194:	68bb      	ldr	r3, [r7, #8]
 8007196:	440b      	add	r3, r1
 8007198:	3230      	adds	r2, #48	; 0x30
 800719a:	b2d2      	uxtb	r2, r2
 800719c:	701a      	strb	r2, [r3, #0]
 800719e:	e00a      	b.n	80071b6 <IntToUnicode+0x4e>
 80071a0:	68fb      	ldr	r3, [r7, #12]
 80071a2:	0f1b      	lsrs	r3, r3, #28
 80071a4:	b2da      	uxtb	r2, r3
 80071a6:	7dfb      	ldrb	r3, [r7, #23]
 80071a8:	005b      	lsls	r3, r3, #1
 80071aa:	4619      	mov	r1, r3
 80071ac:	68bb      	ldr	r3, [r7, #8]
 80071ae:	440b      	add	r3, r1
 80071b0:	3237      	adds	r2, #55	; 0x37
 80071b2:	b2d2      	uxtb	r2, r2
 80071b4:	701a      	strb	r2, [r3, #0]
 80071b6:	68fb      	ldr	r3, [r7, #12]
 80071b8:	011b      	lsls	r3, r3, #4
 80071ba:	60fb      	str	r3, [r7, #12]
 80071bc:	7dfb      	ldrb	r3, [r7, #23]
 80071be:	005b      	lsls	r3, r3, #1
 80071c0:	3301      	adds	r3, #1
 80071c2:	68ba      	ldr	r2, [r7, #8]
 80071c4:	4413      	add	r3, r2
 80071c6:	2200      	movs	r2, #0
 80071c8:	701a      	strb	r2, [r3, #0]
 80071ca:	7dfb      	ldrb	r3, [r7, #23]
 80071cc:	3301      	adds	r3, #1
 80071ce:	75fb      	strb	r3, [r7, #23]
 80071d0:	7dfa      	ldrb	r2, [r7, #23]
 80071d2:	79fb      	ldrb	r3, [r7, #7]
 80071d4:	429a      	cmp	r2, r3
 80071d6:	d3d3      	bcc.n	8007180 <IntToUnicode+0x18>
 80071d8:	bf00      	nop
 80071da:	bf00      	nop
 80071dc:	371c      	adds	r7, #28
 80071de:	46bd      	mov	sp, r7
 80071e0:	f85d 7b04 	ldr.w	r7, [sp], #4
 80071e4:	4770      	bx	lr
	...

080071e8 <HAL_PCD_MspInit>:
 80071e8:	b580      	push	{r7, lr}
 80071ea:	b08a      	sub	sp, #40	; 0x28
 80071ec:	af00      	add	r7, sp, #0
 80071ee:	6078      	str	r0, [r7, #4]
 80071f0:	f107 0314 	add.w	r3, r7, #20
 80071f4:	2200      	movs	r2, #0
 80071f6:	601a      	str	r2, [r3, #0]
 80071f8:	605a      	str	r2, [r3, #4]
 80071fa:	609a      	str	r2, [r3, #8]
 80071fc:	60da      	str	r2, [r3, #12]
 80071fe:	611a      	str	r2, [r3, #16]
 8007200:	687b      	ldr	r3, [r7, #4]
 8007202:	681b      	ldr	r3, [r3, #0]
 8007204:	f1b3 4fa0 	cmp.w	r3, #1342177280	; 0x50000000
 8007208:	d13a      	bne.n	8007280 <HAL_PCD_MspInit+0x98>
 800720a:	2300      	movs	r3, #0
 800720c:	613b      	str	r3, [r7, #16]
 800720e:	4b1e      	ldr	r3, [pc, #120]	; (8007288 <HAL_PCD_MspInit+0xa0>)
 8007210:	6b1b      	ldr	r3, [r3, #48]	; 0x30
 8007212:	4a1d      	ldr	r2, [pc, #116]	; (8007288 <HAL_PCD_MspInit+0xa0>)
 8007214:	f043 0301 	orr.w	r3, r3, #1
 8007218:	6313      	str	r3, [r2, #48]	; 0x30
 800721a:	4b1b      	ldr	r3, [pc, #108]	; (8007288 <HAL_PCD_MspInit+0xa0>)
 800721c:	6b1b      	ldr	r3, [r3, #48]	; 0x30
 800721e:	f003 0301 	and.w	r3, r3, #1
 8007222:	613b      	str	r3, [r7, #16]
 8007224:	693b      	ldr	r3, [r7, #16]
 8007226:	f44f 53c0 	mov.w	r3, #6144	; 0x1800
 800722a:	617b      	str	r3, [r7, #20]
 800722c:	2302      	movs	r3, #2
 800722e:	61bb      	str	r3, [r7, #24]
 8007230:	2300      	movs	r3, #0
 8007232:	61fb      	str	r3, [r7, #28]
 8007234:	2303      	movs	r3, #3
 8007236:	623b      	str	r3, [r7, #32]
 8007238:	230a      	movs	r3, #10
 800723a:	627b      	str	r3, [r7, #36]	; 0x24
 800723c:	f107 0314 	add.w	r3, r7, #20
 8007240:	4619      	mov	r1, r3
 8007242:	4812      	ldr	r0, [pc, #72]	; (800728c <HAL_PCD_MspInit+0xa4>)
 8007244:	f7f9 fdbe 	bl	8000dc4 <HAL_GPIO_Init>
 8007248:	4b0f      	ldr	r3, [pc, #60]	; (8007288 <HAL_PCD_MspInit+0xa0>)
 800724a:	6b5b      	ldr	r3, [r3, #52]	; 0x34
 800724c:	4a0e      	ldr	r2, [pc, #56]	; (8007288 <HAL_PCD_MspInit+0xa0>)
 800724e:	f043 0380 	orr.w	r3, r3, #128	; 0x80
 8007252:	6353      	str	r3, [r2, #52]	; 0x34
 8007254:	2300      	movs	r3, #0
 8007256:	60fb      	str	r3, [r7, #12]
 8007258:	4b0b      	ldr	r3, [pc, #44]	; (8007288 <HAL_PCD_MspInit+0xa0>)
 800725a:	6c5b      	ldr	r3, [r3, #68]	; 0x44
 800725c:	4a0a      	ldr	r2, [pc, #40]	; (8007288 <HAL_PCD_MspInit+0xa0>)
 800725e:	f443 4380 	orr.w	r3, r3, #16384	; 0x4000
 8007262:	6453      	str	r3, [r2, #68]	; 0x44
 8007264:	4b08      	ldr	r3, [pc, #32]	; (8007288 <HAL_PCD_MspInit+0xa0>)
 8007266:	6c5b      	ldr	r3, [r3, #68]	; 0x44
 8007268:	f403 4380 	and.w	r3, r3, #16384	; 0x4000
 800726c:	60fb      	str	r3, [r7, #12]
 800726e:	68fb      	ldr	r3, [r7, #12]
 8007270:	2200      	movs	r2, #0
 8007272:	2100      	movs	r1, #0
 8007274:	2043      	movs	r0, #67	; 0x43
 8007276:	f7f9 fd6e 	bl	8000d56 <HAL_NVIC_SetPriority>
 800727a:	2043      	movs	r0, #67	; 0x43
 800727c:	f7f9 fd87 	bl	8000d8e <HAL_NVIC_EnableIRQ>
 8007280:	bf00      	nop
 8007282:	3728      	adds	r7, #40	; 0x28
 8007284:	46bd      	mov	sp, r7
 8007286:	bd80      	pop	{r7, pc}
 8007288:	40023800 	.word	0x40023800
 800728c:	40020000 	.word	0x40020000

08007290 <HAL_PCD_SetupStageCallback>:
 8007290:	b580      	push	{r7, lr}
 8007292:	b082      	sub	sp, #8
 8007294:	af00      	add	r7, sp, #0
 8007296:	6078      	str	r0, [r7, #4]
 8007298:	687b      	ldr	r3, [r7, #4]
 800729a:	f8d3 2508 	ldr.w	r2, [r3, #1288]	; 0x508
 800729e:	687b      	ldr	r3, [r7, #4]
 80072a0:	f203 43c4 	addw	r3, r3, #1220	; 0x4c4
 80072a4:	4619      	mov	r1, r3
 80072a6:	4610      	mov	r0, r2
 80072a8:	f7fe fb59 	bl	800595e <USBD_LL_SetupStage>
 80072ac:	bf00      	nop
 80072ae:	3708      	adds	r7, #8
 80072b0:	46bd      	mov	sp, r7
 80072b2:	bd80      	pop	{r7, pc}

080072b4 <HAL_PCD_DataOutStageCallback>:
 80072b4:	b580      	push	{r7, lr}
 80072b6:	b082      	sub	sp, #8
 80072b8:	af00      	add	r7, sp, #0
 80072ba:	6078      	str	r0, [r7, #4]
 80072bc:	460b      	mov	r3, r1
 80072be:	70fb      	strb	r3, [r7, #3]
 80072c0:	687b      	ldr	r3, [r7, #4]
 80072c2:	f8d3 0508 	ldr.w	r0, [r3, #1288]	; 0x508
 80072c6:	78fa      	ldrb	r2, [r7, #3]
 80072c8:	6879      	ldr	r1, [r7, #4]
 80072ca:	4613      	mov	r3, r2
 80072cc:	00db      	lsls	r3, r3, #3
 80072ce:	4413      	add	r3, r2
 80072d0:	009b      	lsls	r3, r3, #2
 80072d2:	440b      	add	r3, r1
 80072d4:	f503 7323 	add.w	r3, r3, #652	; 0x28c
 80072d8:	681a      	ldr	r2, [r3, #0]
 80072da:	78fb      	ldrb	r3, [r7, #3]
 80072dc:	4619      	mov	r1, r3
 80072de:	f7fe fb93 	bl	8005a08 <USBD_LL_DataOutStage>
 80072e2:	bf00      	nop
 80072e4:	3708      	adds	r7, #8
 80072e6:	46bd      	mov	sp, r7
 80072e8:	bd80      	pop	{r7, pc}

080072ea <HAL_PCD_DataInStageCallback>:
 80072ea:	b580      	push	{r7, lr}
 80072ec:	b082      	sub	sp, #8
 80072ee:	af00      	add	r7, sp, #0
 80072f0:	6078      	str	r0, [r7, #4]
 80072f2:	460b      	mov	r3, r1
 80072f4:	70fb      	strb	r3, [r7, #3]
 80072f6:	687b      	ldr	r3, [r7, #4]
 80072f8:	f8d3 0508 	ldr.w	r0, [r3, #1288]	; 0x508
 80072fc:	78fa      	ldrb	r2, [r7, #3]
 80072fe:	6879      	ldr	r1, [r7, #4]
 8007300:	4613      	mov	r3, r2
 8007302:	00db      	lsls	r3, r3, #3
 8007304:	4413      	add	r3, r2
 8007306:	009b      	lsls	r3, r3, #2
 8007308:	440b      	add	r3, r1
 800730a:	334c      	adds	r3, #76	; 0x4c
 800730c:	681a      	ldr	r2, [r3, #0]
 800730e:	78fb      	ldrb	r3, [r7, #3]
 8007310:	4619      	mov	r1, r3
 8007312:	f7fe fc2c 	bl	8005b6e <USBD_LL_DataInStage>
 8007316:	bf00      	nop
 8007318:	3708      	adds	r7, #8
 800731a:	46bd      	mov	sp, r7
 800731c:	bd80      	pop	{r7, pc}

0800731e <HAL_PCD_SOFCallback>:
 800731e:	b580      	push	{r7, lr}
 8007320:	b082      	sub	sp, #8
 8007322:	af00      	add	r7, sp, #0
 8007324:	6078      	str	r0, [r7, #4]
 8007326:	687b      	ldr	r3, [r7, #4]
 8007328:	f8d3 3508 	ldr.w	r3, [r3, #1288]	; 0x508
 800732c:	4618      	mov	r0, r3
 800732e:	f7fe fd60 	bl	8005df2 <USBD_LL_SOF>
 8007332:	bf00      	nop
 8007334:	3708      	adds	r7, #8
 8007336:	46bd      	mov	sp, r7
 8007338:	bd80      	pop	{r7, pc}

0800733a <HAL_PCD_ResetCallback>:
 800733a:	b580      	push	{r7, lr}
 800733c:	b084      	sub	sp, #16
 800733e:	af00      	add	r7, sp, #0
 8007340:	6078      	str	r0, [r7, #4]
 8007342:	2301      	movs	r3, #1
 8007344:	73fb      	strb	r3, [r7, #15]
 8007346:	687b      	ldr	r3, [r7, #4]
 8007348:	68db      	ldr	r3, [r3, #12]
 800734a:	2b00      	cmp	r3, #0
 800734c:	d102      	bne.n	8007354 <HAL_PCD_ResetCallback+0x1a>
 800734e:	2300      	movs	r3, #0
 8007350:	73fb      	strb	r3, [r7, #15]
 8007352:	e008      	b.n	8007366 <HAL_PCD_ResetCallback+0x2c>
 8007354:	687b      	ldr	r3, [r7, #4]
 8007356:	68db      	ldr	r3, [r3, #12]
 8007358:	2b02      	cmp	r3, #2
 800735a:	d102      	bne.n	8007362 <HAL_PCD_ResetCallback+0x28>
 800735c:	2301      	movs	r3, #1
 800735e:	73fb      	strb	r3, [r7, #15]
 8007360:	e001      	b.n	8007366 <HAL_PCD_ResetCallback+0x2c>
 8007362:	f7f9 faa9 	bl	80008b8 <Error_Handler>
 8007366:	687b      	ldr	r3, [r7, #4]
 8007368:	f8d3 3508 	ldr.w	r3, [r3, #1288]	; 0x508
 800736c:	7bfa      	ldrb	r2, [r7, #15]
 800736e:	4611      	mov	r1, r2
 8007370:	4618      	mov	r0, r3
 8007372:	f7fe fd00 	bl	8005d76 <USBD_LL_SetSpeed>
 8007376:	687b      	ldr	r3, [r7, #4]
 8007378:	f8d3 3508 	ldr.w	r3, [r3, #1288]	; 0x508
 800737c:	4618      	mov	r0, r3
 800737e:	f7fe fca8 	bl	8005cd2 <USBD_LL_Reset>
 8007382:	bf00      	nop
 8007384:	3710      	adds	r7, #16
 8007386:	46bd      	mov	sp, r7
 8007388:	bd80      	pop	{r7, pc}
	...

0800738c <HAL_PCD_SuspendCallback>:
 800738c:	b580      	push	{r7, lr}
 800738e:	b082      	sub	sp, #8
 8007390:	af00      	add	r7, sp, #0
 8007392:	6078      	str	r0, [r7, #4]
 8007394:	687b      	ldr	r3, [r7, #4]
 8007396:	f8d3 3508 	ldr.w	r3, [r3, #1288]	; 0x508
 800739a:	4618      	mov	r0, r3
 800739c:	f7fe fcfb 	bl	8005d96 <USBD_LL_Suspend>
 80073a0:	687b      	ldr	r3, [r7, #4]
 80073a2:	681b      	ldr	r3, [r3, #0]
 80073a4:	f503 6360 	add.w	r3, r3, #3584	; 0xe00
 80073a8:	681b      	ldr	r3, [r3, #0]
 80073aa:	687a      	ldr	r2, [r7, #4]
 80073ac:	6812      	ldr	r2, [r2, #0]
 80073ae:	f502 6260 	add.w	r2, r2, #3584	; 0xe00
 80073b2:	f043 0301 	orr.w	r3, r3, #1
 80073b6:	6013      	str	r3, [r2, #0]
 80073b8:	687b      	ldr	r3, [r7, #4]
 80073ba:	6a1b      	ldr	r3, [r3, #32]
 80073bc:	2b00      	cmp	r3, #0
 80073be:	d005      	beq.n	80073cc <HAL_PCD_SuspendCallback+0x40>
 80073c0:	4b04      	ldr	r3, [pc, #16]	; (80073d4 <HAL_PCD_SuspendCallback+0x48>)
 80073c2:	691b      	ldr	r3, [r3, #16]
 80073c4:	4a03      	ldr	r2, [pc, #12]	; (80073d4 <HAL_PCD_SuspendCallback+0x48>)
 80073c6:	f043 0306 	orr.w	r3, r3, #6
 80073ca:	6113      	str	r3, [r2, #16]
 80073cc:	bf00      	nop
 80073ce:	3708      	adds	r7, #8
 80073d0:	46bd      	mov	sp, r7
 80073d2:	bd80      	pop	{r7, pc}
 80073d4:	e000ed00 	.word	0xe000ed00

080073d8 <HAL_PCD_ResumeCallback>:
 80073d8:	b580      	push	{r7, lr}
 80073da:	b082      	sub	sp, #8
 80073dc:	af00      	add	r7, sp, #0
 80073de:	6078      	str	r0, [r7, #4]
 80073e0:	687b      	ldr	r3, [r7, #4]
 80073e2:	f8d3 3508 	ldr.w	r3, [r3, #1288]	; 0x508
 80073e6:	4618      	mov	r0, r3
 80073e8:	f7fe fceb 	bl	8005dc2 <USBD_LL_Resume>
 80073ec:	bf00      	nop
 80073ee:	3708      	adds	r7, #8
 80073f0:	46bd      	mov	sp, r7
 80073f2:	bd80      	pop	{r7, pc}

080073f4 <HAL_PCD_ISOOUTIncompleteCallback>:
 80073f4:	b580      	push	{r7, lr}
 80073f6:	b082      	sub	sp, #8
 80073f8:	af00      	add	r7, sp, #0
 80073fa:	6078      	str	r0, [r7, #4]
 80073fc:	460b      	mov	r3, r1
 80073fe:	70fb      	strb	r3, [r7, #3]
 8007400:	687b      	ldr	r3, [r7, #4]
 8007402:	f8d3 3508 	ldr.w	r3, [r3, #1288]	; 0x508
 8007406:	78fa      	ldrb	r2, [r7, #3]
 8007408:	4611      	mov	r1, r2
 800740a:	4618      	mov	r0, r3
 800740c:	f7fe fd43 	bl	8005e96 <USBD_LL_IsoOUTIncomplete>
 8007410:	bf00      	nop
 8007412:	3708      	adds	r7, #8
 8007414:	46bd      	mov	sp, r7
 8007416:	bd80      	pop	{r7, pc}

08007418 <HAL_PCD_ISOINIncompleteCallback>:
 8007418:	b580      	push	{r7, lr}
 800741a:	b082      	sub	sp, #8
 800741c:	af00      	add	r7, sp, #0
 800741e:	6078      	str	r0, [r7, #4]
 8007420:	460b      	mov	r3, r1
 8007422:	70fb      	strb	r3, [r7, #3]
 8007424:	687b      	ldr	r3, [r7, #4]
 8007426:	f8d3 3508 	ldr.w	r3, [r3, #1288]	; 0x508
 800742a:	78fa      	ldrb	r2, [r7, #3]
 800742c:	4611      	mov	r1, r2
 800742e:	4618      	mov	r0, r3
 8007430:	f7fe fcff 	bl	8005e32 <USBD_LL_IsoINIncomplete>
 8007434:	bf00      	nop
 8007436:	3708      	adds	r7, #8
 8007438:	46bd      	mov	sp, r7
 800743a:	bd80      	pop	{r7, pc}

0800743c <HAL_PCD_ConnectCallback>:
 800743c:	b580      	push	{r7, lr}
 800743e:	b082      	sub	sp, #8
 8007440:	af00      	add	r7, sp, #0
 8007442:	6078      	str	r0, [r7, #4]
 8007444:	687b      	ldr	r3, [r7, #4]
 8007446:	f8d3 3508 	ldr.w	r3, [r3, #1288]	; 0x508
 800744a:	4618      	mov	r0, r3
 800744c:	f7fe fd55 	bl	8005efa <USBD_LL_DevConnected>
 8007450:	bf00      	nop
 8007452:	3708      	adds	r7, #8
 8007454:	46bd      	mov	sp, r7
 8007456:	bd80      	pop	{r7, pc}

08007458 <HAL_PCD_DisconnectCallback>:
 8007458:	b580      	push	{r7, lr}
 800745a:	b082      	sub	sp, #8
 800745c:	af00      	add	r7, sp, #0
 800745e:	6078      	str	r0, [r7, #4]
 8007460:	687b      	ldr	r3, [r7, #4]
 8007462:	f8d3 3508 	ldr.w	r3, [r3, #1288]	; 0x508
 8007466:	4618      	mov	r0, r3
 8007468:	f7fe fd52 	bl	8005f10 <USBD_LL_DevDisconnected>
 800746c:	bf00      	nop
 800746e:	3708      	adds	r7, #8
 8007470:	46bd      	mov	sp, r7
 8007472:	bd80      	pop	{r7, pc}

08007474 <USBD_LL_Init>:
 8007474:	b580      	push	{r7, lr}
 8007476:	b082      	sub	sp, #8
 8007478:	af00      	add	r7, sp, #0
 800747a:	6078      	str	r0, [r7, #4]
 800747c:	687b      	ldr	r3, [r7, #4]
 800747e:	781b      	ldrb	r3, [r3, #0]
 8007480:	2b00      	cmp	r3, #0
 8007482:	d13c      	bne.n	80074fe <USBD_LL_Init+0x8a>
 8007484:	4a20      	ldr	r2, [pc, #128]	; (8007508 <USBD_LL_Init+0x94>)
 8007486:	687b      	ldr	r3, [r7, #4]
 8007488:	f8c2 3508 	str.w	r3, [r2, #1288]	; 0x508
 800748c:	687b      	ldr	r3, [r7, #4]
 800748e:	4a1e      	ldr	r2, [pc, #120]	; (8007508 <USBD_LL_Init+0x94>)
 8007490:	f8c3 22c8 	str.w	r2, [r3, #712]	; 0x2c8
 8007494:	4b1c      	ldr	r3, [pc, #112]	; (8007508 <USBD_LL_Init+0x94>)
 8007496:	f04f 42a0 	mov.w	r2, #1342177280	; 0x50000000
 800749a:	601a      	str	r2, [r3, #0]
 800749c:	4b1a      	ldr	r3, [pc, #104]	; (8007508 <USBD_LL_Init+0x94>)
 800749e:	2204      	movs	r2, #4
 80074a0:	605a      	str	r2, [r3, #4]
 80074a2:	4b19      	ldr	r3, [pc, #100]	; (8007508 <USBD_LL_Init+0x94>)
 80074a4:	2202      	movs	r2, #2
 80074a6:	60da      	str	r2, [r3, #12]
 80074a8:	4b17      	ldr	r3, [pc, #92]	; (8007508 <USBD_LL_Init+0x94>)
 80074aa:	2200      	movs	r2, #0
 80074ac:	611a      	str	r2, [r3, #16]
 80074ae:	4b16      	ldr	r3, [pc, #88]	; (8007508 <USBD_LL_Init+0x94>)
 80074b0:	2202      	movs	r2, #2
 80074b2:	619a      	str	r2, [r3, #24]
 80074b4:	4b14      	ldr	r3, [pc, #80]	; (8007508 <USBD_LL_Init+0x94>)
 80074b6:	2200      	movs	r2, #0
 80074b8:	61da      	str	r2, [r3, #28]
 80074ba:	4b13      	ldr	r3, [pc, #76]	; (8007508 <USBD_LL_Init+0x94>)
 80074bc:	2200      	movs	r2, #0
 80074be:	621a      	str	r2, [r3, #32]
 80074c0:	4b11      	ldr	r3, [pc, #68]	; (8007508 <USBD_LL_Init+0x94>)
 80074c2:	2200      	movs	r2, #0
 80074c4:	625a      	str	r2, [r3, #36]	; 0x24
 80074c6:	4b10      	ldr	r3, [pc, #64]	; (8007508 <USBD_LL_Init+0x94>)
 80074c8:	2200      	movs	r2, #0
 80074ca:	62da      	str	r2, [r3, #44]	; 0x2c
 80074cc:	4b0e      	ldr	r3, [pc, #56]	; (8007508 <USBD_LL_Init+0x94>)
 80074ce:	2200      	movs	r2, #0
 80074d0:	631a      	str	r2, [r3, #48]	; 0x30
 80074d2:	480d      	ldr	r0, [pc, #52]	; (8007508 <USBD_LL_Init+0x94>)
 80074d4:	f7f9 fe5c 	bl	8001190 <HAL_PCD_Init>
 80074d8:	4603      	mov	r3, r0
 80074da:	2b00      	cmp	r3, #0
 80074dc:	d001      	beq.n	80074e2 <USBD_LL_Init+0x6e>
 80074de:	f7f9 f9eb 	bl	80008b8 <Error_Handler>
 80074e2:	2180      	movs	r1, #128	; 0x80
 80074e4:	4808      	ldr	r0, [pc, #32]	; (8007508 <USBD_LL_Init+0x94>)
 80074e6:	f7fb f8b4 	bl	8002652 <HAL_PCDEx_SetRxFiFo>
 80074ea:	2240      	movs	r2, #64	; 0x40
 80074ec:	2100      	movs	r1, #0
 80074ee:	4806      	ldr	r0, [pc, #24]	; (8007508 <USBD_LL_Init+0x94>)
 80074f0:	f7fb f868 	bl	80025c4 <HAL_PCDEx_SetTxFiFo>
 80074f4:	2280      	movs	r2, #128	; 0x80
 80074f6:	2101      	movs	r1, #1
 80074f8:	4803      	ldr	r0, [pc, #12]	; (8007508 <USBD_LL_Init+0x94>)
 80074fa:	f7fb f863 	bl	80025c4 <HAL_PCDEx_SetTxFiFo>
 80074fe:	2300      	movs	r3, #0
 8007500:	4618      	mov	r0, r3
 8007502:	3708      	adds	r7, #8
 8007504:	46bd      	mov	sp, r7
 8007506:	bd80      	pop	{r7, pc}
 8007508:	20001694 	.word	0x20001694

0800750c <USBD_LL_Start>:
 800750c:	b580      	push	{r7, lr}
 800750e:	b084      	sub	sp, #16
 8007510:	af00      	add	r7, sp, #0
 8007512:	6078      	str	r0, [r7, #4]
 8007514:	2300      	movs	r3, #0
 8007516:	73fb      	strb	r3, [r7, #15]
 8007518:	2300      	movs	r3, #0
 800751a:	73bb      	strb	r3, [r7, #14]
 800751c:	687b      	ldr	r3, [r7, #4]
 800751e:	f8d3 32c8 	ldr.w	r3, [r3, #712]	; 0x2c8
 8007522:	4618      	mov	r0, r3
 8007524:	f7f9 ff51 	bl	80013ca <HAL_PCD_Start>
 8007528:	4603      	mov	r3, r0
 800752a:	73fb      	strb	r3, [r7, #15]
 800752c:	7bfb      	ldrb	r3, [r7, #15]
 800752e:	4618      	mov	r0, r3
 8007530:	f000 f942 	bl	80077b8 <USBD_Get_USB_Status>
 8007534:	4603      	mov	r3, r0
 8007536:	73bb      	strb	r3, [r7, #14]
 8007538:	7bbb      	ldrb	r3, [r7, #14]
 800753a:	4618      	mov	r0, r3
 800753c:	3710      	adds	r7, #16
 800753e:	46bd      	mov	sp, r7
 8007540:	bd80      	pop	{r7, pc}

08007542 <USBD_LL_OpenEP>:
 8007542:	b580      	push	{r7, lr}
 8007544:	b084      	sub	sp, #16
 8007546:	af00      	add	r7, sp, #0
 8007548:	6078      	str	r0, [r7, #4]
 800754a:	4608      	mov	r0, r1
 800754c:	4611      	mov	r1, r2
 800754e:	461a      	mov	r2, r3
 8007550:	4603      	mov	r3, r0
 8007552:	70fb      	strb	r3, [r7, #3]
 8007554:	460b      	mov	r3, r1
 8007556:	70bb      	strb	r3, [r7, #2]
 8007558:	4613      	mov	r3, r2
 800755a:	803b      	strh	r3, [r7, #0]
 800755c:	2300      	movs	r3, #0
 800755e:	73fb      	strb	r3, [r7, #15]
 8007560:	2300      	movs	r3, #0
 8007562:	73bb      	strb	r3, [r7, #14]
 8007564:	687b      	ldr	r3, [r7, #4]
 8007566:	f8d3 02c8 	ldr.w	r0, [r3, #712]	; 0x2c8
 800756a:	78bb      	ldrb	r3, [r7, #2]
 800756c:	883a      	ldrh	r2, [r7, #0]
 800756e:	78f9      	ldrb	r1, [r7, #3]
 8007570:	f7fa fc22 	bl	8001db8 <HAL_PCD_EP_Open>
 8007574:	4603      	mov	r3, r0
 8007576:	73fb      	strb	r3, [r7, #15]
 8007578:	7bfb      	ldrb	r3, [r7, #15]
 800757a:	4618      	mov	r0, r3
 800757c:	f000 f91c 	bl	80077b8 <USBD_Get_USB_Status>
 8007580:	4603      	mov	r3, r0
 8007582:	73bb      	strb	r3, [r7, #14]
 8007584:	7bbb      	ldrb	r3, [r7, #14]
 8007586:	4618      	mov	r0, r3
 8007588:	3710      	adds	r7, #16
 800758a:	46bd      	mov	sp, r7
 800758c:	bd80      	pop	{r7, pc}

0800758e <USBD_LL_CloseEP>:
 800758e:	b580      	push	{r7, lr}
 8007590:	b084      	sub	sp, #16
 8007592:	af00      	add	r7, sp, #0
 8007594:	6078      	str	r0, [r7, #4]
 8007596:	460b      	mov	r3, r1
 8007598:	70fb      	strb	r3, [r7, #3]
 800759a:	2300      	movs	r3, #0
 800759c:	73fb      	strb	r3, [r7, #15]
 800759e:	2300      	movs	r3, #0
 80075a0:	73bb      	strb	r3, [r7, #14]
 80075a2:	687b      	ldr	r3, [r7, #4]
 80075a4:	f8d3 32c8 	ldr.w	r3, [r3, #712]	; 0x2c8
 80075a8:	78fa      	ldrb	r2, [r7, #3]
 80075aa:	4611      	mov	r1, r2
 80075ac:	4618      	mov	r0, r3
 80075ae:	f7fa fc6b 	bl	8001e88 <HAL_PCD_EP_Close>
 80075b2:	4603      	mov	r3, r0
 80075b4:	73fb      	strb	r3, [r7, #15]
 80075b6:	7bfb      	ldrb	r3, [r7, #15]
 80075b8:	4618      	mov	r0, r3
 80075ba:	f000 f8fd 	bl	80077b8 <USBD_Get_USB_Status>
 80075be:	4603      	mov	r3, r0
 80075c0:	73bb      	strb	r3, [r7, #14]
 80075c2:	7bbb      	ldrb	r3, [r7, #14]
 80075c4:	4618      	mov	r0, r3
 80075c6:	3710      	adds	r7, #16
 80075c8:	46bd      	mov	sp, r7
 80075ca:	bd80      	pop	{r7, pc}

080075cc <USBD_LL_StallEP>:
 80075cc:	b580      	push	{r7, lr}
 80075ce:	b084      	sub	sp, #16
 80075d0:	af00      	add	r7, sp, #0
 80075d2:	6078      	str	r0, [r7, #4]
 80075d4:	460b      	mov	r3, r1
 80075d6:	70fb      	strb	r3, [r7, #3]
 80075d8:	2300      	movs	r3, #0
 80075da:	73fb      	strb	r3, [r7, #15]
 80075dc:	2300      	movs	r3, #0
 80075de:	73bb      	strb	r3, [r7, #14]
 80075e0:	687b      	ldr	r3, [r7, #4]
 80075e2:	f8d3 32c8 	ldr.w	r3, [r3, #712]	; 0x2c8
 80075e6:	78fa      	ldrb	r2, [r7, #3]
 80075e8:	4611      	mov	r1, r2
 80075ea:	4618      	mov	r0, r3
 80075ec:	f7fa fd43 	bl	8002076 <HAL_PCD_EP_SetStall>
 80075f0:	4603      	mov	r3, r0
 80075f2:	73fb      	strb	r3, [r7, #15]
 80075f4:	7bfb      	ldrb	r3, [r7, #15]
 80075f6:	4618      	mov	r0, r3
 80075f8:	f000 f8de 	bl	80077b8 <USBD_Get_USB_Status>
 80075fc:	4603      	mov	r3, r0
 80075fe:	73bb      	strb	r3, [r7, #14]
 8007600:	7bbb      	ldrb	r3, [r7, #14]
 8007602:	4618      	mov	r0, r3
 8007604:	3710      	adds	r7, #16
 8007606:	46bd      	mov	sp, r7
 8007608:	bd80      	pop	{r7, pc}

0800760a <USBD_LL_ClearStallEP>:
 800760a:	b580      	push	{r7, lr}
 800760c:	b084      	sub	sp, #16
 800760e:	af00      	add	r7, sp, #0
 8007610:	6078      	str	r0, [r7, #4]
 8007612:	460b      	mov	r3, r1
 8007614:	70fb      	strb	r3, [r7, #3]
 8007616:	2300      	movs	r3, #0
 8007618:	73fb      	strb	r3, [r7, #15]
 800761a:	2300      	movs	r3, #0
 800761c:	73bb      	strb	r3, [r7, #14]
 800761e:	687b      	ldr	r3, [r7, #4]
 8007620:	f8d3 32c8 	ldr.w	r3, [r3, #712]	; 0x2c8
 8007624:	78fa      	ldrb	r2, [r7, #3]
 8007626:	4611      	mov	r1, r2
 8007628:	4618      	mov	r0, r3
 800762a:	f7fa fd88 	bl	800213e <HAL_PCD_EP_ClrStall>
 800762e:	4603      	mov	r3, r0
 8007630:	73fb      	strb	r3, [r7, #15]
 8007632:	7bfb      	ldrb	r3, [r7, #15]
 8007634:	4618      	mov	r0, r3
 8007636:	f000 f8bf 	bl	80077b8 <USBD_Get_USB_Status>
 800763a:	4603      	mov	r3, r0
 800763c:	73bb      	strb	r3, [r7, #14]
 800763e:	7bbb      	ldrb	r3, [r7, #14]
 8007640:	4618      	mov	r0, r3
 8007642:	3710      	adds	r7, #16
 8007644:	46bd      	mov	sp, r7
 8007646:	bd80      	pop	{r7, pc}

08007648 <USBD_LL_IsStallEP>:
 8007648:	b480      	push	{r7}
 800764a:	b085      	sub	sp, #20
 800764c:	af00      	add	r7, sp, #0
 800764e:	6078      	str	r0, [r7, #4]
 8007650:	460b      	mov	r3, r1
 8007652:	70fb      	strb	r3, [r7, #3]
 8007654:	687b      	ldr	r3, [r7, #4]
 8007656:	f8d3 32c8 	ldr.w	r3, [r3, #712]	; 0x2c8
 800765a:	60fb      	str	r3, [r7, #12]
 800765c:	f997 3003 	ldrsb.w	r3, [r7, #3]
 8007660:	2b00      	cmp	r3, #0
 8007662:	da0b      	bge.n	800767c <USBD_LL_IsStallEP+0x34>
 8007664:	78fb      	ldrb	r3, [r7, #3]
 8007666:	f003 027f 	and.w	r2, r3, #127	; 0x7f
 800766a:	68f9      	ldr	r1, [r7, #12]
 800766c:	4613      	mov	r3, r2
 800766e:	00db      	lsls	r3, r3, #3
 8007670:	4413      	add	r3, r2
 8007672:	009b      	lsls	r3, r3, #2
 8007674:	440b      	add	r3, r1
 8007676:	333e      	adds	r3, #62	; 0x3e
 8007678:	781b      	ldrb	r3, [r3, #0]
 800767a:	e00b      	b.n	8007694 <USBD_LL_IsStallEP+0x4c>
 800767c:	78fb      	ldrb	r3, [r7, #3]
 800767e:	f003 027f 	and.w	r2, r3, #127	; 0x7f
 8007682:	68f9      	ldr	r1, [r7, #12]
 8007684:	4613      	mov	r3, r2
 8007686:	00db      	lsls	r3, r3, #3
 8007688:	4413      	add	r3, r2
 800768a:	009b      	lsls	r3, r3, #2
 800768c:	440b      	add	r3, r1
 800768e:	f203 237e 	addw	r3, r3, #638	; 0x27e
 8007692:	781b      	ldrb	r3, [r3, #0]
 8007694:	4618      	mov	r0, r3
 8007696:	3714      	adds	r7, #20
 8007698:	46bd      	mov	sp, r7
 800769a:	f85d 7b04 	ldr.w	r7, [sp], #4
 800769e:	4770      	bx	lr

080076a0 <USBD_LL_SetUSBAddress>:
 80076a0:	b580      	push	{r7, lr}
 80076a2:	b084      	sub	sp, #16
 80076a4:	af00      	add	r7, sp, #0
 80076a6:	6078      	str	r0, [r7, #4]
 80076a8:	460b      	mov	r3, r1
 80076aa:	70fb      	strb	r3, [r7, #3]
 80076ac:	2300      	movs	r3, #0
 80076ae:	73fb      	strb	r3, [r7, #15]
 80076b0:	2300      	movs	r3, #0
 80076b2:	73bb      	strb	r3, [r7, #14]
 80076b4:	687b      	ldr	r3, [r7, #4]
 80076b6:	f8d3 32c8 	ldr.w	r3, [r3, #712]	; 0x2c8
 80076ba:	78fa      	ldrb	r2, [r7, #3]
 80076bc:	4611      	mov	r1, r2
 80076be:	4618      	mov	r0, r3
 80076c0:	f7fa fb55 	bl	8001d6e <HAL_PCD_SetAddress>
 80076c4:	4603      	mov	r3, r0
 80076c6:	73fb      	strb	r3, [r7, #15]
 80076c8:	7bfb      	ldrb	r3, [r7, #15]
 80076ca:	4618      	mov	r0, r3
 80076cc:	f000 f874 	bl	80077b8 <USBD_Get_USB_Status>
 80076d0:	4603      	mov	r3, r0
 80076d2:	73bb      	strb	r3, [r7, #14]
 80076d4:	7bbb      	ldrb	r3, [r7, #14]
 80076d6:	4618      	mov	r0, r3
 80076d8:	3710      	adds	r7, #16
 80076da:	46bd      	mov	sp, r7
 80076dc:	bd80      	pop	{r7, pc}

080076de <USBD_LL_Transmit>:
 80076de:	b580      	push	{r7, lr}
 80076e0:	b086      	sub	sp, #24
 80076e2:	af00      	add	r7, sp, #0
 80076e4:	60f8      	str	r0, [r7, #12]
 80076e6:	607a      	str	r2, [r7, #4]
 80076e8:	603b      	str	r3, [r7, #0]
 80076ea:	460b      	mov	r3, r1
 80076ec:	72fb      	strb	r3, [r7, #11]
 80076ee:	2300      	movs	r3, #0
 80076f0:	75fb      	strb	r3, [r7, #23]
 80076f2:	2300      	movs	r3, #0
 80076f4:	75bb      	strb	r3, [r7, #22]
 80076f6:	68fb      	ldr	r3, [r7, #12]
 80076f8:	f8d3 02c8 	ldr.w	r0, [r3, #712]	; 0x2c8
 80076fc:	7af9      	ldrb	r1, [r7, #11]
 80076fe:	683b      	ldr	r3, [r7, #0]
 8007700:	687a      	ldr	r2, [r7, #4]
 8007702:	f7fa fc6e 	bl	8001fe2 <HAL_PCD_EP_Transmit>
 8007706:	4603      	mov	r3, r0
 8007708:	75fb      	strb	r3, [r7, #23]
 800770a:	7dfb      	ldrb	r3, [r7, #23]
 800770c:	4618      	mov	r0, r3
 800770e:	f000 f853 	bl	80077b8 <USBD_Get_USB_Status>
 8007712:	4603      	mov	r3, r0
 8007714:	75bb      	strb	r3, [r7, #22]
 8007716:	7dbb      	ldrb	r3, [r7, #22]
 8007718:	4618      	mov	r0, r3
 800771a:	3718      	adds	r7, #24
 800771c:	46bd      	mov	sp, r7
 800771e:	bd80      	pop	{r7, pc}

08007720 <USBD_LL_PrepareReceive>:
 8007720:	b580      	push	{r7, lr}
 8007722:	b086      	sub	sp, #24
 8007724:	af00      	add	r7, sp, #0
 8007726:	60f8      	str	r0, [r7, #12]
 8007728:	607a      	str	r2, [r7, #4]
 800772a:	603b      	str	r3, [r7, #0]
 800772c:	460b      	mov	r3, r1
 800772e:	72fb      	strb	r3, [r7, #11]
 8007730:	2300      	movs	r3, #0
 8007732:	75fb      	strb	r3, [r7, #23]
 8007734:	2300      	movs	r3, #0
 8007736:	75bb      	strb	r3, [r7, #22]
 8007738:	68fb      	ldr	r3, [r7, #12]
 800773a:	f8d3 02c8 	ldr.w	r0, [r3, #712]	; 0x2c8
 800773e:	7af9      	ldrb	r1, [r7, #11]
 8007740:	683b      	ldr	r3, [r7, #0]
 8007742:	687a      	ldr	r2, [r7, #4]
 8007744:	f7fa fbea 	bl	8001f1c <HAL_PCD_EP_Receive>
 8007748:	4603      	mov	r3, r0
 800774a:	75fb      	strb	r3, [r7, #23]
 800774c:	7dfb      	ldrb	r3, [r7, #23]
 800774e:	4618      	mov	r0, r3
 8007750:	f000 f832 	bl	80077b8 <USBD_Get_USB_Status>
 8007754:	4603      	mov	r3, r0
 8007756:	75bb      	strb	r3, [r7, #22]
 8007758:	7dbb      	ldrb	r3, [r7, #22]
 800775a:	4618      	mov	r0, r3
 800775c:	3718      	adds	r7, #24
 800775e:	46bd      	mov	sp, r7
 8007760:	bd80      	pop	{r7, pc}

08007762 <USBD_LL_GetRxDataSize>:
 8007762:	b580      	push	{r7, lr}
 8007764:	b082      	sub	sp, #8
 8007766:	af00      	add	r7, sp, #0
 8007768:	6078      	str	r0, [r7, #4]
 800776a:	460b      	mov	r3, r1
 800776c:	70fb      	strb	r3, [r7, #3]
 800776e:	687b      	ldr	r3, [r7, #4]
 8007770:	f8d3 32c8 	ldr.w	r3, [r3, #712]	; 0x2c8
 8007774:	78fa      	ldrb	r2, [r7, #3]
 8007776:	4611      	mov	r1, r2
 8007778:	4618      	mov	r0, r3
 800777a:	f7fa fc1a 	bl	8001fb2 <HAL_PCD_EP_GetRxCount>
 800777e:	4603      	mov	r3, r0
 8007780:	4618      	mov	r0, r3
 8007782:	3708      	adds	r7, #8
 8007784:	46bd      	mov	sp, r7
 8007786:	bd80      	pop	{r7, pc}

08007788 <USBD_static_malloc>:
 8007788:	b480      	push	{r7}
 800778a:	b083      	sub	sp, #12
 800778c:	af00      	add	r7, sp, #0
 800778e:	6078      	str	r0, [r7, #4]
 8007790:	4b03      	ldr	r3, [pc, #12]	; (80077a0 <USBD_static_malloc+0x18>)
 8007792:	4618      	mov	r0, r3
 8007794:	370c      	adds	r7, #12
 8007796:	46bd      	mov	sp, r7
 8007798:	f85d 7b04 	ldr.w	r7, [sp], #4
 800779c:	4770      	bx	lr
 800779e:	bf00      	nop
 80077a0:	20001ba0 	.word	0x20001ba0

080077a4 <USBD_static_free>:
 80077a4:	b480      	push	{r7}
 80077a6:	b083      	sub	sp, #12
 80077a8:	af00      	add	r7, sp, #0
 80077aa:	6078      	str	r0, [r7, #4]
 80077ac:	bf00      	nop
 80077ae:	370c      	adds	r7, #12
 80077b0:	46bd      	mov	sp, r7
 80077b2:	f85d 7b04 	ldr.w	r7, [sp], #4
 80077b6:	4770      	bx	lr

080077b8 <USBD_Get_USB_Status>:
 80077b8:	b480      	push	{r7}
 80077ba:	b085      	sub	sp, #20
 80077bc:	af00      	add	r7, sp, #0
 80077be:	4603      	mov	r3, r0
 80077c0:	71fb      	strb	r3, [r7, #7]
 80077c2:	2300      	movs	r3, #0
 80077c4:	73fb      	strb	r3, [r7, #15]
 80077c6:	79fb      	ldrb	r3, [r7, #7]
 80077c8:	2b03      	cmp	r3, #3
 80077ca:	d817      	bhi.n	80077fc <USBD_Get_USB_Status+0x44>
 80077cc:	a201      	add	r2, pc, #4	; (adr r2, 80077d4 <USBD_Get_USB_Status+0x1c>)
 80077ce:	f852 f023 	ldr.w	pc, [r2, r3, lsl #2]
 80077d2:	bf00      	nop
 80077d4:	080077e5 	.word	0x080077e5
 80077d8:	080077eb 	.word	0x080077eb
 80077dc:	080077f1 	.word	0x080077f1
 80077e0:	080077f7 	.word	0x080077f7
 80077e4:	2300      	movs	r3, #0
 80077e6:	73fb      	strb	r3, [r7, #15]
 80077e8:	e00b      	b.n	8007802 <USBD_Get_USB_Status+0x4a>
 80077ea:	2303      	movs	r3, #3
 80077ec:	73fb      	strb	r3, [r7, #15]
 80077ee:	e008      	b.n	8007802 <USBD_Get_USB_Status+0x4a>
 80077f0:	2301      	movs	r3, #1
 80077f2:	73fb      	strb	r3, [r7, #15]
 80077f4:	e005      	b.n	8007802 <USBD_Get_USB_Status+0x4a>
 80077f6:	2303      	movs	r3, #3
 80077f8:	73fb      	strb	r3, [r7, #15]
 80077fa:	e002      	b.n	8007802 <USBD_Get_USB_Status+0x4a>
 80077fc:	2303      	movs	r3, #3
 80077fe:	73fb      	strb	r3, [r7, #15]
 8007800:	bf00      	nop
 8007802:	7bfb      	ldrb	r3, [r7, #15]
 8007804:	4618      	mov	r0, r3
 8007806:	3714      	adds	r7, #20
 8007808:	46bd      	mov	sp, r7
 800780a:	f85d 7b04 	ldr.w	r7, [sp], #4
 800780e:	4770      	bx	lr

08007810 <__libc_init_array>:
 8007810:	b570      	push	{r4, r5, r6, lr}
 8007812:	4d0d      	ldr	r5, [pc, #52]	; (8007848 <__libc_init_array+0x38>)
 8007814:	4c0d      	ldr	r4, [pc, #52]	; (800784c <__libc_init_array+0x3c>)
 8007816:	1b64      	subs	r4, r4, r5
 8007818:	10a4      	asrs	r4, r4, #2
 800781a:	2600      	movs	r6, #0
 800781c:	42a6      	cmp	r6, r4
 800781e:	d109      	bne.n	8007834 <__libc_init_array+0x24>
 8007820:	4d0b      	ldr	r5, [pc, #44]	; (8007850 <__libc_init_array+0x40>)
 8007822:	4c0c      	ldr	r4, [pc, #48]	; (8007854 <__libc_init_array+0x44>)
 8007824:	f000 f820 	bl	8007868 <_init>
 8007828:	1b64      	subs	r4, r4, r5
 800782a:	10a4      	asrs	r4, r4, #2
 800782c:	2600      	movs	r6, #0
 800782e:	42a6      	cmp	r6, r4
 8007830:	d105      	bne.n	800783e <__libc_init_array+0x2e>
 8007832:	bd70      	pop	{r4, r5, r6, pc}
 8007834:	f855 3b04 	ldr.w	r3, [r5], #4
 8007838:	4798      	blx	r3
 800783a:	3601      	adds	r6, #1
 800783c:	e7ee      	b.n	800781c <__libc_init_array+0xc>
 800783e:	f855 3b04 	ldr.w	r3, [r5], #4
 8007842:	4798      	blx	r3
 8007844:	3601      	adds	r6, #1
 8007846:	e7f2      	b.n	800782e <__libc_init_array+0x1e>
 8007848:	08007930 	.word	0x08007930
 800784c:	08007930 	.word	0x08007930
 8007850:	08007930 	.word	0x08007930
 8007854:	08007934 	.word	0x08007934

08007858 <memset>:
 8007858:	4402      	add	r2, r0
 800785a:	4603      	mov	r3, r0
 800785c:	4293      	cmp	r3, r2
 800785e:	d100      	bne.n	8007862 <memset+0xa>
 8007860:	4770      	bx	lr
 8007862:	f803 1b01 	strb.w	r1, [r3], #1
 8007866:	e7f9      	b.n	800785c <memset+0x4>

08007868 <_init>:
 8007868:	b5f8      	push	{r3, r4, r5, r6, r7, lr}
 800786a:	bf00      	nop
 800786c:	bcf8      	pop	{r3, r4, r5, r6, r7}
 800786e:	bc08      	pop	{r3}
 8007870:	469e      	mov	lr, r3
 8007872:	4770      	bx	lr

08007874 <_fini>:
 8007874:	b5f8      	push	{r3, r4, r5, r6, r7, lr}
 8007876:	bf00      	nop
 8007878:	bcf8      	pop	{r3, r4, r5, r6, r7}
 800787a:	bc08      	pop	{r3}
 800787c:	469e      	mov	lr, r3
 800787e:	4770      	bx	lr
